
./a.out:     file format elf64-x86-64


Disassembly of section .init:

0000000000003000 <_init>:
    3000:	48 83 ec 08          	sub    rsp,0x8
    3004:	48 8b 05 cd 8f 01 00 	mov    rax,QWORD PTR [rip+0x18fcd]        # 1bfd8 <__gmon_start__@Base>
    300b:	48 85 c0             	test   rax,rax
    300e:	74 02                	je     3012 <_init+0x12>
    3010:	ff d0                	call   rax
    3012:	48 83 c4 08          	add    rsp,0x8
    3016:	c3                   	ret

Disassembly of section .plt:

0000000000003020 <std::basic_ostream<char, std::char_traits<char> >::put(char)@plt-0x10>:
    3020:	ff 35 ca 8f 01 00    	push   QWORD PTR [rip+0x18fca]        # 1bff0 <_GLOBAL_OFFSET_TABLE_+0x8>
    3026:	ff 25 cc 8f 01 00    	jmp    QWORD PTR [rip+0x18fcc]        # 1bff8 <_GLOBAL_OFFSET_TABLE_+0x10>
    302c:	0f 1f 40 00          	nop    DWORD PTR [rax+0x0]

0000000000003030 <std::basic_ostream<char, std::char_traits<char> >::put(char)@plt>:
    3030:	ff 25 ca 8f 01 00    	jmp    QWORD PTR [rip+0x18fca]        # 1c000 <std::basic_ostream<char, std::char_traits<char> >::put(char)@GLIBCXX_3.4>
    3036:	68 00 00 00 00       	push   0x0
    303b:	e9 e0 ff ff ff       	jmp    3020 <_init+0x20>

0000000000003040 <std::to_chars(char*, char*, float)@plt>:
    3040:	ff 25 c2 8f 01 00    	jmp    QWORD PTR [rip+0x18fc2]        # 1c008 <std::to_chars(char*, char*, float)@GLIBCXX_3.4.29>
    3046:	68 01 00 00 00       	push   0x1
    304b:	e9 d0 ff ff ff       	jmp    3020 <_init+0x20>

0000000000003050 <frexpf@plt>:
    3050:	ff 25 ba 8f 01 00    	jmp    QWORD PTR [rip+0x18fba]        # 1c010 <frexpf@GLIBC_2.2.5>
    3056:	68 02 00 00 00       	push   0x2
    305b:	e9 c0 ff ff ff       	jmp    3020 <_init+0x20>

0000000000003060 <std::to_chars(char*, char*, long double, std::chars_format)@plt>:
    3060:	ff 25 b2 8f 01 00    	jmp    QWORD PTR [rip+0x18fb2]        # 1c018 <std::to_chars(char*, char*, long double, std::chars_format)@GLIBCXX_3.4.29>
    3066:	68 03 00 00 00       	push   0x3
    306b:	e9 b0 ff ff ff       	jmp    3020 <_init+0x20>

0000000000003070 <std::locale::operator==(std::locale const&) const@plt>:
    3070:	ff 25 aa 8f 01 00    	jmp    QWORD PTR [rip+0x18faa]        # 1c020 <std::locale::operator==(std::locale const&) const@GLIBCXX_3.4>
    3076:	68 04 00 00 00       	push   0x4
    307b:	e9 a0 ff ff ff       	jmp    3020 <_init+0x20>

0000000000003080 <std::to_chars(char*, char*, double)@plt>:
    3080:	ff 25 a2 8f 01 00    	jmp    QWORD PTR [rip+0x18fa2]        # 1c028 <std::to_chars(char*, char*, double)@GLIBCXX_3.4.29>
    3086:	68 05 00 00 00       	push   0x5
    308b:	e9 90 ff ff ff       	jmp    3020 <_init+0x20>

0000000000003090 <std::basic_ios<char, std::char_traits<char> >::imbue(std::locale const&)@plt>:
    3090:	ff 25 9a 8f 01 00    	jmp    QWORD PTR [rip+0x18f9a]        # 1c030 <std::basic_ios<char, std::char_traits<char> >::imbue(std::locale const&)@GLIBCXX_3.4>
    3096:	68 06 00 00 00       	push   0x6
    309b:	e9 80 ff ff ff       	jmp    3020 <_init+0x20>

00000000000030a0 <std::terminate()@plt>:
    30a0:	ff 25 92 8f 01 00    	jmp    QWORD PTR [rip+0x18f92]        # 1c038 <std::terminate()@GLIBCXX_3.4>
    30a6:	68 07 00 00 00       	push   0x7
    30ab:	e9 70 ff ff ff       	jmp    3020 <_init+0x20>

00000000000030b0 <std::ios_base::ios_base()@plt>:
    30b0:	ff 25 8a 8f 01 00    	jmp    QWORD PTR [rip+0x18f8a]        # 1c040 <std::ios_base::ios_base()@GLIBCXX_3.4>
    30b6:	68 08 00 00 00       	push   0x8
    30bb:	e9 60 ff ff ff       	jmp    3020 <_init+0x20>

00000000000030c0 <__udivti3@plt>:
    30c0:	ff 25 82 8f 01 00    	jmp    QWORD PTR [rip+0x18f82]        # 1c048 <__udivti3@GCC_3.0>
    30c6:	68 09 00 00 00       	push   0x9
    30cb:	e9 50 ff ff ff       	jmp    3020 <_init+0x20>

00000000000030d0 <std::ios_base::~ios_base()@plt>:
    30d0:	ff 25 7a 8f 01 00    	jmp    QWORD PTR [rip+0x18f7a]        # 1c050 <std::ios_base::~ios_base()@GLIBCXX_3.4>
    30d6:	68 0a 00 00 00       	push   0xa
    30db:	e9 40 ff ff ff       	jmp    3020 <_init+0x20>

00000000000030e0 <std::__throw_bad_alloc()@plt>:
    30e0:	ff 25 72 8f 01 00    	jmp    QWORD PTR [rip+0x18f72]        # 1c058 <std::__throw_bad_alloc()@GLIBCXX_3.4>
    30e6:	68 0b 00 00 00       	push   0xb
    30eb:	e9 30 ff ff ff       	jmp    3020 <_init+0x20>

00000000000030f0 <strlen@plt>:
    30f0:	ff 25 6a 8f 01 00    	jmp    QWORD PTR [rip+0x18f6a]        # 1c060 <strlen@GLIBC_2.2.5>
    30f6:	68 0c 00 00 00       	push   0xc
    30fb:	e9 20 ff ff ff       	jmp    3020 <_init+0x20>

0000000000003100 <std::thread::_State::~_State()@plt>:
    3100:	ff 25 62 8f 01 00    	jmp    QWORD PTR [rip+0x18f62]        # 1c068 <std::thread::_State::~_State()@GLIBCXX_3.4.22>
    3106:	68 0d 00 00 00       	push   0xd
    310b:	e9 10 ff ff ff       	jmp    3020 <_init+0x20>

0000000000003110 <__gttf2@plt>:
    3110:	ff 25 5a 8f 01 00    	jmp    QWORD PTR [rip+0x18f5a]        # 1c070 <__gttf2@GCC_4.3.0>
    3116:	68 0e 00 00 00       	push   0xe
    311b:	e9 00 ff ff ff       	jmp    3020 <_init+0x20>

0000000000003120 <std::locale::id::_M_id() const@plt>:
    3120:	ff 25 52 8f 01 00    	jmp    QWORD PTR [rip+0x18f52]        # 1c078 <std::locale::id::_M_id() const@GLIBCXX_3.4>
    3126:	68 0f 00 00 00       	push   0xf
    312b:	e9 f0 fe ff ff       	jmp    3020 <_init+0x20>

0000000000003130 <std::__throw_length_error(char const*)@plt>:
    3130:	ff 25 4a 8f 01 00    	jmp    QWORD PTR [rip+0x18f4a]        # 1c080 <std::__throw_length_error(char const*)@GLIBCXX_3.4>
    3136:	68 10 00 00 00       	push   0x10
    313b:	e9 e0 fe ff ff       	jmp    3020 <_init+0x20>

0000000000003140 <memset@plt>:
    3140:	ff 25 42 8f 01 00    	jmp    QWORD PTR [rip+0x18f42]        # 1c088 <memset@GLIBC_2.2.5>
    3146:	68 11 00 00 00       	push   0x11
    314b:	e9 d0 fe ff ff       	jmp    3020 <_init+0x20>

0000000000003150 <abort@plt>:
    3150:	ff 25 3a 8f 01 00    	jmp    QWORD PTR [rip+0x18f3a]        # 1c090 <abort@GLIBC_2.2.5>
    3156:	68 12 00 00 00       	push   0x12
    315b:	e9 c0 fe ff ff       	jmp    3020 <_init+0x20>

0000000000003160 <std::to_chars(char*, char*, long double)@plt>:
    3160:	ff 25 32 8f 01 00    	jmp    QWORD PTR [rip+0x18f32]        # 1c098 <std::to_chars(char*, char*, long double)@GLIBCXX_3.4.29>
    3166:	68 13 00 00 00       	push   0x13
    316b:	e9 b0 fe ff ff       	jmp    3020 <_init+0x20>

0000000000003170 <std::to_chars(char*, char*, double, std::chars_format)@plt>:
    3170:	ff 25 2a 8f 01 00    	jmp    QWORD PTR [rip+0x18f2a]        # 1c0a0 <std::to_chars(char*, char*, double, std::chars_format)@GLIBCXX_3.4.29>
    3176:	68 14 00 00 00       	push   0x14
    317b:	e9 a0 fe ff ff       	jmp    3020 <_init+0x20>

0000000000003180 <std::to_chars(char*, char*, double, std::chars_format, int)@plt>:
    3180:	ff 25 22 8f 01 00    	jmp    QWORD PTR [rip+0x18f22]        # 1c0a8 <std::to_chars(char*, char*, double, std::chars_format, int)@GLIBCXX_3.4.29>
    3186:	68 15 00 00 00       	push   0x15
    318b:	e9 90 fe ff ff       	jmp    3020 <_init+0x20>

0000000000003190 <std::locale::locale(std::locale const&)@plt>:
    3190:	ff 25 1a 8f 01 00    	jmp    QWORD PTR [rip+0x18f1a]        # 1c0b0 <std::locale::locale(std::locale const&)@GLIBCXX_3.4>
    3196:	68 16 00 00 00       	push   0x16
    319b:	e9 80 fe ff ff       	jmp    3020 <_init+0x20>

00000000000031a0 <std::to_chars(char*, char*, _Float128, std::chars_format)@plt>:
    31a0:	ff 25 12 8f 01 00    	jmp    QWORD PTR [rip+0x18f12]        # 1c0b8 <std::to_chars(char*, char*, _Float128, std::chars_format)@GLIBCXX_3.4.31>
    31a6:	68 17 00 00 00       	push   0x17
    31ab:	e9 70 fe ff ff       	jmp    3020 <_init+0x20>

00000000000031b0 <memcpy@plt>:
    31b0:	ff 25 0a 8f 01 00    	jmp    QWORD PTR [rip+0x18f0a]        # 1c0c0 <memcpy@GLIBC_2.14>
    31b6:	68 18 00 00 00       	push   0x18
    31bb:	e9 60 fe ff ff       	jmp    3020 <_init+0x20>

00000000000031c0 <std::to_chars(char*, char*, _Float128, std::chars_format, int)@plt>:
    31c0:	ff 25 02 8f 01 00    	jmp    QWORD PTR [rip+0x18f02]        # 1c0c8 <std::to_chars(char*, char*, _Float128, std::chars_format, int)@GLIBCXX_3.4.31>
    31c6:	68 19 00 00 00       	push   0x19
    31cb:	e9 50 fe ff ff       	jmp    3020 <_init+0x20>

00000000000031d0 <std::thread::_M_start_thread(std::unique_ptr<std::thread::_State, std::default_delete<std::thread::_State> >, void (*)())@plt>:
    31d0:	ff 25 fa 8e 01 00    	jmp    QWORD PTR [rip+0x18efa]        # 1c0d0 <std::thread::_M_start_thread(std::unique_ptr<std::thread::_State, std::default_delete<std::thread::_State> >, void (*)())@GLIBCXX_3.4.22>
    31d6:	68 1a 00 00 00       	push   0x1a
    31db:	e9 40 fe ff ff       	jmp    3020 <_init+0x20>

00000000000031e0 <operator new(unsigned long)@plt>:
    31e0:	ff 25 f2 8e 01 00    	jmp    QWORD PTR [rip+0x18ef2]        # 1c0d8 <operator new(unsigned long)@GLIBCXX_3.4>
    31e6:	68 1b 00 00 00       	push   0x1b
    31eb:	e9 30 fe ff ff       	jmp    3020 <_init+0x20>

00000000000031f0 <std::to_chars(char*, char*, float, std::chars_format)@plt>:
    31f0:	ff 25 ea 8e 01 00    	jmp    QWORD PTR [rip+0x18eea]        # 1c0e0 <std::to_chars(char*, char*, float, std::chars_format)@GLIBCXX_3.4.29>
    31f6:	68 1c 00 00 00       	push   0x1c
    31fb:	e9 20 fe ff ff       	jmp    3020 <_init+0x20>

0000000000003200 <operator delete(void*, unsigned long)@plt>:
    3200:	ff 25 e2 8e 01 00    	jmp    QWORD PTR [rip+0x18ee2]        # 1c0e8 <operator delete(void*, unsigned long)@CXXABI_1.3.9>
    3206:	68 1d 00 00 00       	push   0x1d
    320b:	e9 10 fe ff ff       	jmp    3020 <_init+0x20>

0000000000003210 <std::to_chars(char*, char*, long double, std::chars_format, int)@plt>:
    3210:	ff 25 da 8e 01 00    	jmp    QWORD PTR [rip+0x18eda]        # 1c0f0 <std::to_chars(char*, char*, long double, std::chars_format, int)@GLIBCXX_3.4.29>
    3216:	68 1e 00 00 00       	push   0x1e
    321b:	e9 00 fe ff ff       	jmp    3020 <_init+0x20>

0000000000003220 <memchr@plt>:
    3220:	ff 25 d2 8e 01 00    	jmp    QWORD PTR [rip+0x18ed2]        # 1c0f8 <memchr@GLIBC_2.2.5>
    3226:	68 1f 00 00 00       	push   0x1f
    322b:	e9 f0 fd ff ff       	jmp    3020 <_init+0x20>

0000000000003230 <__dynamic_cast@plt>:
    3230:	ff 25 ca 8e 01 00    	jmp    QWORD PTR [rip+0x18eca]        # 1c100 <__dynamic_cast@CXXABI_1.3>
    3236:	68 20 00 00 00       	push   0x20
    323b:	e9 e0 fd ff ff       	jmp    3020 <_init+0x20>

0000000000003240 <std::basic_ostream<char, std::char_traits<char> >& std::__ostream_insert<char, std::char_traits<char> >(std::basic_ostream<char, std::char_traits<char> >&, char const*, long)@plt>:
    3240:	ff 25 c2 8e 01 00    	jmp    QWORD PTR [rip+0x18ec2]        # 1c108 <std::basic_ostream<char, std::char_traits<char> >& std::__ostream_insert<char, std::char_traits<char> >(std::basic_ostream<char, std::char_traits<char> >&, char const*, long)@GLIBCXX_3.4.9>
    3246:	68 21 00 00 00       	push   0x21
    324b:	e9 d0 fd ff ff       	jmp    3020 <_init+0x20>

0000000000003250 <std::to_chars(char*, char*, float, std::chars_format, int)@plt>:
    3250:	ff 25 ba 8e 01 00    	jmp    QWORD PTR [rip+0x18eba]        # 1c110 <std::to_chars(char*, char*, float, std::chars_format, int)@GLIBCXX_3.4.29>
    3256:	68 22 00 00 00       	push   0x22
    325b:	e9 c0 fd ff ff       	jmp    3020 <_init+0x20>

0000000000003260 <std::__throw_bad_cast()@plt>:
    3260:	ff 25 b2 8e 01 00    	jmp    QWORD PTR [rip+0x18eb2]        # 1c118 <std::__throw_bad_cast()@GLIBCXX_3.4>
    3266:	68 23 00 00 00       	push   0x23
    326b:	e9 b0 fd ff ff       	jmp    3020 <_init+0x20>

0000000000003270 <std::__cxx11::basic_stringbuf<char, std::char_traits<char>, std::allocator<char> >::_M_sync(char*, unsigned long, unsigned long)@plt>:
    3270:	ff 25 aa 8e 01 00    	jmp    QWORD PTR [rip+0x18eaa]        # 1c120 <std::__cxx11::basic_stringbuf<char, std::char_traits<char>, std::allocator<char> >::_M_sync(char*, unsigned long, unsigned long)@GLIBCXX_3.4.21>
    3276:	68 24 00 00 00       	push   0x24
    327b:	e9 a0 fd ff ff       	jmp    3020 <_init+0x20>

0000000000003280 <std::chrono::_V2::steady_clock::now()@plt>:
    3280:	ff 25 a2 8e 01 00    	jmp    QWORD PTR [rip+0x18ea2]        # 1c128 <std::chrono::_V2::steady_clock::now()@GLIBCXX_3.4.19>
    3286:	68 25 00 00 00       	push   0x25
    328b:	e9 90 fd ff ff       	jmp    3020 <_init+0x20>

0000000000003290 <std::basic_ios<char, std::char_traits<char> >::init(std::basic_streambuf<char, std::char_traits<char> >*)@plt>:
    3290:	ff 25 9a 8e 01 00    	jmp    QWORD PTR [rip+0x18e9a]        # 1c130 <std::basic_ios<char, std::char_traits<char> >::init(std::basic_streambuf<char, std::char_traits<char> >*)@GLIBCXX_3.4>
    3296:	68 26 00 00 00       	push   0x26
    329b:	e9 80 fd ff ff       	jmp    3020 <_init+0x20>

00000000000032a0 <std::locale::classic()@plt>:
    32a0:	ff 25 92 8e 01 00    	jmp    QWORD PTR [rip+0x18e92]        # 1c138 <std::locale::classic()@GLIBCXX_3.4>
    32a6:	68 27 00 00 00       	push   0x27
    32ab:	e9 70 fd ff ff       	jmp    3020 <_init+0x20>

00000000000032b0 <std::__cxx11::basic_string<char, std::char_traits<char>, std::allocator<char> >::_M_replace_cold(char*, unsigned long, char const*, unsigned long, unsigned long)@plt>:
    32b0:	ff 25 8a 8e 01 00    	jmp    QWORD PTR [rip+0x18e8a]        # 1c140 <std::__cxx11::basic_string<char, std::char_traits<char>, std::allocator<char> >::_M_replace_cold(char*, unsigned long, char const*, unsigned long, unsigned long)@GLIBCXX_3.4.31>
    32b6:	68 28 00 00 00       	push   0x28
    32bb:	e9 60 fd ff ff       	jmp    3020 <_init+0x20>

00000000000032c0 <std::locale::~locale()@plt>:
    32c0:	ff 25 82 8e 01 00    	jmp    QWORD PTR [rip+0x18e82]        # 1c148 <std::locale::~locale()@GLIBCXX_3.4>
    32c6:	68 29 00 00 00       	push   0x29
    32cb:	e9 50 fd ff ff       	jmp    3020 <_init+0x20>

00000000000032d0 <__unordtf2@plt>:
    32d0:	ff 25 7a 8e 01 00    	jmp    QWORD PTR [rip+0x18e7a]        # 1c150 <__unordtf2@GCC_4.3.0>
    32d6:	68 2a 00 00 00       	push   0x2a
    32db:	e9 40 fd ff ff       	jmp    3020 <_init+0x20>

00000000000032e0 <std::__throw_out_of_range_fmt(char const*, ...)@plt>:
    32e0:	ff 25 72 8e 01 00    	jmp    QWORD PTR [rip+0x18e72]        # 1c158 <std::__throw_out_of_range_fmt(char const*, ...)@GLIBCXX_3.4.20>
    32e6:	68 2b 00 00 00       	push   0x2b
    32eb:	e9 30 fd ff ff       	jmp    3020 <_init+0x20>

00000000000032f0 <frexpl@plt>:
    32f0:	ff 25 6a 8e 01 00    	jmp    QWORD PTR [rip+0x18e6a]        # 1c160 <frexpl@GLIBC_2.2.5>
    32f6:	68 2c 00 00 00       	push   0x2c
    32fb:	e9 20 fd ff ff       	jmp    3020 <_init+0x20>

0000000000003300 <std::locale::name[abi:cxx11]() const@plt>:
    3300:	ff 25 62 8e 01 00    	jmp    QWORD PTR [rip+0x18e62]        # 1c168 <std::locale::name[abi:cxx11]() const@GLIBCXX_3.4.21>
    3306:	68 2d 00 00 00       	push   0x2d
    330b:	e9 10 fd ff ff       	jmp    3020 <_init+0x20>

0000000000003310 <std::basic_ostream<char, std::char_traits<char> >& std::basic_ostream<char, std::char_traits<char> >::_M_insert<double>(double)@plt>:
    3310:	ff 25 5a 8e 01 00    	jmp    QWORD PTR [rip+0x18e5a]        # 1c170 <std::basic_ostream<char, std::char_traits<char> >& std::basic_ostream<char, std::char_traits<char> >::_M_insert<double>(double)@GLIBCXX_3.4.9>
    3316:	68 2e 00 00 00       	push   0x2e
    331b:	e9 00 fd ff ff       	jmp    3020 <_init+0x20>

0000000000003320 <memmove@plt>:
    3320:	ff 25 52 8e 01 00    	jmp    QWORD PTR [rip+0x18e52]        # 1c178 <memmove@GLIBC_2.2.5>
    3326:	68 2f 00 00 00       	push   0x2f
    332b:	e9 f0 fc ff ff       	jmp    3020 <_init+0x20>

0000000000003330 <std::to_chars(char*, char*, _Float128)@plt>:
    3330:	ff 25 4a 8e 01 00    	jmp    QWORD PTR [rip+0x18e4a]        # 1c180 <std::to_chars(char*, char*, _Float128)@GLIBCXX_3.4.31>
    3336:	68 30 00 00 00       	push   0x30
    333b:	e9 e0 fc ff ff       	jmp    3020 <_init+0x20>

0000000000003340 <std::thread::join()@plt>:
    3340:	ff 25 42 8e 01 00    	jmp    QWORD PTR [rip+0x18e42]        # 1c188 <std::thread::join()@GLIBCXX_3.4.11>
    3346:	68 31 00 00 00       	push   0x31
    334b:	e9 d0 fc ff ff       	jmp    3020 <_init+0x20>

0000000000003350 <toupper@plt>:
    3350:	ff 25 3a 8e 01 00    	jmp    QWORD PTR [rip+0x18e3a]        # 1c190 <toupper@GLIBC_2.2.5>
    3356:	68 32 00 00 00       	push   0x32
    335b:	e9 c0 fc ff ff       	jmp    3020 <_init+0x20>

0000000000003360 <frexp@plt>:
    3360:	ff 25 32 8e 01 00    	jmp    QWORD PTR [rip+0x18e32]        # 1c198 <frexp@GLIBC_2.2.5>
    3366:	68 33 00 00 00       	push   0x33
    336b:	e9 b0 fc ff ff       	jmp    3020 <_init+0x20>

0000000000003370 <std::locale::locale()@plt>:
    3370:	ff 25 2a 8e 01 00    	jmp    QWORD PTR [rip+0x18e2a]        # 1c1a0 <std::locale::locale()@GLIBCXX_3.4>
    3376:	68 34 00 00 00       	push   0x34
    337b:	e9 a0 fc ff ff       	jmp    3020 <_init+0x20>

Disassembly of section .plt.got:

0000000000003380 <__cxa_finalize@plt>:
    3380:	ff 25 3a 8c 01 00    	jmp    QWORD PTR [rip+0x18c3a]        # 1bfc0 <__cxa_finalize@GLIBC_2.2.5>
    3386:	66 90                	xchg   ax,ax

Disassembly of section .text:

00000000000033c0 <unsigned long std::__format::_Spec<char>::_M_get_precision<std::basic_format_context<std::__format::_Sink_iter<char>, char> >(std::basic_format_context<std::__format::_Sink_iter<char>, char>&) const [clone .part.0] [clone .isra.0] [clone .cold]>:

  /// @cond undocumented
  [[noreturn]]
  inline void
  __throw_format_error(const char* __what)
  { _GLIBCXX_THROW_OR_ABORT(format_error(__what)); }
    33c0:	e8 8b fd ff ff       	call   3150 <abort@plt>
    33c5:	e8 86 fd ff ff       	call   3150 <abort@plt>

00000000000033ca <unsigned long std::__format::_Spec<char>::_M_get_width<std::basic_format_context<std::__format::_Sink_iter<char>, char> >(std::basic_format_context<std::__format::_Sink_iter<char>, char>&) const [clone .part.0] [clone .isra.0] [clone .cold]>:
    33ca:	e8 81 fd ff ff       	call   3150 <abort@plt>
    33cf:	e8 7c fd ff ff       	call   3150 <abort@plt>

00000000000033d4 <std::__format::_Sink_iter<char> std::__format::__formatter_chrono<char>::_M_locale_fmt<std::__format::_Sink_iter<char> >(std::__format::_Sink_iter<char>, std::locale const&, tm const&, char, char) const [clone .isra.0] [clone .cold]>:
#else
      (void) static_cast<const _Facet*>(static_cast<const locale::facet*>(0));
#endif
      if (const _Facet* __f = std::__try_use_facet<_Facet>(__loc))
	return *__f;
      __throw_bad_cast();
    33d4:	e8 87 fe ff ff       	call   3260 <std::__throw_bad_cast()@plt>

00000000000033d9 <main.cold>:
  // and without making the declaration of std::terminate visible to users.
  extern "C++" __attribute__ ((__noreturn__, __always_inline__))
  inline void __terminate() _GLIBCXX_USE_NOEXCEPT
  {
    void terminate() _GLIBCXX_USE_NOEXCEPT __attribute__ ((__noreturn__,__cold__));
    terminate();
    33d9:	e8 c2 fc ff ff       	call   30a0 <std::terminate()@plt>

00000000000033de <std::__cxx11::basic_string<char, std::char_traits<char>, std::allocator<char> >::_M_replace_aux(unsigned long, unsigned long, unsigned long, char) [clone .isra.0] [clone .cold]>:
      _GLIBCXX20_CONSTEXPR
      void
      _M_check_length(size_type __n1, size_type __n2, const char* __s) const
      {
	if (this->max_size() - (this->size() - __n1) < __n2)
	  __throw_length_error(__N(__s));
    33de:	48 8d 3d 73 1d 01 00 	lea    rdi,[rip+0x11d73]        # 15158 <CSWTCH.1110+0x78>
    33e5:	e8 46 fd ff ff       	call   3130 <std::__throw_length_error(char const*)@plt>

00000000000033ea <std::__cxx11::basic_string<char, std::char_traits<char>, std::allocator<char> >::_M_replace(unsigned long, unsigned long, char const*, unsigned long) [clone .isra.0] [clone .cold]>:
		this->_S_move(__p + __len2, __p + __len1, __how_much);
	      if (__len2)
		this->_S_copy(__p, __s, __len2);
	    }
	  else
	    _M_replace_cold(__p, __len1, __s, __len2, __how_much);
    33ea:	4c 89 e1             	mov    rcx,r12
    33ed:	4c 89 ee             	mov    rsi,r13
    33f0:	48 89 df             	mov    rdi,rbx
    33f3:	e8 b8 fe ff ff       	call   32b0 <std::__cxx11::basic_string<char, std::char_traits<char>, std::allocator<char> >::_M_replace_cold(char*, unsigned long, char const*, unsigned long, unsigned long)@plt>
    33f8:	e9 0d 13 00 00       	jmp    470a <std::__cxx11::basic_string<char, std::char_traits<char>, std::allocator<char> >::_M_replace(unsigned long, unsigned long, char const*, unsigned long) [clone .isra.0]+0xaa>
    33fd:	48 8d 3d 71 1d 01 00 	lea    rdi,[rip+0x11d71]        # 15175 <CSWTCH.1110+0x95>
    3404:	e8 27 fd ff ff       	call   3130 <std::__throw_length_error(char const*)@plt>
    3409:	90                   	nop

000000000000340a <std::__cxx11::basic_string<char, std::char_traits<char>, std::allocator<char> >::insert(unsigned long, unsigned long, char) [clone .isra.0] [clone .cold]>:
    340a:	48 8d 3d 47 1d 01 00 	lea    rdi,[rip+0x11d47]        # 15158 <CSWTCH.1110+0x78>
    3411:	e8 1a fd ff ff       	call   3130 <std::__throw_length_error(char const*)@plt>
	  __throw_out_of_range_fmt(__N("%s: __pos (which is %zu) > "
    3416:	48 89 d1             	mov    rcx,rdx
    3419:	48 8d 3d a8 1f 01 00 	lea    rdi,[rip+0x11fa8]        # 153c8 <CSWTCH.1110+0x2e8>
    3420:	48 89 f2             	mov    rdx,rsi
    3423:	31 c0                	xor    eax,eax
    3425:	48 8d 35 62 1d 01 00 	lea    rsi,[rip+0x11d62]        # 1518e <CSWTCH.1110+0xae>
    342c:	e8 af fe ff ff       	call   32e0 <std::__throw_out_of_range_fmt(char const*, ...)@plt>
    3431:	90                   	nop

0000000000003432 <std::__format::__formatter_fp<char>::_M_localize[abi:cxx11](std::basic_string_view<char, std::char_traits<char> >, char, std::locale const&) const [clone .isra.0] [clone .cold]>:
    3432:	e8 29 fe ff ff       	call   3260 <std::__throw_bad_cast()@plt>
  // Helper for basic_string and basic_string_view members.
  constexpr size_t
  __sv_check(size_t __size, size_t __pos, const char* __s)
  {
    if (__pos > __size)
      __throw_out_of_range_fmt(__N("%s: __pos (which is %zu) > __size "
    3437:	48 89 e9             	mov    rcx,rbp
    343a:	4c 89 e2             	mov    rdx,r12
    343d:	48 8d 35 5f 1d 01 00 	lea    rsi,[rip+0x11d5f]        # 151a3 <CSWTCH.1110+0xc3>
    3444:	31 c0                	xor    eax,eax
    3446:	48 8d 3d b3 1f 01 00 	lea    rdi,[rip+0x11fb3]        # 15400 <CSWTCH.1110+0x320>
    344d:	e8 8e fe ff ff       	call   32e0 <std::__throw_out_of_range_fmt(char const*, ...)@plt>
    3452:	66 2e 0f 1f 84 00 00 	cs nop WORD PTR [rax+rax*1+0x0]
    3459:	00 00 00 
    345c:	0f 1f 40 00          	nop    DWORD PTR [rax+0x0]

0000000000003460 <main>:
};




int main(int argc, char* argv[]) {
    3460:	41 57                	push   r15
    3462:	41 56                	push   r14
    3464:	41 55                	push   r13
    3466:	41 54                	push   r12
	  );

	using _Wrapper = _Call_wrapper<_Callable, _Args...>;
	// Create a call wrapper with DECAY_COPY(__f) as its target object
	// and DECAY_COPY(__args)... as its bound argument entities.
	_M_start_thread(_State_ptr(new _State_impl<_Wrapper>(
    3468:	4c 8d 25 81 16 00 00 	lea    r12,[rip+0x1681]        # 4af0 <std::thread::_M_thread_deps_never_run()>
    346f:	55                   	push   rbp
    3470:	53                   	push   rbx
    3471:	48 81 ec d8 01 00 00 	sub    rsp,0x1d8
    3478:	48 8d 54 24 68       	lea    rdx,[rsp+0x68]
    347d:	48 8d 44 24 6c       	lea    rax,[rsp+0x6c]
	{	
		// Not using atomics at all
		// x and y start out ==.  t1 sets x before y, therefore expect x >= y always
		constexpr std::uint32_t niter {std::numeric_limits<std::uint32_t>::max()};
    3482:	c7 44 24 40 ff ff ff 	mov    DWORD PTR [rsp+0x40],0xffffffff
    3489:	ff 
		std::uint32_t x {0};
    348a:	66 48 0f 6e f0       	movq   xmm6,rax
    348f:	66 48 0f 6e d2       	movq   xmm2,rdx
    3494:	48 8d 44 24 60       	lea    rax,[rsp+0x60]
    3499:	c7 44 24 44 00 00 00 	mov    DWORD PTR [rsp+0x44],0x0
    34a0:	00 
		std::uint32_t y {0};
    34a1:	48 8d 54 24 5c       	lea    rdx,[rsp+0x5c]
    34a6:	66 48 0f 6e f8       	movq   xmm7,rax
    34ab:	48 8d 44 24 54       	lea    rax,[rsp+0x54]
    34b0:	c7 44 24 48 00 00 00 	mov    DWORD PTR [rsp+0x48],0x0
    34b7:	00 
		non_atomic_write naw {x, y, niter};
		non_atomic_read nar {x, y, niter, 0};
    34b8:	66 48 0f 6e da       	movq   xmm3,rdx
    34bd:	48 8d 54 24 50       	lea    rdx,[rsp+0x50]
    34c2:	66 0f 6c d6          	punpcklqdq xmm2,xmm6
    34c6:	c7 84 24 04 01 00 00 	mov    DWORD PTR [rsp+0x104],0x0
    34cd:	00 00 00 00 
		
		std::chrono::time_point<std::chrono::steady_clock> start {std::chrono::steady_clock::now()};
    34d1:	66 48 0f 6e f0       	movq   xmm6,rax
    34d6:	66 48 0f 6e e2       	movq   xmm4,rdx
    34db:	48 8d 44 24 48       	lea    rax,[rsp+0x48]
    34e0:	0f 29 54 24 10       	movaps XMMWORD PTR [rsp+0x10],xmm2
    34e5:	48 8d 54 24 44       	lea    rdx,[rsp+0x44]
    34ea:	66 0f 6c df          	punpcklqdq xmm3,xmm7
    34ee:	66 48 0f 6e f8       	movq   xmm7,rax
    34f3:	66 48 0f 6e ca       	movq   xmm1,rdx
    34f8:	66 0f 6c e6          	punpcklqdq xmm4,xmm6
    34fc:	0f 29 5c 24 30       	movaps XMMWORD PTR [rsp+0x30],xmm3
    3501:	48 8d 9c 24 b0 01 00 	lea    rbx,[rsp+0x1b0]
    3508:	00 
    3509:	66 0f 6c cf          	punpcklqdq xmm1,xmm7
    350d:	0f 29 64 24 20       	movaps XMMWORD PTR [rsp+0x20],xmm4
    3512:	4c 8d 6c 24 70       	lea    r13,[rsp+0x70]
    3517:	0f 29 0c 24          	movaps XMMWORD PTR [rsp],xmm1
    351b:	e8 60 fd ff ff       	call   3280 <std::chrono::_V2::steady_clock::now()@plt>
    3520:	bf 20 00 00 00       	mov    edi,0x20
      id() noexcept : _M_thread() { }
    3525:	48 c7 44 24 70 00 00 	mov    QWORD PTR [rsp+0x70],0x0
    352c:	00 00 
    352e:	48 89 c5             	mov    rbp,rax
	_M_start_thread(_State_ptr(new _State_impl<_Wrapper>(
    3531:	e8 aa fc ff ff       	call   31e0 <operator new(unsigned long)@plt>
      constexpr _Head_base(const _Head_base&) = default;
      constexpr _Head_base(_Head_base&&) = default;

      template<typename _UHead>
        constexpr _Head_base(_UHead&& __h)
	: _M_head_impl(std::forward<_UHead>(__h)) { }
    3536:	b9 ff ff ff ff       	mov    ecx,0xffffffff
    353b:	4c 89 ef             	mov    rdi,r13
    353e:	4c 89 e2             	mov    rdx,r12
      {
	_Callable		_M_func;

	template<typename... _Args>
	  _State_impl(_Args&&... __args)
	  : _M_func(std::forward<_Args>(__args)...)
    3541:	48 8d 35 a0 83 01 00 	lea    rsi,[rip+0x183a0]        # 1b8e8 <vtable for std::thread::_State_impl<std::thread::_Invoker<std::tuple<non_atomic_write> > >+0x10>
    3548:	66 0f 6f 0c 24       	movdqa xmm1,XMMWORD PTR [rsp]
    354d:	48 89 48 18          	mov    QWORD PTR [rax+0x18],rcx
    3551:	48 89 30             	mov    QWORD PTR [rax],rsi
	_M_start_thread(_State_ptr(new _State_impl<_Wrapper>(
    3554:	48 89 de             	mov    rsi,rbx
    3557:	0f 11 48 08          	movups XMMWORD PTR [rax+0x8],xmm1
    355b:	48 89 8c 24 e0 00 00 	mov    QWORD PTR [rsp+0xe0],rcx
    3562:	00 
		     "unique_ptr's deleter type must be a function object type"
		     " or an lvalue reference type" );

      __uniq_ptr_impl() = default;
      _GLIBCXX23_CONSTEXPR
      __uniq_ptr_impl(pointer __p) : _M_t() { _M_ptr() = __p; }
    3563:	48 89 84 24 b0 01 00 	mov    QWORD PTR [rsp+0x1b0],rax
    356a:	00 
    356b:	0f 29 8c 24 d0 00 00 	movaps XMMWORD PTR [rsp+0xd0],xmm1
    3572:	00 
    3573:	e8 58 fc ff ff       	call   31d0 <std::thread::_M_start_thread(std::unique_ptr<std::thread::_State, std::default_delete<std::thread::_State> >, void (*)())@plt>
      ~unique_ptr() noexcept
      {
	static_assert(__is_invocable<deleter_type&, pointer>::value,
		      "unique_ptr's deleter must be invocable with a pointer");
	auto& __ptr = _M_t._M_ptr();
	if (__ptr != nullptr)
    3578:	48 8b bc 24 b0 01 00 	mov    rdi,QWORD PTR [rsp+0x1b0]
    357f:	00 
    3580:	48 85 ff             	test   rdi,rdi
    3583:	74 06                	je     358b <main+0x12b>
	delete __ptr;
    3585:	48 8b 07             	mov    rax,QWORD PTR [rdi]
    3588:	ff 50 08             	call   QWORD PTR [rax+0x8]
    358b:	bf 20 00 00 00       	mov    edi,0x20
    3590:	4c 8d 74 24 78       	lea    r14,[rsp+0x78]
      id() noexcept : _M_thread() { }
    3595:	48 c7 44 24 78 00 00 	mov    QWORD PTR [rsp+0x78],0x0
    359c:	00 00 
	_M_start_thread(_State_ptr(new _State_impl<_Wrapper>(
    359e:	e8 3d fc ff ff       	call   31e0 <operator new(unsigned long)@plt>
	  : _M_func(std::forward<_Args>(__args)...)
    35a3:	48 8d 35 66 83 01 00 	lea    rsi,[rip+0x18366]        # 1b910 <vtable for std::thread::_State_impl<std::thread::_Invoker<std::tuple<non_atomic_read> > >+0x10>
    35aa:	66 0f 6f 2c 24       	movdqa xmm5,XMMWORD PTR [rsp]
	_M_start_thread(_State_ptr(new _State_impl<_Wrapper>(
    35af:	4c 89 f7             	mov    rdi,r14
    35b2:	c7 84 24 00 01 00 00 	mov    DWORD PTR [rsp+0x100],0xffffffff
    35b9:	ff ff ff ff 
    35bd:	48 8b 94 24 00 01 00 	mov    rdx,QWORD PTR [rsp+0x100]
    35c4:	00 
	  : _M_func(std::forward<_Args>(__args)...)
    35c5:	48 89 30             	mov    QWORD PTR [rax],rsi
	_M_start_thread(_State_ptr(new _State_impl<_Wrapper>(
    35c8:	48 89 de             	mov    rsi,rbx
    35cb:	48 89 50 18          	mov    QWORD PTR [rax+0x18],rdx
    35cf:	4c 89 e2             	mov    rdx,r12
    35d2:	0f 11 68 08          	movups XMMWORD PTR [rax+0x8],xmm5
      __uniq_ptr_impl(pointer __p) : _M_t() { _M_ptr() = __p; }
    35d6:	48 89 84 24 b0 01 00 	mov    QWORD PTR [rsp+0x1b0],rax
    35dd:	00 
    35de:	0f 29 ac 24 f0 00 00 	movaps XMMWORD PTR [rsp+0xf0],xmm5
    35e5:	00 
    35e6:	e8 e5 fb ff ff       	call   31d0 <std::thread::_M_start_thread(std::unique_ptr<std::thread::_State, std::default_delete<std::thread::_State> >, void (*)())@plt>
	if (__ptr != nullptr)
    35eb:	48 8b bc 24 b0 01 00 	mov    rdi,QWORD PTR [rsp+0x1b0]
    35f2:	00 
    35f3:	48 85 ff             	test   rdi,rdi
    35f6:	74 06                	je     35fe <main+0x19e>
	delete __ptr;
    35f8:	48 8b 07             	mov    rax,QWORD PTR [rdi]
    35fb:	ff 50 08             	call   QWORD PTR [rax+0x8]
		std::thread t1(naw);
		std::thread t2(nar);
		t1.join();
    35fe:	4c 89 ef             	mov    rdi,r13
		t2.join();
		std::chrono::time_point<std::chrono::steady_clock> end {std::chrono::steady_clock::now()};
		
		std::chrono::duration<double> time_seconds {end-start};
		std::format_to(std::ostream_iterator<char>(std::cout),"No atomics:  After {} iterations, count_mismatches == {}\n", niter, nar.count_mismatch);
    3601:	4c 8d ac 24 90 01 00 	lea    r13,[rsp+0x190]
    3608:	00 
		t1.join();
    3609:	e8 32 fd ff ff       	call   3340 <std::thread::join()@plt>
		t2.join();
    360e:	4c 89 f7             	mov    rdi,r14
		std::format_to(std::ostream_iterator<char>(std::cout),"\tElapsed time == {} seconds\n", time_seconds);
    3611:	4c 8d 35 23 1b 01 00 	lea    r14,[rip+0x11b23]        # 1513b <CSWTCH.1110+0x5b>
		t2.join();
    3618:	e8 23 fd ff ff       	call   3340 <std::thread::join()@plt>
		std::chrono::time_point<std::chrono::steady_clock> end {std::chrono::steady_clock::now()};
    361d:	e8 5e fc ff ff       	call   3280 <std::chrono::_V2::steady_clock::now()@plt>
		std::format_to(std::ostream_iterator<char>(std::cout),"No atomics:  After {} iterations, count_mismatches == {}\n", niter, nar.count_mismatch);
    3622:	4c 8d 44 24 40       	lea    r8,[rsp+0x40]
    3627:	4c 89 ee             	mov    rsi,r13
    362a:	48 89 df             	mov    rdi,rbx
		const duration<_Rep2, _Period2>& __rhs)
      {
	typedef duration<_Rep1, _Period1>			__dur1;
	typedef duration<_Rep2, _Period2>			__dur2;
	typedef typename common_type<__dur1,__dur2>::type	__cd;
	return __cd(__cd(__lhs).count() - __cd(__rhs).count());
    362d:	48 29 e8             	sub    rax,rbp
    3630:	ba 39 00 00 00       	mov    edx,0x39
	      static_cast<_CR>(__d.count()) / static_cast<_CR>(_CF::den)));
    3635:	66 0f ef c0          	pxor   xmm0,xmm0
      const _CharT*	_M_string;

    public:
      /// Construct from an ostream.
      ostream_iterator(ostream_type& __s) _GLIBCXX_NOEXCEPT
      : _M_stream(std::__addressof(__s)), _M_string(0) {}
    3639:	48 c7 84 24 98 01 00 	mov    QWORD PTR [rsp+0x198],0x0
    3640:	00 00 00 00 00 
    3645:	48 8d 2d f4 8b 01 00 	lea    rbp,[rip+0x18bf4]        # 1c240 <std::cout@GLIBCXX_3.4>
    364c:	4c 8d 8c 24 04 01 00 	lea    r9,[rsp+0x104]
    3653:	00 
    3654:	48 8d 0d 95 1c 01 00 	lea    rcx,[rip+0x11c95]        # 152f0 <CSWTCH.1110+0x210>
    365b:	48 89 ac 24 90 01 00 	mov    QWORD PTR [rsp+0x190],rbp
    3662:	00 
    3663:	f2 48 0f 2a c0       	cvtsi2sd xmm0,rax
    3668:	f2 0f 5e 05 80 52 01 	divsd  xmm0,QWORD PTR [rip+0x15280]        # 188f0 <std::__unicode::__v15_1_0::__width_edges+0x470>
    366f:	00 
	  : __r(duration_cast<duration>(__d).count()) { }
    3670:	f2 0f 11 84 24 80 00 	movsd  QWORD PTR [rsp+0x80],xmm0
    3677:	00 00 
    3679:	e8 22 36 00 00       	call   6ca0 <std::ostream_iterator<char, char, std::char_traits<char> > std::format_to<std::ostream_iterator<char, char, std::char_traits<char> >, unsigned int const&, unsigned int&>(std::ostream_iterator<char, char, std::char_traits<char> >, std::basic_format_string<char, std::type_identity<unsigned int const&>::type, std::type_identity<unsigned int&>::type>, unsigned int const&, unsigned int&)>
		std::format_to(std::ostream_iterator<char>(std::cout),"\tElapsed time == {} seconds\n", time_seconds);
    367e:	ba 1c 00 00 00       	mov    edx,0x1c
    3683:	4c 89 f1             	mov    rcx,r14
    3686:	4c 89 ee             	mov    rsi,r13
    3689:	4c 8d 84 24 80 00 00 	lea    r8,[rsp+0x80]
    3690:	00 
    3691:	48 89 df             	mov    rdi,rbx
    3694:	48 89 ac 24 90 01 00 	mov    QWORD PTR [rsp+0x190],rbp
    369b:	00 
    369c:	48 c7 84 24 98 01 00 	mov    QWORD PTR [rsp+0x198],0x0
    36a3:	00 00 00 00 00 
    36a8:	e8 93 35 00 00       	call   6c40 <std::ostream_iterator<char, char, std::char_traits<char> > std::format_to<std::ostream_iterator<char, char, std::char_traits<char> >, std::chrono::duration<double, std::ratio<1l, 1l> >&>(std::ostream_iterator<char, char, std::char_traits<char> >, std::basic_format_string<char, std::type_identity<std::chrono::duration<double, std::ratio<1l, 1l> >&>::type>, std::chrono::duration<double, std::ratio<1l, 1l> >&)>
      if (joinable())
    36ad:	48 83 7c 24 78 00    	cmp    QWORD PTR [rsp+0x78],0x0
    36b3:	0f 85 20 fd ff ff    	jne    33d9 <main.cold>
    36b9:	48 83 7c 24 70 00    	cmp    QWORD PTR [rsp+0x70],0x0
    36bf:	0f 85 14 fd ff ff    	jne    33d9 <main.cold>
	}

	{
		// x and y start out ==.  t1 sets x before y, therefore expect x >= y always
		// All atomic operations use memory_order_relaxed
		constexpr std::uint32_t niter {std::numeric_limits<std::uint32_t>::max()};
    36c5:	c7 44 24 4c ff ff ff 	mov    DWORD PTR [rsp+0x4c],0xffffffff
    36cc:	ff 
	_M_start_thread(_State_ptr(new _State_impl<_Wrapper>(
    36cd:	4c 8d bc 24 88 00 00 	lea    r15,[rsp+0x88]
    36d4:	00 
		std::atomic<std::uint32_t> x {0};
    36d5:	c7 44 24 50 00 00 00 	mov    DWORD PTR [rsp+0x50],0x0
    36dc:	00 
		std::atomic<std::uint32_t> y {0};
    36dd:	c7 44 24 54 00 00 00 	mov    DWORD PTR [rsp+0x54],0x0
    36e4:	00 
		relaxed_relaxed_write rrw {x, y, niter};
		relaxed_relaxed_read rrr {x, y, niter, 0};
    36e5:	c7 84 24 44 01 00 00 	mov    DWORD PTR [rsp+0x144],0x0
    36ec:	00 00 00 00 
		
		std::chrono::time_point<std::chrono::steady_clock> start {std::chrono::steady_clock::now()};
    36f0:	e8 8b fb ff ff       	call   3280 <std::chrono::_V2::steady_clock::now()@plt>
    36f5:	bf 20 00 00 00       	mov    edi,0x20
      id() noexcept : _M_thread() { }
    36fa:	48 c7 84 24 88 00 00 	mov    QWORD PTR [rsp+0x88],0x0
    3701:	00 00 00 00 00 
    3706:	48 89 04 24          	mov    QWORD PTR [rsp],rax
	_M_start_thread(_State_ptr(new _State_impl<_Wrapper>(
    370a:	e8 d1 fa ff ff       	call   31e0 <operator new(unsigned long)@plt>
    370f:	be ff ff ff ff       	mov    esi,0xffffffff
    3714:	4c 89 ff             	mov    rdi,r15
    3717:	4c 89 e2             	mov    rdx,r12
	  : _M_func(std::forward<_Args>(__args)...)
    371a:	48 8d 0d 17 82 01 00 	lea    rcx,[rip+0x18217]        # 1b938 <vtable for std::thread::_State_impl<std::thread::_Invoker<std::tuple<relaxed_relaxed_write> > >+0x10>
    3721:	66 0f 6f 74 24 20    	movdqa xmm6,XMMWORD PTR [rsp+0x20]
    3727:	48 89 70 18          	mov    QWORD PTR [rax+0x18],rsi
    372b:	48 89 08             	mov    QWORD PTR [rax],rcx
    372e:	48 89 b4 24 20 01 00 	mov    QWORD PTR [rsp+0x120],rsi
    3735:	00 
	_M_start_thread(_State_ptr(new _State_impl<_Wrapper>(
    3736:	48 89 de             	mov    rsi,rbx
    3739:	0f 11 70 08          	movups XMMWORD PTR [rax+0x8],xmm6
      __uniq_ptr_impl(pointer __p) : _M_t() { _M_ptr() = __p; }
    373d:	48 89 84 24 b0 01 00 	mov    QWORD PTR [rsp+0x1b0],rax
    3744:	00 
    3745:	0f 29 b4 24 10 01 00 	movaps XMMWORD PTR [rsp+0x110],xmm6
    374c:	00 
    374d:	e8 7e fa ff ff       	call   31d0 <std::thread::_M_start_thread(std::unique_ptr<std::thread::_State, std::default_delete<std::thread::_State> >, void (*)())@plt>
	if (__ptr != nullptr)
    3752:	48 8b bc 24 b0 01 00 	mov    rdi,QWORD PTR [rsp+0x1b0]
    3759:	00 
    375a:	48 85 ff             	test   rdi,rdi
    375d:	74 06                	je     3765 <main+0x305>
	delete __ptr;
    375f:	48 8b 07             	mov    rax,QWORD PTR [rdi]
    3762:	ff 50 08             	call   QWORD PTR [rax+0x8]
    3765:	bf 20 00 00 00       	mov    edi,0x20
      id() noexcept : _M_thread() { }
    376a:	48 c7 84 24 90 00 00 	mov    QWORD PTR [rsp+0x90],0x0
    3771:	00 00 00 00 00 
	_M_start_thread(_State_ptr(new _State_impl<_Wrapper>(
    3776:	e8 65 fa ff ff       	call   31e0 <operator new(unsigned long)@plt>
    377b:	66 0f 6f 7c 24 20    	movdqa xmm7,XMMWORD PTR [rsp+0x20]
    3781:	c7 84 24 40 01 00 00 	mov    DWORD PTR [rsp+0x140],0xffffffff
    3788:	ff ff ff ff 
	  : _M_func(std::forward<_Args>(__args)...)
    378c:	48 8d 35 cd 81 01 00 	lea    rsi,[rip+0x181cd]        # 1b960 <vtable for std::thread::_State_impl<std::thread::_Invoker<std::tuple<relaxed_relaxed_read> > >+0x10>
    3793:	48 8b 94 24 40 01 00 	mov    rdx,QWORD PTR [rsp+0x140]
    379a:	00 
    379b:	48 89 30             	mov    QWORD PTR [rax],rsi
	_M_start_thread(_State_ptr(new _State_impl<_Wrapper>(
    379e:	48 89 de             	mov    rsi,rbx
      __uniq_ptr_impl(pointer __p) : _M_t() { _M_ptr() = __p; }
    37a1:	48 89 84 24 b0 01 00 	mov    QWORD PTR [rsp+0x1b0],rax
    37a8:	00 
    37a9:	48 89 50 18          	mov    QWORD PTR [rax+0x18],rdx
    37ad:	4c 89 e2             	mov    rdx,r12
    37b0:	0f 11 78 08          	movups XMMWORD PTR [rax+0x8],xmm7
    37b4:	48 8d 84 24 90 00 00 	lea    rax,[rsp+0x90]
    37bb:	00 
    37bc:	48 89 c7             	mov    rdi,rax
    37bf:	48 89 44 24 20       	mov    QWORD PTR [rsp+0x20],rax
    37c4:	0f 29 bc 24 30 01 00 	movaps XMMWORD PTR [rsp+0x130],xmm7
    37cb:	00 
    37cc:	e8 ff f9 ff ff       	call   31d0 <std::thread::_M_start_thread(std::unique_ptr<std::thread::_State, std::default_delete<std::thread::_State> >, void (*)())@plt>
	if (__ptr != nullptr)
    37d1:	48 8b bc 24 b0 01 00 	mov    rdi,QWORD PTR [rsp+0x1b0]
    37d8:	00 
    37d9:	48 85 ff             	test   rdi,rdi
    37dc:	74 06                	je     37e4 <main+0x384>
	delete __ptr;
    37de:	48 8b 07             	mov    rax,QWORD PTR [rdi]
    37e1:	ff 50 08             	call   QWORD PTR [rax+0x8]
		std::thread t1(rrw);
		std::thread t2(rrr);
		t1.join();
    37e4:	4c 89 ff             	mov    rdi,r15
    37e7:	e8 54 fb ff ff       	call   3340 <std::thread::join()@plt>
		t2.join();
    37ec:	48 8b 7c 24 20       	mov    rdi,QWORD PTR [rsp+0x20]
    37f1:	e8 4a fb ff ff       	call   3340 <std::thread::join()@plt>
		std::chrono::time_point<std::chrono::steady_clock> end {std::chrono::steady_clock::now()};
    37f6:	e8 85 fa ff ff       	call   3280 <std::chrono::_V2::steady_clock::now()@plt>
	return __cd(__cd(__lhs).count() - __cd(__rhs).count());
    37fb:	48 8b 0c 24          	mov    rcx,QWORD PTR [rsp]
		
		std::chrono::duration<double> time_seconds {end-start};
		std::format_to(std::ostream_iterator<char>(std::cout),"memory_order_relaxed:  After {} iterations, count_mismatches == {}\n", niter, rrr.count_mismatch);
    37ff:	4c 89 ee             	mov    rsi,r13
    3802:	48 89 df             	mov    rdi,rbx
    3805:	4c 8d 44 24 4c       	lea    r8,[rsp+0x4c]
    380a:	4c 8d 8c 24 44 01 00 	lea    r9,[rsp+0x144]
    3811:	00 
	      static_cast<_CR>(__d.count()) / static_cast<_CR>(_CF::den)));
    3812:	66 0f ef c0          	pxor   xmm0,xmm0
    3816:	ba 43 00 00 00       	mov    edx,0x43
	return __cd(__cd(__lhs).count() - __cd(__rhs).count());
    381b:	48 29 c8             	sub    rax,rcx
    381e:	48 8d 0d 0b 1b 01 00 	lea    rcx,[rip+0x11b0b]        # 15330 <CSWTCH.1110+0x250>
    3825:	48 89 ac 24 90 01 00 	mov    QWORD PTR [rsp+0x190],rbp
    382c:	00 
	      static_cast<_CR>(__d.count()) / static_cast<_CR>(_CF::den)));
    382d:	f2 48 0f 2a c0       	cvtsi2sd xmm0,rax
    3832:	48 c7 84 24 98 01 00 	mov    QWORD PTR [rsp+0x198],0x0
    3839:	00 00 00 00 00 
    383e:	f2 0f 5e 05 aa 50 01 	divsd  xmm0,QWORD PTR [rip+0x150aa]        # 188f0 <std::__unicode::__v15_1_0::__width_edges+0x470>
    3845:	00 
	  : __r(duration_cast<duration>(__d).count()) { }
    3846:	f2 0f 11 84 24 98 00 	movsd  QWORD PTR [rsp+0x98],xmm0
    384d:	00 00 
    384f:	e8 4c 34 00 00       	call   6ca0 <std::ostream_iterator<char, char, std::char_traits<char> > std::format_to<std::ostream_iterator<char, char, std::char_traits<char> >, unsigned int const&, unsigned int&>(std::ostream_iterator<char, char, std::char_traits<char> >, std::basic_format_string<char, std::type_identity<unsigned int const&>::type, std::type_identity<unsigned int&>::type>, unsigned int const&, unsigned int&)>
		std::format_to(std::ostream_iterator<char>(std::cout),"\tElapsed time == {} seconds\n", time_seconds);
    3854:	ba 1c 00 00 00       	mov    edx,0x1c
    3859:	4c 89 f1             	mov    rcx,r14
    385c:	4c 89 ee             	mov    rsi,r13
    385f:	4c 8d 84 24 98 00 00 	lea    r8,[rsp+0x98]
    3866:	00 
    3867:	48 89 df             	mov    rdi,rbx
    386a:	48 89 ac 24 90 01 00 	mov    QWORD PTR [rsp+0x190],rbp
    3871:	00 
    3872:	48 c7 84 24 98 01 00 	mov    QWORD PTR [rsp+0x198],0x0
    3879:	00 00 00 00 00 
    387e:	e8 bd 33 00 00       	call   6c40 <std::ostream_iterator<char, char, std::char_traits<char> > std::format_to<std::ostream_iterator<char, char, std::char_traits<char> >, std::chrono::duration<double, std::ratio<1l, 1l> >&>(std::ostream_iterator<char, char, std::char_traits<char> >, std::basic_format_string<char, std::type_identity<std::chrono::duration<double, std::ratio<1l, 1l> >&>::type>, std::chrono::duration<double, std::ratio<1l, 1l> >&)>
      if (joinable())
    3883:	48 83 bc 24 90 00 00 	cmp    QWORD PTR [rsp+0x90],0x0
    388a:	00 00 
    388c:	0f 85 47 fb ff ff    	jne    33d9 <main.cold>
    3892:	48 83 bc 24 88 00 00 	cmp    QWORD PTR [rsp+0x88],0x0
    3899:	00 00 
    389b:	0f 85 38 fb ff ff    	jne    33d9 <main.cold>
	}

	{
		// x and y start out ==.  t1 sets x before y, therefore expect x >= y always
		// Uses memory_order_release and memory_order_acquire for one of the writes and one of the reads, respectively
		constexpr std::uint32_t niter {std::numeric_limits<std::uint32_t>::max()};
    38a1:	c7 44 24 58 ff ff ff 	mov    DWORD PTR [rsp+0x58],0xffffffff
    38a8:	ff 
	_M_start_thread(_State_ptr(new _State_impl<_Wrapper>(
    38a9:	4c 8d bc 24 a0 00 00 	lea    r15,[rsp+0xa0]
    38b0:	00 
		std::atomic<std::uint32_t> x {0};
    38b1:	c7 44 24 5c 00 00 00 	mov    DWORD PTR [rsp+0x5c],0x0
    38b8:	00 
		std::atomic<std::uint32_t> y {0};
    38b9:	c7 44 24 60 00 00 00 	mov    DWORD PTR [rsp+0x60],0x0
    38c0:	00 
		relaxed_release_write rxrlw {x, y, niter};
		acquire_relaxed_read arr {x, y, niter, 0};
    38c1:	c7 84 24 84 01 00 00 	mov    DWORD PTR [rsp+0x184],0x0
    38c8:	00 00 00 00 
		
		std::chrono::time_point<std::chrono::steady_clock> start {std::chrono::steady_clock::now()};
    38cc:	e8 af f9 ff ff       	call   3280 <std::chrono::_V2::steady_clock::now()@plt>
    38d1:	bf 20 00 00 00       	mov    edi,0x20
      id() noexcept : _M_thread() { }
    38d6:	48 c7 84 24 a0 00 00 	mov    QWORD PTR [rsp+0xa0],0x0
    38dd:	00 00 00 00 00 
    38e2:	48 89 04 24          	mov    QWORD PTR [rsp],rax
	_M_start_thread(_State_ptr(new _State_impl<_Wrapper>(
    38e6:	e8 f5 f8 ff ff       	call   31e0 <operator new(unsigned long)@plt>
    38eb:	b9 ff ff ff ff       	mov    ecx,0xffffffff
    38f0:	4c 89 ff             	mov    rdi,r15
    38f3:	4c 89 e2             	mov    rdx,r12
	  : _M_func(std::forward<_Args>(__args)...)
    38f6:	48 8d 35 8b 80 01 00 	lea    rsi,[rip+0x1808b]        # 1b988 <vtable for std::thread::_State_impl<std::thread::_Invoker<std::tuple<relaxed_release_write> > >+0x10>
    38fd:	66 0f 6f 54 24 30    	movdqa xmm2,XMMWORD PTR [rsp+0x30]
    3903:	48 89 48 18          	mov    QWORD PTR [rax+0x18],rcx
    3907:	48 89 30             	mov    QWORD PTR [rax],rsi
	_M_start_thread(_State_ptr(new _State_impl<_Wrapper>(
    390a:	48 89 de             	mov    rsi,rbx
    390d:	0f 11 50 08          	movups XMMWORD PTR [rax+0x8],xmm2
    3911:	48 89 8c 24 60 01 00 	mov    QWORD PTR [rsp+0x160],rcx
    3918:	00 
      __uniq_ptr_impl(pointer __p) : _M_t() { _M_ptr() = __p; }
    3919:	48 89 84 24 b0 01 00 	mov    QWORD PTR [rsp+0x1b0],rax
    3920:	00 
    3921:	0f 29 94 24 50 01 00 	movaps XMMWORD PTR [rsp+0x150],xmm2
    3928:	00 
    3929:	e8 a2 f8 ff ff       	call   31d0 <std::thread::_M_start_thread(std::unique_ptr<std::thread::_State, std::default_delete<std::thread::_State> >, void (*)())@plt>
	if (__ptr != nullptr)
    392e:	48 8b bc 24 b0 01 00 	mov    rdi,QWORD PTR [rsp+0x1b0]
    3935:	00 
    3936:	48 85 ff             	test   rdi,rdi
    3939:	74 06                	je     3941 <main+0x4e1>
	delete __ptr;
    393b:	48 8b 07             	mov    rax,QWORD PTR [rdi]
    393e:	ff 50 08             	call   QWORD PTR [rax+0x8]
    3941:	bf 20 00 00 00       	mov    edi,0x20
      id() noexcept : _M_thread() { }
    3946:	48 c7 84 24 a8 00 00 	mov    QWORD PTR [rsp+0xa8],0x0
    394d:	00 00 00 00 00 
	_M_start_thread(_State_ptr(new _State_impl<_Wrapper>(
    3952:	e8 89 f8 ff ff       	call   31e0 <operator new(unsigned long)@plt>
    3957:	66 0f 6f 5c 24 30    	movdqa xmm3,XMMWORD PTR [rsp+0x30]
	  : _M_func(std::forward<_Args>(__args)...)
    395d:	48 8d 0d 4c 80 01 00 	lea    rcx,[rip+0x1804c]        # 1b9b0 <vtable for std::thread::_State_impl<std::thread::_Invoker<std::tuple<acquire_relaxed_read> > >+0x10>
	_M_start_thread(_State_ptr(new _State_impl<_Wrapper>(
    3964:	48 89 de             	mov    rsi,rbx
    3967:	c7 84 24 80 01 00 00 	mov    DWORD PTR [rsp+0x180],0xffffffff
    396e:	ff ff ff ff 
    3972:	48 8b 94 24 80 01 00 	mov    rdx,QWORD PTR [rsp+0x180]
    3979:	00 
	  : _M_func(std::forward<_Args>(__args)...)
    397a:	48 89 08             	mov    QWORD PTR [rax],rcx
    397d:	48 89 50 18          	mov    QWORD PTR [rax+0x18],rdx
	_M_start_thread(_State_ptr(new _State_impl<_Wrapper>(
    3981:	4c 89 e2             	mov    rdx,r12
      __uniq_ptr_impl(pointer __p) : _M_t() { _M_ptr() = __p; }
    3984:	48 89 84 24 b0 01 00 	mov    QWORD PTR [rsp+0x1b0],rax
    398b:	00 
    398c:	0f 11 58 08          	movups XMMWORD PTR [rax+0x8],xmm3
    3990:	48 8d 84 24 a8 00 00 	lea    rax,[rsp+0xa8]
    3997:	00 
    3998:	48 89 c7             	mov    rdi,rax
    399b:	48 89 44 24 20       	mov    QWORD PTR [rsp+0x20],rax
    39a0:	0f 29 9c 24 70 01 00 	movaps XMMWORD PTR [rsp+0x170],xmm3
    39a7:	00 
    39a8:	e8 23 f8 ff ff       	call   31d0 <std::thread::_M_start_thread(std::unique_ptr<std::thread::_State, std::default_delete<std::thread::_State> >, void (*)())@plt>
	if (__ptr != nullptr)
    39ad:	48 8b bc 24 b0 01 00 	mov    rdi,QWORD PTR [rsp+0x1b0]
    39b4:	00 
    39b5:	48 85 ff             	test   rdi,rdi
    39b8:	74 06                	je     39c0 <main+0x560>
	delete __ptr;
    39ba:	48 8b 07             	mov    rax,QWORD PTR [rdi]
    39bd:	ff 50 08             	call   QWORD PTR [rax+0x8]
		std::thread t1(rxrlw);
		std::thread t2(arr);
		t1.join();
    39c0:	4c 89 ff             	mov    rdi,r15
		t2.join();
		std::chrono::time_point<std::chrono::steady_clock> end {std::chrono::steady_clock::now()};
		
		std::chrono::duration<double> time_seconds {end-start};
		std::format_to(std::ostream_iterator<char>(std::cout),"Mixed _release and _acquire:  After {} iterations, count_mismatches == {}\n", niter, arr.count_mismatch);
    39c3:	4c 8d bc 24 70 01 00 	lea    r15,[rsp+0x170]
    39ca:	00 
		t1.join();
    39cb:	e8 70 f9 ff ff       	call   3340 <std::thread::join()@plt>
		t2.join();
    39d0:	48 8b 7c 24 20       	mov    rdi,QWORD PTR [rsp+0x20]
    39d5:	e8 66 f9 ff ff       	call   3340 <std::thread::join()@plt>
		std::chrono::time_point<std::chrono::steady_clock> end {std::chrono::steady_clock::now()};
    39da:	e8 a1 f8 ff ff       	call   3280 <std::chrono::_V2::steady_clock::now()@plt>
	return __cd(__cd(__lhs).count() - __cd(__rhs).count());
    39df:	48 8b 34 24          	mov    rsi,QWORD PTR [rsp]
		std::format_to(std::ostream_iterator<char>(std::cout),"Mixed _release and _acquire:  After {} iterations, count_mismatches == {}\n", niter, arr.count_mismatch);
    39e3:	48 89 df             	mov    rdi,rbx
	      static_cast<_CR>(__d.count()) / static_cast<_CR>(_CF::den)));
    39e6:	66 0f ef c0          	pxor   xmm0,xmm0
    39ea:	4c 8d 8c 24 84 01 00 	lea    r9,[rsp+0x184]
    39f1:	00 
    39f2:	4c 8d 44 24 58       	lea    r8,[rsp+0x58]
    39f7:	ba 4a 00 00 00       	mov    edx,0x4a
    39fc:	48 89 ac 24 90 01 00 	mov    QWORD PTR [rsp+0x190],rbp
    3a03:	00 
	return __cd(__cd(__lhs).count() - __cd(__rhs).count());
    3a04:	48 29 f0             	sub    rax,rsi
    3a07:	4c 89 ee             	mov    rsi,r13
    3a0a:	48 8d 0d 67 19 01 00 	lea    rcx,[rip+0x11967]        # 15378 <CSWTCH.1110+0x298>
    3a11:	48 c7 84 24 98 01 00 	mov    QWORD PTR [rsp+0x198],0x0
    3a18:	00 00 00 00 00 
	      static_cast<_CR>(__d.count()) / static_cast<_CR>(_CF::den)));
    3a1d:	f2 48 0f 2a c0       	cvtsi2sd xmm0,rax
    3a22:	f2 0f 5e 05 c6 4e 01 	divsd  xmm0,QWORD PTR [rip+0x14ec6]        # 188f0 <std::__unicode::__v15_1_0::__width_edges+0x470>
    3a29:	00 
	  : __r(duration_cast<duration>(__d).count()) { }
    3a2a:	f2 0f 11 84 24 b0 00 	movsd  QWORD PTR [rsp+0xb0],xmm0
    3a31:	00 00 
    3a33:	e8 68 32 00 00       	call   6ca0 <std::ostream_iterator<char, char, std::char_traits<char> > std::format_to<std::ostream_iterator<char, char, std::char_traits<char> >, unsigned int const&, unsigned int&>(std::ostream_iterator<char, char, std::char_traits<char> >, std::basic_format_string<char, std::type_identity<unsigned int const&>::type, std::type_identity<unsigned int&>::type>, unsigned int const&, unsigned int&)>
		std::format_to(std::ostream_iterator<char>(std::cout),"\tElapsed time == {} seconds\n", time_seconds);
    3a38:	ba 1c 00 00 00       	mov    edx,0x1c
    3a3d:	4c 89 f1             	mov    rcx,r14
    3a40:	4c 89 ee             	mov    rsi,r13
    3a43:	4c 8d 84 24 b0 00 00 	lea    r8,[rsp+0xb0]
    3a4a:	00 
    3a4b:	48 89 df             	mov    rdi,rbx
    3a4e:	48 89 ac 24 90 01 00 	mov    QWORD PTR [rsp+0x190],rbp
    3a55:	00 
    3a56:	48 c7 84 24 98 01 00 	mov    QWORD PTR [rsp+0x198],0x0
    3a5d:	00 00 00 00 00 
    3a62:	e8 d9 31 00 00       	call   6c40 <std::ostream_iterator<char, char, std::char_traits<char> > std::format_to<std::ostream_iterator<char, char, std::char_traits<char> >, std::chrono::duration<double, std::ratio<1l, 1l> >&>(std::ostream_iterator<char, char, std::char_traits<char> >, std::basic_format_string<char, std::type_identity<std::chrono::duration<double, std::ratio<1l, 1l> >&>::type>, std::chrono::duration<double, std::ratio<1l, 1l> >&)>
      if (joinable())
    3a67:	48 83 bc 24 a8 00 00 	cmp    QWORD PTR [rsp+0xa8],0x0
    3a6e:	00 00 
    3a70:	0f 85 63 f9 ff ff    	jne    33d9 <main.cold>
    3a76:	48 83 bc 24 a0 00 00 	cmp    QWORD PTR [rsp+0xa0],0x0
    3a7d:	00 00 
    3a7f:	0f 85 54 f9 ff ff    	jne    33d9 <main.cold>
	}

	{
		// x and y start out ==.  t1 sets x before y, therefore expect x >= y always
		// Uses memory_order_release and memory_order_acquire for one of the writes and one of the reads, respectively
		constexpr std::uint32_t niter {std::numeric_limits<std::uint32_t>::max()};
    3a85:	c7 44 24 64 ff ff ff 	mov    DWORD PTR [rsp+0x64],0xffffffff
    3a8c:	ff 
	  : _M_func(std::forward<_Args>(__args)...)
    3a8d:	48 8d 1d 44 7f 01 00 	lea    rbx,[rip+0x17f44]        # 1b9d8 <vtable for std::thread::_State_impl<std::thread::_Invoker<std::tuple<relaxed_sequential_write> > >+0x10>
	_M_start_thread(_State_ptr(new _State_impl<_Wrapper>(
    3a94:	4c 8d ac 24 b8 00 00 	lea    r13,[rsp+0xb8]
    3a9b:	00 
		std::atomic<std::uint32_t> x {0};
    3a9c:	c7 44 24 68 00 00 00 	mov    DWORD PTR [rsp+0x68],0x0
    3aa3:	00 
		std::atomic<std::uint32_t> y {0};
    3aa4:	c7 44 24 6c 00 00 00 	mov    DWORD PTR [rsp+0x6c],0x0
    3aab:	00 
		relaxed_sequential_write rxsqw {x, y, niter};
		sequential_relaxed_read sqrr {x, y, niter, 0};
    3aac:	c7 84 24 c4 01 00 00 	mov    DWORD PTR [rsp+0x1c4],0x0
    3ab3:	00 00 00 00 
		
		std::chrono::time_point<std::chrono::steady_clock> start {std::chrono::steady_clock::now()};
    3ab7:	e8 c4 f7 ff ff       	call   3280 <std::chrono::_V2::steady_clock::now()@plt>
    3abc:	bf 20 00 00 00       	mov    edi,0x20
      id() noexcept : _M_thread() { }
    3ac1:	48 c7 84 24 b8 00 00 	mov    QWORD PTR [rsp+0xb8],0x0
    3ac8:	00 00 00 00 00 
    3acd:	48 89 04 24          	mov    QWORD PTR [rsp],rax
	_M_start_thread(_State_ptr(new _State_impl<_Wrapper>(
    3ad1:	e8 0a f7 ff ff       	call   31e0 <operator new(unsigned long)@plt>
    3ad6:	4c 89 ef             	mov    rdi,r13
    3ad9:	4c 89 e2             	mov    rdx,r12
    3adc:	4c 89 fe             	mov    rsi,r15
	  : _M_func(std::forward<_Args>(__args)...)
    3adf:	48 89 18             	mov    QWORD PTR [rax],rbx
    3ae2:	bb ff ff ff ff       	mov    ebx,0xffffffff
    3ae7:	66 0f 6f 64 24 10    	movdqa xmm4,XMMWORD PTR [rsp+0x10]
    3aed:	48 89 58 18          	mov    QWORD PTR [rax+0x18],rbx
    3af1:	0f 11 60 08          	movups XMMWORD PTR [rax+0x8],xmm4
    3af5:	48 89 9c 24 a0 01 00 	mov    QWORD PTR [rsp+0x1a0],rbx
    3afc:	00 
      __uniq_ptr_impl(pointer __p) : _M_t() { _M_ptr() = __p; }
    3afd:	48 89 84 24 70 01 00 	mov    QWORD PTR [rsp+0x170],rax
    3b04:	00 
    3b05:	0f 29 a4 24 90 01 00 	movaps XMMWORD PTR [rsp+0x190],xmm4
    3b0c:	00 
	_M_start_thread(_State_ptr(new _State_impl<_Wrapper>(
    3b0d:	e8 be f6 ff ff       	call   31d0 <std::thread::_M_start_thread(std::unique_ptr<std::thread::_State, std::default_delete<std::thread::_State> >, void (*)())@plt>
	if (__ptr != nullptr)
    3b12:	48 8b bc 24 70 01 00 	mov    rdi,QWORD PTR [rsp+0x170]
    3b19:	00 
    3b1a:	48 85 ff             	test   rdi,rdi
    3b1d:	74 06                	je     3b25 <main+0x6c5>
	delete __ptr;
    3b1f:	48 8b 07             	mov    rax,QWORD PTR [rdi]
    3b22:	ff 50 08             	call   QWORD PTR [rax+0x8]
    3b25:	bf 20 00 00 00       	mov    edi,0x20
	  : _M_func(std::forward<_Args>(__args)...)
    3b2a:	48 8d 1d cf 7e 01 00 	lea    rbx,[rip+0x17ecf]        # 1ba00 <vtable for std::thread::_State_impl<std::thread::_Invoker<std::tuple<sequential_relaxed_read> > >+0x10>
      id() noexcept : _M_thread() { }
    3b31:	48 c7 84 24 c0 00 00 	mov    QWORD PTR [rsp+0xc0],0x0
    3b38:	00 00 00 00 00 
	_M_start_thread(_State_ptr(new _State_impl<_Wrapper>(
    3b3d:	e8 9e f6 ff ff       	call   31e0 <operator new(unsigned long)@plt>
    3b42:	66 0f 6f 6c 24 10    	movdqa xmm5,XMMWORD PTR [rsp+0x10]
    3b48:	4c 89 fe             	mov    rsi,r15
    3b4b:	c7 84 24 c0 01 00 00 	mov    DWORD PTR [rsp+0x1c0],0xffffffff
    3b52:	ff ff ff ff 
    3b56:	48 8b 94 24 c0 01 00 	mov    rdx,QWORD PTR [rsp+0x1c0]
    3b5d:	00 
	  : _M_func(std::forward<_Args>(__args)...)
    3b5e:	48 89 18             	mov    QWORD PTR [rax],rbx
	_M_start_thread(_State_ptr(new _State_impl<_Wrapper>(
    3b61:	48 8d 9c 24 c0 00 00 	lea    rbx,[rsp+0xc0]
    3b68:	00 
    3b69:	48 89 df             	mov    rdi,rbx
    3b6c:	0f 11 68 08          	movups XMMWORD PTR [rax+0x8],xmm5
    3b70:	48 89 50 18          	mov    QWORD PTR [rax+0x18],rdx
    3b74:	4c 89 e2             	mov    rdx,r12
      __uniq_ptr_impl(pointer __p) : _M_t() { _M_ptr() = __p; }
    3b77:	48 89 84 24 70 01 00 	mov    QWORD PTR [rsp+0x170],rax
    3b7e:	00 
    3b7f:	0f 29 ac 24 b0 01 00 	movaps XMMWORD PTR [rsp+0x1b0],xmm5
    3b86:	00 
    3b87:	e8 44 f6 ff ff       	call   31d0 <std::thread::_M_start_thread(std::unique_ptr<std::thread::_State, std::default_delete<std::thread::_State> >, void (*)())@plt>
	if (__ptr != nullptr)
    3b8c:	48 8b bc 24 70 01 00 	mov    rdi,QWORD PTR [rsp+0x170]
    3b93:	00 
    3b94:	48 85 ff             	test   rdi,rdi
    3b97:	74 06                	je     3b9f <main+0x73f>
	delete __ptr;
    3b99:	48 8b 07             	mov    rax,QWORD PTR [rdi]
    3b9c:	ff 50 08             	call   QWORD PTR [rax+0x8]
		std::thread t1(rxsqw);
		std::thread t2(sqrr);
		t1.join();
    3b9f:	4c 89 ef             	mov    rdi,r13
    3ba2:	e8 99 f7 ff ff       	call   3340 <std::thread::join()@plt>
		t2.join();
    3ba7:	48 89 df             	mov    rdi,rbx
    3baa:	e8 91 f7 ff ff       	call   3340 <std::thread::join()@plt>
		std::chrono::time_point<std::chrono::steady_clock> end {std::chrono::steady_clock::now()};
    3baf:	e8 cc f6 ff ff       	call   3280 <std::chrono::_V2::steady_clock::now()@plt>
	return __cd(__cd(__lhs).count() - __cd(__rhs).count());
    3bb4:	48 8b 1c 24          	mov    rbx,QWORD PTR [rsp]
		
		std::chrono::duration<double> time_seconds {end-start};
		std::format_to(std::ostream_iterator<char>(std::cout),"Mixed _release and _acquire:  After {} iterations, count_mismatches == {}\n", niter, sqrr.count_mismatch);
    3bb8:	4c 89 ff             	mov    rdi,r15
	      static_cast<_CR>(__d.count()) / static_cast<_CR>(_CF::den)));
    3bbb:	66 0f ef c0          	pxor   xmm0,xmm0
    3bbf:	4c 8d 8c 24 c4 01 00 	lea    r9,[rsp+0x1c4]
    3bc6:	00 
    3bc7:	4c 8d 44 24 64       	lea    r8,[rsp+0x64]
    3bcc:	ba 4a 00 00 00       	mov    edx,0x4a
    3bd1:	48 89 ac 24 50 01 00 	mov    QWORD PTR [rsp+0x150],rbp
    3bd8:	00 
	return __cd(__cd(__lhs).count() - __cd(__rhs).count());
    3bd9:	48 29 d8             	sub    rax,rbx
    3bdc:	48 8d 9c 24 50 01 00 	lea    rbx,[rsp+0x150]
    3be3:	00 
    3be4:	48 8d 0d 8d 17 01 00 	lea    rcx,[rip+0x1178d]        # 15378 <CSWTCH.1110+0x298>
    3beb:	48 c7 84 24 58 01 00 	mov    QWORD PTR [rsp+0x158],0x0
    3bf2:	00 00 00 00 00 
    3bf7:	48 89 de             	mov    rsi,rbx
	      static_cast<_CR>(__d.count()) / static_cast<_CR>(_CF::den)));
    3bfa:	f2 48 0f 2a c0       	cvtsi2sd xmm0,rax
    3bff:	f2 0f 5e 05 e9 4c 01 	divsd  xmm0,QWORD PTR [rip+0x14ce9]        # 188f0 <std::__unicode::__v15_1_0::__width_edges+0x470>
    3c06:	00 
	  : __r(duration_cast<duration>(__d).count()) { }
    3c07:	f2 0f 11 84 24 c8 00 	movsd  QWORD PTR [rsp+0xc8],xmm0
    3c0e:	00 00 
    3c10:	e8 8b 30 00 00       	call   6ca0 <std::ostream_iterator<char, char, std::char_traits<char> > std::format_to<std::ostream_iterator<char, char, std::char_traits<char> >, unsigned int const&, unsigned int&>(std::ostream_iterator<char, char, std::char_traits<char> >, std::basic_format_string<char, std::type_identity<unsigned int const&>::type, std::type_identity<unsigned int&>::type>, unsigned int const&, unsigned int&)>
		std::format_to(std::ostream_iterator<char>(std::cout),"\tElapsed time == {} seconds\n", time_seconds);
    3c15:	ba 1c 00 00 00       	mov    edx,0x1c
    3c1a:	4c 89 f1             	mov    rcx,r14
    3c1d:	48 89 de             	mov    rsi,rbx
    3c20:	4c 8d 84 24 c8 00 00 	lea    r8,[rsp+0xc8]
    3c27:	00 
    3c28:	4c 89 ff             	mov    rdi,r15
    3c2b:	48 89 ac 24 50 01 00 	mov    QWORD PTR [rsp+0x150],rbp
    3c32:	00 
    3c33:	48 c7 84 24 58 01 00 	mov    QWORD PTR [rsp+0x158],0x0
    3c3a:	00 00 00 00 00 
    3c3f:	e8 fc 2f 00 00       	call   6c40 <std::ostream_iterator<char, char, std::char_traits<char> > std::format_to<std::ostream_iterator<char, char, std::char_traits<char> >, std::chrono::duration<double, std::ratio<1l, 1l> >&>(std::ostream_iterator<char, char, std::char_traits<char> >, std::basic_format_string<char, std::type_identity<std::chrono::duration<double, std::ratio<1l, 1l> >&>::type>, std::chrono::duration<double, std::ratio<1l, 1l> >&)>
      if (joinable())
    3c44:	48 83 bc 24 c0 00 00 	cmp    QWORD PTR [rsp+0xc0],0x0
    3c4b:	00 00 
    3c4d:	0f 85 86 f7 ff ff    	jne    33d9 <main.cold>
    3c53:	48 83 bc 24 b8 00 00 	cmp    QWORD PTR [rsp+0xb8],0x0
    3c5a:	00 00 
    3c5c:	0f 85 77 f7 ff ff    	jne    33d9 <main.cold>
	}



	return 0;
}
    3c62:	48 81 c4 d8 01 00 00 	add    rsp,0x1d8
    3c69:	31 c0                	xor    eax,eax
    3c6b:	5b                   	pop    rbx
    3c6c:	5d                   	pop    rbp
    3c6d:	41 5c                	pop    r12
    3c6f:	41 5d                	pop    r13
    3c71:	41 5e                	pop    r14
    3c73:	41 5f                	pop    r15
    3c75:	c3                   	ret
    3c76:	66 2e 0f 1f 84 00 00 	cs nop WORD PTR [rax+rax*1+0x0]
    3c7d:	00 00 00 

0000000000003c80 <_start>:
    3c80:	31 ed                	xor    ebp,ebp
    3c82:	49 89 d1             	mov    r9,rdx
    3c85:	5e                   	pop    rsi
    3c86:	48 89 e2             	mov    rdx,rsp
    3c89:	48 83 e4 f0          	and    rsp,0xfffffffffffffff0
    3c8d:	50                   	push   rax
    3c8e:	54                   	push   rsp
    3c8f:	45 31 c0             	xor    r8d,r8d
    3c92:	31 c9                	xor    ecx,ecx
    3c94:	48 8d 3d c5 f7 ff ff 	lea    rdi,[rip+0xfffffffffffff7c5]        # 3460 <main>
    3c9b:	ff 15 27 83 01 00    	call   QWORD PTR [rip+0x18327]        # 1bfc8 <__libc_start_main@GLIBC_2.34>
    3ca1:	f4                   	hlt
    3ca2:	66 2e 0f 1f 84 00 00 	cs nop WORD PTR [rax+rax*1+0x0]
    3ca9:	00 00 00 
    3cac:	0f 1f 40 00          	nop    DWORD PTR [rax+0x0]

0000000000003cb0 <deregister_tm_clones>:
    3cb0:	48 8d 3d 01 85 01 00 	lea    rdi,[rip+0x18501]        # 1c1b8 <__TMC_END__>
    3cb7:	48 8d 05 fa 84 01 00 	lea    rax,[rip+0x184fa]        # 1c1b8 <__TMC_END__>
    3cbe:	48 39 f8             	cmp    rax,rdi
    3cc1:	74 15                	je     3cd8 <deregister_tm_clones+0x28>
    3cc3:	48 8b 05 06 83 01 00 	mov    rax,QWORD PTR [rip+0x18306]        # 1bfd0 <_ITM_deregisterTMCloneTable@Base>
    3cca:	48 85 c0             	test   rax,rax
    3ccd:	74 09                	je     3cd8 <deregister_tm_clones+0x28>
    3ccf:	ff e0                	jmp    rax
    3cd1:	0f 1f 80 00 00 00 00 	nop    DWORD PTR [rax+0x0]
    3cd8:	c3                   	ret
    3cd9:	0f 1f 80 00 00 00 00 	nop    DWORD PTR [rax+0x0]

0000000000003ce0 <register_tm_clones>:
    3ce0:	48 8d 3d d1 84 01 00 	lea    rdi,[rip+0x184d1]        # 1c1b8 <__TMC_END__>
    3ce7:	48 8d 35 ca 84 01 00 	lea    rsi,[rip+0x184ca]        # 1c1b8 <__TMC_END__>
    3cee:	48 29 fe             	sub    rsi,rdi
    3cf1:	48 89 f0             	mov    rax,rsi
    3cf4:	48 c1 ee 3f          	shr    rsi,0x3f
    3cf8:	48 c1 f8 03          	sar    rax,0x3
    3cfc:	48 01 c6             	add    rsi,rax
    3cff:	48 d1 fe             	sar    rsi,1
    3d02:	74 14                	je     3d18 <register_tm_clones+0x38>
    3d04:	48 8b 05 d5 82 01 00 	mov    rax,QWORD PTR [rip+0x182d5]        # 1bfe0 <_ITM_registerTMCloneTable@Base>
    3d0b:	48 85 c0             	test   rax,rax
    3d0e:	74 08                	je     3d18 <register_tm_clones+0x38>
    3d10:	ff e0                	jmp    rax
    3d12:	66 0f 1f 44 00 00    	nop    WORD PTR [rax+rax*1+0x0]
    3d18:	c3                   	ret
    3d19:	0f 1f 80 00 00 00 00 	nop    DWORD PTR [rax+0x0]

0000000000003d20 <__do_global_dtors_aux>:
    3d20:	f3 0f 1e fa          	endbr64
    3d24:	80 3d 2d 86 01 00 00 	cmp    BYTE PTR [rip+0x1862d],0x0        # 1c358 <completed.0>
    3d2b:	75 2b                	jne    3d58 <__do_global_dtors_aux+0x38>
    3d2d:	55                   	push   rbp
    3d2e:	48 83 3d 8a 82 01 00 	cmp    QWORD PTR [rip+0x1828a],0x0        # 1bfc0 <__cxa_finalize@GLIBC_2.2.5>
    3d35:	00 
    3d36:	48 89 e5             	mov    rbp,rsp
    3d39:	74 0c                	je     3d47 <__do_global_dtors_aux+0x27>
    3d3b:	48 8b 3d 6e 84 01 00 	mov    rdi,QWORD PTR [rip+0x1846e]        # 1c1b0 <__dso_handle>
    3d42:	e8 39 f6 ff ff       	call   3380 <__cxa_finalize@plt>
    3d47:	e8 64 ff ff ff       	call   3cb0 <deregister_tm_clones>
    3d4c:	c6 05 05 86 01 00 01 	mov    BYTE PTR [rip+0x18605],0x1        # 1c358 <completed.0>
    3d53:	5d                   	pop    rbp
    3d54:	c3                   	ret
    3d55:	0f 1f 00             	nop    DWORD PTR [rax]
    3d58:	c3                   	ret
    3d59:	0f 1f 80 00 00 00 00 	nop    DWORD PTR [rax+0x0]

0000000000003d60 <frame_dummy>:
    3d60:	f3 0f 1e fa          	endbr64
    3d64:	e9 77 ff ff ff       	jmp    3ce0 <register_tm_clones>
    3d69:	0f 1f 80 00 00 00 00 	nop    DWORD PTR [rax+0x0]

0000000000003d70 <std::basic_string_view<char, std::char_traits<char> >::find(char, unsigned long) const [clone .isra.0]>:
      return npos;
    }

  template<typename _CharT, typename _Traits>
    constexpr typename basic_string_view<_CharT, _Traits>::size_type
    basic_string_view<_CharT, _Traits>::
    3d70:	55                   	push   rbp
    find(_CharT __c, size_type __pos) const noexcept
    {
      size_type __ret = npos;
    3d71:	48 c7 c5 ff ff ff ff 	mov    rbp,0xffffffffffffffff
    basic_string_view<_CharT, _Traits>::
    3d78:	53                   	push   rbx
    3d79:	48 83 ec 08          	sub    rsp,0x8
      if (__pos < this->_M_len)
    3d7d:	48 39 f9             	cmp    rcx,rdi
    3d80:	73 25                	jae    3da7 <std::basic_string_view<char, std::char_traits<char> >::find(char, unsigned long) const [clone .isra.0]+0x37>
    3d82:	48 89 f3             	mov    rbx,rsi
    3d85:	89 d6                	mov    esi,edx
	{
	  const size_type __n = this->_M_len - __pos;
    3d87:	48 89 fa             	mov    rdx,rdi
    3d8a:	48 29 ca             	sub    rdx,rcx
	  return 0;
#if __cplusplus >= 201703L
	if (std::__is_constant_evaluated())
	  return __gnu_cxx::char_traits<char_type>::find(__s, __n, __a);
#endif
	return static_cast<const char_type*>(__builtin_memchr(__s, __a, __n));
    3d8d:	40 0f be f6          	movsx  esi,sil
	  const _CharT* __p = traits_type::find(this->_M_str + __pos, __n, __c);
    3d91:	48 8d 3c 0b          	lea    rdi,[rbx+rcx*1]
    3d95:	e8 86 f4 ff ff       	call   3220 <memchr@plt>
	  if (__p)
	    __ret = __p - this->_M_str;
    3d9a:	48 89 c2             	mov    rdx,rax
    3d9d:	48 29 da             	sub    rdx,rbx
    3da0:	48 85 c0             	test   rax,rax
    3da3:	48 0f 45 ea          	cmovne rbp,rdx
	}
      return __ret;
    }
    3da7:	48 83 c4 08          	add    rsp,0x8
    3dab:	48 89 e8             	mov    rax,rbp
    3dae:	5b                   	pop    rbx
    3daf:	5d                   	pop    rbp
    3db0:	c3                   	ret
    3db1:	90                   	nop
    3db2:	66 66 2e 0f 1f 84 00 	data16 cs nop WORD PTR [rax+rax*1+0x0]
    3db9:	00 00 00 00 
    3dbd:	0f 1f 00             	nop    DWORD PTR [rax]

0000000000003dc0 <unsigned long std::__format::_Spec<char>::_M_get_precision<std::basic_format_context<std::__format::_Sink_iter<char>, char> >(std::basic_format_context<std::__format::_Sink_iter<char>, char>&) const [clone .part.0] [clone .isra.0]>:
	  return __width;
	}

      template<typename _Context>
	size_t
	_M_get_precision(_Context& __ctx) const
    3dc0:	48 83 ec 48          	sub    rsp,0x48
      [[nodiscard,__gnu__::__always_inline__]]
      basic_format_arg<_Context>
      get(size_t __i) const noexcept
      {
	basic_format_arg<_Context> __arg;
	if (__i < _M_packed_size)
    3dc4:	0f b6 06             	movzx  eax,BYTE PTR [rsi]
	    __prec = __format::__int_from_arg(__ctx.arg(_M_prec));
    3dc7:	0f b7 ff             	movzx  edi,di
	if (__i < _M_packed_size)
    3dca:	89 c2                	mov    edx,eax
    3dcc:	83 e0 0f             	and    eax,0xf
    3dcf:	83 e2 0f             	and    edx,0xf
    3dd2:	48 39 c7             	cmp    rdi,rax
    3dd5:	73 49                	jae    3e20 <unsigned long std::__format::_Spec<char>::_M_get_precision<std::basic_format_context<std::__format::_Sink_iter<char>, char> >(std::basic_format_context<std::__format::_Sink_iter<char>, char>&) const [clone .part.0] [clone .isra.0]+0x60>
	uint64_t __t = _M_unpacked_size >> (__i * _S_packed_type_bits);
    3dd7:	48 8b 06             	mov    rax,QWORD PTR [rsi]
    3dda:	48 8d 0c bf          	lea    rcx,[rdi+rdi*4]
	  {
	    __arg._M_type = _M_type(__i);
	    __arg._M_val = _M_values[__i];
    3dde:	48 c1 e7 04          	shl    rdi,0x4
    3de2:	48 03 7e 08          	add    rdi,QWORD PTR [rsi+0x8]
    3de6:	66 0f 6f 07          	movdqa xmm0,XMMWORD PTR [rdi]
	uint64_t __t = _M_unpacked_size >> (__i * _S_packed_type_bits);
    3dea:	48 c1 e8 04          	shr    rax,0x4
    3dee:	48 d3 e8             	shr    rax,cl
	    __arg._M_val = _M_values[__i];
    3df1:	0f 29 04 24          	movaps XMMWORD PTR [rsp],xmm0
	return static_cast<__format::_Arg_t>(__t & _S_packed_type_mask);
    3df5:	83 e0 1f             	and    eax,0x1f
	  switch (__type)
    3df8:	48 8d 15 21 12 01 00 	lea    rdx,[rip+0x11221]        # 15020 <_IO_stdin_used+0x20>
    3dff:	88 44 24 10          	mov    BYTE PTR [rsp+0x10],al
    3e03:	0f b6 c0             	movzx  eax,al
    3e06:	66 0f 6f 04 24       	movdqa xmm0,XMMWORD PTR [rsp]
    3e0b:	48 63 04 82          	movsxd rax,DWORD PTR [rdx+rax*4]
    3e0f:	0f 29 44 24 20       	movaps XMMWORD PTR [rsp+0x20],xmm0
    3e14:	48 01 d0             	add    rax,rdx
    3e17:	ff e0                	jmp    rax
    3e19:	0f 1f 80 00 00 00 00 	nop    DWORD PTR [rax+0x0]
	  }
	else if (_M_packed_size == 0 && __i < _M_unpacked_size)
    3e20:	84 d2                	test   dl,dl
    3e22:	0f 85 98 f5 ff ff    	jne    33c0 <unsigned long std::__format::_Spec<char>::_M_get_precision<std::basic_format_context<std::__format::_Sink_iter<char>, char> >(std::basic_format_context<std::__format::_Sink_iter<char>, char>&) const [clone .part.0] [clone .isra.0] [clone .cold]>
    3e28:	48 8b 06             	mov    rax,QWORD PTR [rsi]
    3e2b:	48 c1 e8 04          	shr    rax,0x4
    3e2f:	48 39 c7             	cmp    rdi,rax
    3e32:	0f 83 88 f5 ff ff    	jae    33c0 <unsigned long std::__format::_Spec<char>::_M_get_precision<std::basic_format_context<std::__format::_Sink_iter<char>, char> >(std::basic_format_context<std::__format::_Sink_iter<char>, char>&) const [clone .part.0] [clone .isra.0] [clone .cold]>
	  __arg = _M_args[__i];
    3e38:	48 c1 e7 05          	shl    rdi,0x5
    3e3c:	48 03 7e 08          	add    rdi,QWORD PTR [rsi+0x8]
    3e40:	f3 0f 6f 07          	movdqu xmm0,XMMWORD PTR [rdi]
    3e44:	0f b6 47 10          	movzx  eax,BYTE PTR [rdi+0x10]
    3e48:	0f 29 04 24          	movaps XMMWORD PTR [rsp],xmm0
    3e4c:	eb aa                	jmp    3df8 <unsigned long std::__format::_Spec<char>::_M_get_precision<std::basic_format_context<std::__format::_Sink_iter<char>, char> >(std::basic_format_context<std::__format::_Sink_iter<char>, char>&) const [clone .part.0] [clone .isra.0]+0x38>
    3e4e:	66 90                	xchg   ax,ax
	      if (__arg >= 0)
    3e50:	48 8b 44 24 20       	mov    rax,QWORD PTR [rsp+0x20]
    3e55:	48 85 c0             	test   rax,rax
    3e58:	0f 88 67 f5 ff ff    	js     33c5 <unsigned long std::__format::_Spec<char>::_M_get_precision<std::basic_format_context<std::__format::_Sink_iter<char>, char> >(std::basic_format_context<std::__format::_Sink_iter<char>, char>&) const [clone .part.0] [clone .isra.0] [clone .cold]+0x5>
	}
    3e5e:	48 83 c4 48          	add    rsp,0x48
    3e62:	c3                   	ret
    3e63:	0f 1f 44 00 00       	nop    DWORD PTR [rax+rax*1+0x0]
	      return __arg;
    3e68:	8b 44 24 20          	mov    eax,DWORD PTR [rsp+0x20]
	}
    3e6c:	48 83 c4 48          	add    rsp,0x48
    3e70:	c3                   	ret
    3e71:	0f 1f 80 00 00 00 00 	nop    DWORD PTR [rax+0x0]
	      if (__arg >= 0)
    3e78:	48 63 44 24 20       	movsxd rax,DWORD PTR [rsp+0x20]
    3e7d:	85 c0                	test   eax,eax
    3e7f:	0f 88 40 f5 ff ff    	js     33c5 <unsigned long std::__format::_Spec<char>::_M_get_precision<std::basic_format_context<std::__format::_Sink_iter<char>, char> >(std::basic_format_context<std::__format::_Sink_iter<char>, char>&) const [clone .part.0] [clone .isra.0] [clone .cold]+0x5>
	}
    3e85:	48 83 c4 48          	add    rsp,0x48
    3e89:	c3                   	ret
    3e8a:	66 0f 1f 44 00 00    	nop    WORD PTR [rax+rax*1+0x0]
	      return __arg;
    3e90:	48 8b 44 24 20       	mov    rax,QWORD PTR [rsp+0x20]
	}
    3e95:	48 83 c4 48          	add    rsp,0x48
    3e99:	c3                   	ret
    3e9a:	66 0f 1f 44 00 00    	nop    WORD PTR [rax+rax*1+0x0]

0000000000003ea0 <unsigned long std::__format::_Spec<char>::_M_get_width<std::basic_format_context<std::__format::_Sink_iter<char>, char> >(std::basic_format_context<std::__format::_Sink_iter<char>, char>&) const [clone .part.0] [clone .isra.0]>:
	_M_get_width(_Context& __ctx) const
    3ea0:	48 83 ec 48          	sub    rsp,0x48
	if (__i < _M_packed_size)
    3ea4:	0f b6 06             	movzx  eax,BYTE PTR [rsi]
	    __width = __format::__int_from_arg(__ctx.arg(_M_width));
    3ea7:	0f b7 ff             	movzx  edi,di
	if (__i < _M_packed_size)
    3eaa:	89 c2                	mov    edx,eax
    3eac:	83 e0 0f             	and    eax,0xf
    3eaf:	83 e2 0f             	and    edx,0xf
    3eb2:	48 39 c7             	cmp    rdi,rax
    3eb5:	73 49                	jae    3f00 <unsigned long std::__format::_Spec<char>::_M_get_width<std::basic_format_context<std::__format::_Sink_iter<char>, char> >(std::basic_format_context<std::__format::_Sink_iter<char>, char>&) const [clone .part.0] [clone .isra.0]+0x60>
	uint64_t __t = _M_unpacked_size >> (__i * _S_packed_type_bits);
    3eb7:	48 8b 06             	mov    rax,QWORD PTR [rsi]
    3eba:	48 8d 0c bf          	lea    rcx,[rdi+rdi*4]
	    __arg._M_val = _M_values[__i];
    3ebe:	48 c1 e7 04          	shl    rdi,0x4
    3ec2:	48 03 7e 08          	add    rdi,QWORD PTR [rsi+0x8]
    3ec6:	66 0f 6f 07          	movdqa xmm0,XMMWORD PTR [rdi]
	uint64_t __t = _M_unpacked_size >> (__i * _S_packed_type_bits);
    3eca:	48 c1 e8 04          	shr    rax,0x4
    3ece:	48 d3 e8             	shr    rax,cl
	    __arg._M_val = _M_values[__i];
    3ed1:	0f 29 04 24          	movaps XMMWORD PTR [rsp],xmm0
	return static_cast<__format::_Arg_t>(__t & _S_packed_type_mask);
    3ed5:	83 e0 1f             	and    eax,0x1f
	  switch (__type)
    3ed8:	48 8d 15 95 11 01 00 	lea    rdx,[rip+0x11195]        # 15074 <_IO_stdin_used+0x74>
    3edf:	88 44 24 10          	mov    BYTE PTR [rsp+0x10],al
    3ee3:	0f b6 c0             	movzx  eax,al
    3ee6:	66 0f 6f 04 24       	movdqa xmm0,XMMWORD PTR [rsp]
    3eeb:	48 63 04 82          	movsxd rax,DWORD PTR [rdx+rax*4]
    3eef:	0f 29 44 24 20       	movaps XMMWORD PTR [rsp+0x20],xmm0
    3ef4:	48 01 d0             	add    rax,rdx
    3ef7:	ff e0                	jmp    rax
    3ef9:	0f 1f 80 00 00 00 00 	nop    DWORD PTR [rax+0x0]
	else if (_M_packed_size == 0 && __i < _M_unpacked_size)
    3f00:	84 d2                	test   dl,dl
    3f02:	0f 85 c2 f4 ff ff    	jne    33ca <unsigned long std::__format::_Spec<char>::_M_get_width<std::basic_format_context<std::__format::_Sink_iter<char>, char> >(std::basic_format_context<std::__format::_Sink_iter<char>, char>&) const [clone .part.0] [clone .isra.0] [clone .cold]>
    3f08:	48 8b 06             	mov    rax,QWORD PTR [rsi]
    3f0b:	48 c1 e8 04          	shr    rax,0x4
    3f0f:	48 39 c7             	cmp    rdi,rax
    3f12:	0f 83 b2 f4 ff ff    	jae    33ca <unsigned long std::__format::_Spec<char>::_M_get_width<std::basic_format_context<std::__format::_Sink_iter<char>, char> >(std::basic_format_context<std::__format::_Sink_iter<char>, char>&) const [clone .part.0] [clone .isra.0] [clone .cold]>
	  __arg = _M_args[__i];
    3f18:	48 c1 e7 05          	shl    rdi,0x5
    3f1c:	48 03 7e 08          	add    rdi,QWORD PTR [rsi+0x8]
    3f20:	f3 0f 6f 07          	movdqu xmm0,XMMWORD PTR [rdi]
    3f24:	0f b6 47 10          	movzx  eax,BYTE PTR [rdi+0x10]
    3f28:	0f 29 04 24          	movaps XMMWORD PTR [rsp],xmm0
    3f2c:	eb aa                	jmp    3ed8 <unsigned long std::__format::_Spec<char>::_M_get_width<std::basic_format_context<std::__format::_Sink_iter<char>, char> >(std::basic_format_context<std::__format::_Sink_iter<char>, char>&) const [clone .part.0] [clone .isra.0]+0x38>
    3f2e:	66 90                	xchg   ax,ax
	      if (__arg >= 0)
    3f30:	48 8b 44 24 20       	mov    rax,QWORD PTR [rsp+0x20]
    3f35:	48 85 c0             	test   rax,rax
    3f38:	0f 88 91 f4 ff ff    	js     33cf <unsigned long std::__format::_Spec<char>::_M_get_width<std::basic_format_context<std::__format::_Sink_iter<char>, char> >(std::basic_format_context<std::__format::_Sink_iter<char>, char>&) const [clone .part.0] [clone .isra.0] [clone .cold]+0x5>
	}
    3f3e:	48 83 c4 48          	add    rsp,0x48
    3f42:	c3                   	ret
    3f43:	0f 1f 44 00 00       	nop    DWORD PTR [rax+rax*1+0x0]
	      return __arg;
    3f48:	8b 44 24 20          	mov    eax,DWORD PTR [rsp+0x20]
	}
    3f4c:	48 83 c4 48          	add    rsp,0x48
    3f50:	c3                   	ret
    3f51:	0f 1f 80 00 00 00 00 	nop    DWORD PTR [rax+0x0]
	      if (__arg >= 0)
    3f58:	48 63 44 24 20       	movsxd rax,DWORD PTR [rsp+0x20]
    3f5d:	85 c0                	test   eax,eax
    3f5f:	0f 88 6a f4 ff ff    	js     33cf <unsigned long std::__format::_Spec<char>::_M_get_width<std::basic_format_context<std::__format::_Sink_iter<char>, char> >(std::basic_format_context<std::__format::_Sink_iter<char>, char>&) const [clone .part.0] [clone .isra.0] [clone .cold]+0x5>
	}
    3f65:	48 83 c4 48          	add    rsp,0x48
    3f69:	c3                   	ret
    3f6a:	66 0f 1f 44 00 00    	nop    WORD PTR [rax+rax*1+0x0]
	      return __arg;
    3f70:	48 8b 44 24 20       	mov    rax,QWORD PTR [rsp+0x20]
	}
    3f75:	48 83 c4 48          	add    rsp,0x48
    3f79:	c3                   	ret
    3f7a:	66 0f 1f 44 00 00    	nop    WORD PTR [rax+rax*1+0x0]

0000000000003f80 <std::__format::_Sink_iter<char> std::__format::__formatter_chrono<char>::_M_locale_fmt<std::__format::_Sink_iter<char> >(std::__format::_Sink_iter<char>, std::locale const&, tm const&, char, char) const [clone .isra.0]>:

      // Use the formatting locale's std::time_put facet to produce
      // a locale-specific representation.
      template<typename _Iter>
	_Iter
	_M_locale_fmt(_Iter __out, const locale& __loc, const struct tm& __tm,
    3f80:	41 57                	push   r15
       *
       *  That's a lie.  We initialize the base class with NULL, because the
       *  string class does its own memory management.
      */
      basic_ostringstream()
      : __ostream_type(), _M_stringbuf(ios_base::out)
    3f82:	4c 8d 3d f7 7b 01 00 	lea    r15,[rip+0x17bf7]        # 1bb80 <vtable for std::__cxx11::basic_ostringstream<char, std::char_traits<char>, std::allocator<char> >@GLIBCXX_3.4.21+0x40>
    3f89:	41 56                	push   r14
    3f8b:	41 55                	push   r13
    3f8d:	41 54                	push   r12
    3f8f:	4c 8d 25 42 7c 01 00 	lea    r12,[rip+0x17c42]        # 1bbd8 <vtable for std::__cxx11::basic_stringbuf<char, std::char_traits<char>, std::allocator<char> >@GLIBCXX_3.4.21+0x10>
    3f96:	55                   	push   rbp
    3f97:	66 49 0f 6e dc       	movq   xmm3,r12
    3f9c:	48 89 f5             	mov    rbp,rsi
    3f9f:	53                   	push   rbx
    3fa0:	48 89 fb             	mov    rbx,rdi
    3fa3:	48 81 ec c8 01 00 00 	sub    rsp,0x1c8
    3faa:	f3 0f 7e 15 ee 7d 01 	movq   xmm2,QWORD PTR [rip+0x17dee]        # 1bda0 <vtable for std::__cxx11::basic_ostringstream<char, std::char_traits<char>, std::allocator<char> >@GLIBCXX_3.4.21+0x260>
    3fb1:	00 
    3fb2:	f3 0f 7e 0d e6 7d 01 	movq   xmm1,QWORD PTR [rip+0x17de6]        # 1bda0 <vtable for std::__cxx11::basic_ostringstream<char, std::char_traits<char>, std::allocator<char> >@GLIBCXX_3.4.21+0x260>
    3fb9:	00 
       *  The default constructor does nothing and is not normally
       *  accessible to users.
      */
      basic_ios()
      : ios_base(), _M_tie(0), _M_fill(char_type()), _M_fill_init(false), 
	_M_streambuf(0), _M_ctype(0), _M_num_put(0), _M_num_get(0)
    3fba:	4c 8d ac 24 b0 00 00 	lea    r13,[rsp+0xb0]
    3fc1:	00 
    3fc2:	48 89 54 24 38       	mov    QWORD PTR [rsp+0x38],rdx
    3fc7:	4c 8d 74 24 40       	lea    r14,[rsp+0x40]
    3fcc:	66 0f 6c d3          	punpcklqdq xmm2,xmm3
    3fd0:	0f 16 0d d1 7d 01 00 	movhps xmm1,QWORD PTR [rip+0x17dd1]        # 1bda8 <vtable for std::basic_streambuf<char, std::char_traits<char> >@GLIBCXX_3.4+0x2f8>
    3fd7:	4c 89 ef             	mov    rdi,r13
    3fda:	89 4c 24 18          	mov    DWORD PTR [rsp+0x18],ecx
    3fde:	44 89 44 24 34       	mov    DWORD PTR [rsp+0x34],r8d
    3fe3:	0f 29 14 24          	movaps XMMWORD PTR [rsp],xmm2
    3fe7:	0f 29 4c 24 20       	movaps XMMWORD PTR [rsp+0x20],xmm1
    3fec:	e8 bf f0 ff ff       	call   30b0 <std::ios_base::ios_base()@plt>
    3ff1:	48 8d 05 a8 7a 01 00 	lea    rax,[rip+0x17aa8]        # 1baa0 <vtable for std::basic_ios<char, std::char_traits<char> >@GLIBCXX_3.4+0x10>
      : ios_base(), _M_tie(0), _M_fill(char_type()), _M_fill_init(false), 
    3ff8:	31 c9                	xor    ecx,ecx
       __ostream_type&
      seekp(off_type, ios_base::seekdir);

    protected:
      basic_ostream()
      { this->init(0); }
    3ffa:	31 f6                	xor    esi,esi
	_M_streambuf(0), _M_ctype(0), _M_num_put(0), _M_num_get(0)
    3ffc:	48 89 84 24 b0 00 00 	mov    QWORD PTR [rsp+0xb0],rax
    4003:	00 
    4004:	66 0f ef c0          	pxor   xmm0,xmm0
    4008:	48 8b 05 89 7b 01 00 	mov    rax,QWORD PTR [rip+0x17b89]        # 1bb98 <VTT for std::__cxx11::basic_ostringstream<char, std::char_traits<char>, std::allocator<char> >@GLIBCXX_3.4.21+0x8>
      : ios_base(), _M_tie(0), _M_fill(char_type()), _M_fill_init(false), 
    400f:	66 89 8c 24 90 01 00 	mov    WORD PTR [rsp+0x190],cx
    4016:	00 
	_M_streambuf(0), _M_ctype(0), _M_num_put(0), _M_num_get(0)
    4017:	0f 11 84 24 98 01 00 	movups XMMWORD PTR [rsp+0x198],xmm0
    401e:	00 
    401f:	0f 11 84 24 a8 01 00 	movups XMMWORD PTR [rsp+0x1a8],xmm0
    4026:	00 
    4027:	48 8b 78 e8          	mov    rdi,QWORD PTR [rax-0x18]
    402b:	48 89 44 24 40       	mov    QWORD PTR [rsp+0x40],rax
    4030:	48 8b 05 69 7b 01 00 	mov    rax,QWORD PTR [rip+0x17b69]        # 1bba0 <VTT for std::__cxx11::basic_ostringstream<char, std::char_traits<char>, std::allocator<char> >@GLIBCXX_3.4.21+0x10>
      : ios_base(), _M_tie(0), _M_fill(char_type()), _M_fill_init(false), 
    4037:	48 c7 84 24 88 01 00 	mov    QWORD PTR [rsp+0x188],0x0
    403e:	00 00 00 00 00 
    4043:	4c 01 f7             	add    rdi,r14
	: allocator_type(std::move(__a)), _M_p(__dat) { }
    4046:	4c 8d b4 24 a0 00 00 	lea    r14,[rsp+0xa0]
    404d:	00 
    404e:	48 89 07             	mov    QWORD PTR [rdi],rax
    4051:	e8 3a f2 ff ff       	call   3290 <std::basic_ios<char, std::char_traits<char> >::init(std::basic_streambuf<char, std::char_traits<char> >*)@plt>
    4056:	66 0f 6f 4c 24 20    	movdqa xmm1,XMMWORD PTR [rsp+0x20]
       *  - this is not an error
      */
      basic_streambuf()
      : _M_in_beg(0), _M_in_cur(0), _M_in_end(0),
      _M_out_beg(0), _M_out_cur(0), _M_out_end(0),
      _M_buf_locale(locale())
    405c:	48 8d 84 24 80 00 00 	lea    rax,[rsp+0x80]
    4063:	00 
      : _M_in_beg(0), _M_in_cur(0), _M_in_end(0),
    4064:	66 0f ef c0          	pxor   xmm0,xmm0
      _M_buf_locale(locale())
    4068:	48 89 c7             	mov    rdi,rax
    406b:	48 89 44 24 20       	mov    QWORD PTR [rsp+0x20],rax
    4070:	0f 29 4c 24 40       	movaps XMMWORD PTR [rsp+0x40],xmm1
      : _M_in_beg(0), _M_in_cur(0), _M_in_end(0),
    4075:	0f 29 44 24 50       	movaps XMMWORD PTR [rsp+0x50],xmm0
    407a:	0f 29 44 24 60       	movaps XMMWORD PTR [rsp+0x60],xmm0
    407f:	0f 29 44 24 70       	movaps XMMWORD PTR [rsp+0x70],xmm0
    4084:	4c 89 bc 24 b0 00 00 	mov    QWORD PTR [rsp+0xb0],r15
    408b:	00 
      _M_buf_locale(locale())
    408c:	e8 df f2 ff ff       	call   3370 <std::locale::locale()@plt>
      { this->init(&_M_stringbuf); }
    4091:	48 8d 74 24 48       	lea    rsi,[rsp+0x48]
    4096:	4c 89 ef             	mov    rdi,r13
      : __streambuf_type(), _M_mode(__mode), _M_string()
    4099:	4c 89 64 24 48       	mov    QWORD PTR [rsp+0x48],r12
    409e:	c7 84 24 88 00 00 00 	mov    DWORD PTR [rsp+0x88],0x10
    40a5:	10 00 00 00 
    40a9:	4c 89 b4 24 90 00 00 	mov    QWORD PTR [rsp+0x90],r14
    40b0:	00 
      { _M_string_length = __length; }
    40b1:	48 c7 84 24 98 00 00 	mov    QWORD PTR [rsp+0x98],0x0
    40b8:	00 00 00 00 00 
	__c1 = __c2;
    40bd:	c6 84 24 a0 00 00 00 	mov    BYTE PTR [rsp+0xa0],0x0
    40c4:	00 
      { this->init(&_M_stringbuf); }
    40c5:	e8 c6 f1 ff ff       	call   3290 <std::basic_ios<char, std::char_traits<char> >::init(std::basic_streambuf<char, std::char_traits<char> >*)@plt>
      const size_t __i = _Facet::id._M_id();
    40ca:	48 8d 3d 7f 82 01 00 	lea    rdi,[rip+0x1827f]        # 1c350 <std::time_put<char, std::ostreambuf_iterator<char, std::char_traits<char> > >::id@GLIBCXX_3.4>
    40d1:	e8 4a f0 ff ff       	call   3120 <std::locale::id::_M_id() const@plt>
    40d6:	48 89 c2             	mov    rdx,rax
      const locale::facet** __facets = __loc._M_impl->_M_facets;
    40d9:	48 8b 45 00          	mov    rax,QWORD PTR [rbp+0x0]
      _GLIBCXX_STD_FACET(time_put<char>);
    40dd:	48 8b 40 08          	mov    rax,QWORD PTR [rax+0x8]
    40e1:	48 8b 3c d0          	mov    rdi,QWORD PTR [rax+rdx*8]
      if (const _Facet* __f = std::__try_use_facet<_Facet>(__loc))
    40e5:	48 85 ff             	test   rdi,rdi
    40e8:	0f 84 e6 f2 ff ff    	je     33d4 <std::__format::_Sink_iter<char> std::__format::__formatter_chrono<char>::_M_locale_fmt<std::__format::_Sink_iter<char> >(std::__format::_Sink_iter<char>, std::locale const&, tm const&, char, char) const [clone .isra.0] [clone .cold]>
      : _M_sbuf(nullptr), _M_failed(true) { }
#endif

      ///  Construct output iterator from ostream.
      ostreambuf_iterator(ostream_type& __s) _GLIBCXX_USE_NOEXCEPT
      : _M_sbuf(__s.rdbuf()), _M_failed(!_M_sbuf) { }
    40ee:	48 8b 44 24 40       	mov    rax,QWORD PTR [rsp+0x40]
       *  @return  Iterator after writing.
       */
      iter_type
      put(iter_type __s, ios_base& __io, char_type __fill,
	  const tm* __tm, char __format, char __mod = 0) const
      { return this->do_put(__s, __io, __fill, __tm, __format, __mod); }
    40f3:	44 0f be 64 24 34    	movsx  r12d,BYTE PTR [rsp+0x34]
    40f9:	31 d2                	xor    edx,edx
    40fb:	41 b8 20 00 00 00    	mov    r8d,0x20
      { return _M_streambuf; }
    4101:	48 8b 40 e8          	mov    rax,QWORD PTR [rax-0x18]
    4105:	48 8b 8c 04 28 01 00 	mov    rcx,QWORD PTR [rsp+rax*1+0x128]
    410c:	00 
    410d:	48 8b 07             	mov    rax,QWORD PTR [rdi]
    4110:	41 54                	push   r12
    4112:	0f be 6c 24 20       	movsx  ebp,BYTE PTR [rsp+0x20]
    4117:	48 85 c9             	test   rcx,rcx
    411a:	48 89 ce             	mov    rsi,rcx
    411d:	4c 89 e9             	mov    rcx,r13
    4120:	55                   	push   rbp
    4121:	0f 94 c2             	sete   dl
    4124:	4c 8b 4c 24 48       	mov    r9,QWORD PTR [rsp+0x48]
    4129:	ff 50 10             	call   QWORD PTR [rax+0x10]
		      char __fmt, char __mod) const
	{
	  basic_ostringstream<_CharT> __os;
	  const auto& __tp = use_facet<time_put<_CharT>>(__loc);
	  __tp.put(__os, __os, _S_space, &__tm, __fmt, __mod);
	  if (__os)
    412c:	58                   	pop    rax
    412d:	5a                   	pop    rdx
    412e:	f6 84 24 d0 00 00 00 	test   BYTE PTR [rsp+0xd0],0x5
    4135:	05 
    4136:	0f 84 94 00 00 00    	je     41d0 <std::__format::_Sink_iter<char> std::__format::__formatter_chrono<char>::_M_locale_fmt<std::__format::_Sink_iter<char> >(std::__format::_Sink_iter<char>, std::locale const&, tm const&, char, char) const [clone .isra.0]+0x250>
       *
       *  The buffer is deallocated by the stringbuf object, not the
       *  formatting stream.
      */
      ~basic_ostringstream()
      { }
    413c:	66 0f 6f 24 24       	movdqa xmm4,XMMWORD PTR [rsp]
      { return _M_dataplus._M_p; }
    4141:	48 8b bc 24 90 00 00 	mov    rdi,QWORD PTR [rsp+0x90]
    4148:	00 
    4149:	4c 89 bc 24 b0 00 00 	mov    QWORD PTR [rsp+0xb0],r15
    4150:	00 
    4151:	0f 29 64 24 40       	movaps XMMWORD PTR [rsp+0x40],xmm4
	if (_M_data() == _M_local_data())
    4156:	4c 39 f7             	cmp    rdi,r14
    4159:	74 11                	je     416c <std::__format::_Sink_iter<char> std::__format::__formatter_chrono<char>::_M_locale_fmt<std::__format::_Sink_iter<char> >(std::__format::_Sink_iter<char>, std::locale const&, tm const&, char, char) const [clone .isra.0]+0x1ec>
      { _Alloc_traits::deallocate(_M_get_allocator(), _M_data(), __size + 1); }
    415b:	48 8b 84 24 a0 00 00 	mov    rax,QWORD PTR [rsp+0xa0]
    4162:	00 
    4163:	48 8d 70 01          	lea    rsi,[rax+0x1]
	    _GLIBCXX_OPERATOR_DELETE(_GLIBCXX_SIZED_DEALLOC(__p, __n),
				     std::align_val_t(alignof(_Tp)));
	    return;
	  }
#endif
	_GLIBCXX_OPERATOR_DELETE(_GLIBCXX_SIZED_DEALLOC(__p, __n));
    4167:	e8 94 f0 ff ff       	call   3200 <operator delete(void*, unsigned long)@plt>
      { }
    416c:	48 8b 7c 24 20       	mov    rdi,QWORD PTR [rsp+0x20]
    4171:	48 8d 05 48 79 01 00 	lea    rax,[rip+0x17948]        # 1bac0 <vtable for std::basic_streambuf<char, std::char_traits<char> >@GLIBCXX_3.4+0x10>
    4178:	48 89 44 24 48       	mov    QWORD PTR [rsp+0x48],rax
    417d:	e8 3e f1 ff ff       	call   32c0 <std::locale::~locale()@plt>
      ~basic_ostream() { }
    4182:	48 8b 05 0f 7a 01 00 	mov    rax,QWORD PTR [rip+0x17a0f]        # 1bb98 <VTT for std::__cxx11::basic_ostringstream<char, std::char_traits<char>, std::allocator<char> >@GLIBCXX_3.4.21+0x8>
    4189:	48 8b 0d 10 7a 01 00 	mov    rcx,QWORD PTR [rip+0x17a10]        # 1bba0 <VTT for std::__cxx11::basic_ostringstream<char, std::char_traits<char>, std::allocator<char> >@GLIBCXX_3.4.21+0x10>
      ~basic_ios() { }
    4190:	4c 89 ef             	mov    rdi,r13
    4193:	48 89 44 24 40       	mov    QWORD PTR [rsp+0x40],rax
    4198:	48 8b 40 e8          	mov    rax,QWORD PTR [rax-0x18]
    419c:	48 89 4c 04 40       	mov    QWORD PTR [rsp+rax*1+0x40],rcx
    41a1:	48 8d 05 f8 78 01 00 	lea    rax,[rip+0x178f8]        # 1baa0 <vtable for std::basic_ios<char, std::char_traits<char> >@GLIBCXX_3.4+0x10>
    41a8:	48 89 84 24 b0 00 00 	mov    QWORD PTR [rsp+0xb0],rax
    41af:	00 
    41b0:	e8 1b ef ff ff       	call   30d0 <std::ios_base::~ios_base()@plt>
	    __out = __format::__write(std::move(__out), __os.view());
	  return __out;
	}
    41b5:	48 81 c4 c8 01 00 00 	add    rsp,0x1c8
    41bc:	48 89 d8             	mov    rax,rbx
    41bf:	5b                   	pop    rbx
    41c0:	5d                   	pop    rbp
    41c1:	41 5c                	pop    r12
    41c3:	41 5d                	pop    r13
    41c5:	41 5e                	pop    r14
    41c7:	41 5f                	pop    r15
    41c9:	c3                   	ret
    41ca:	66 0f 1f 44 00 00    	nop    WORD PTR [rax+rax*1+0x0]
      */
      char_type*
      pbase() const { return _M_out_beg; }

      char_type*
      pptr() const { return _M_out_cur; }
    41d0:	4c 8b 64 24 70       	mov    r12,QWORD PTR [rsp+0x70]
	if (char_type* __pptr = this->pptr())
    41d5:	4d 85 e4             	test   r12,r12
    41d8:	0f 84 ba 00 00 00    	je     4298 <std::__format::_Sink_iter<char> std::__format::__formatter_chrono<char>::_M_locale_fmt<std::__format::_Sink_iter<char> >(std::__format::_Sink_iter<char>, std::locale const&, tm const&, char, char) const [clone .isra.0]+0x318>
      egptr() const { return _M_in_end; }
    41de:	48 8b 44 24 60       	mov    rax,QWORD PTR [rsp+0x60]
	      return __egptr; // Underlying sequence is [pbase, egptr).
    41e3:	4c 89 e2             	mov    rdx,r12
      pbase() const { return _M_out_beg; }
    41e6:	48 8b 74 24 68       	mov    rsi,QWORD PTR [rsp+0x68]
    41eb:	4c 39 e0             	cmp    rax,r12
    41ee:	4c 0f 43 e0          	cmovae r12,rax
    41f2:	48 85 c0             	test   rax,rax
    41f5:	4c 0f 44 e2          	cmove  r12,rdx
	requires same_as<iter_value_t<_It>, _CharT>
	  && (!convertible_to<_End, size_type>)
	constexpr
	basic_string_view(_It __first, _End __last)
	noexcept(noexcept(__last - __first))
	: _M_len(__last - __first), _M_str(std::to_address(__first))
    41f9:	49 29 f4             	sub    r12,rsi
	  if (__str.size())
    41fc:	4d 85 e4             	test   r12,r12
    41ff:	0f 84 37 ff ff ff    	je     413c <std::__format::_Sink_iter<char> std::__format::__formatter_chrono<char>::_M_locale_fmt<std::__format::_Sink_iter<char> >(std::__format::_Sink_iter<char>, std::locale const&, tm const&, char, char) const [clone .isra.0]+0x1bc>
    _GLIBCXX_NODISCARD _GLIBCXX20_CONSTEXPR
    inline typename __normal_iterator<_Iterator, _Container>::difference_type
    operator-(const __normal_iterator<_Iterator, _Container>& __lhs,
	      const __normal_iterator<_Iterator, _Container>& __rhs)
    _GLIBCXX_NOEXCEPT
    { return __lhs.base() - __rhs.base(); }
    4205:	48 8b 7b 18          	mov    rdi,QWORD PTR [rbx+0x18]
      subspan(size_type __offset, size_type __count = dynamic_extent) const
      noexcept
      {
	__glibcxx_assert(__offset <= size());
	if (__count == dynamic_extent)
	  __count = this->size() - __offset;
    4209:	48 8b 6b 10          	mov    rbp,QWORD PTR [rbx+0x10]
    420d:	48 89 f8             	mov    rax,rdi
    4210:	48 2b 43 08          	sub    rax,QWORD PTR [rbx+0x8]
    4214:	48 29 c5             	sub    rbp,rax
	while (__to.size() <= __s.size())
    4217:	49 39 ec             	cmp    r12,rbp
    421a:	72 68                	jb     4284 <std::__format::_Sink_iter<char> std::__format::__formatter_chrono<char>::_M_locale_fmt<std::__format::_Sink_iter<char> >(std::__format::_Sink_iter<char>, std::locale const&, tm const&, char, char) const [clone .isra.0]+0x304>
    421c:	4c 89 6c 24 18       	mov    QWORD PTR [rsp+0x18],r13
    4221:	4d 89 e5             	mov    r13,r12
    4224:	49 89 f4             	mov    r12,rsi
    4227:	66 0f 1f 84 00 00 00 	nop    WORD PTR [rax+rax*1+0x0]
    422e:	00 00 
    min(const _Tp& __a, const _Tp& __b)
    {
      // concept requirements
      __glibcxx_function_requires(_LessThanComparableConcept<_Tp>)
      //return __b < __a ? __b : __a;
      if (__b < __a)
    4230:	4c 39 ed             	cmp    rbp,r13
    4233:	4c 89 ea             	mov    rdx,r13
    4236:	48 0f 46 d5          	cmovbe rdx,rbp
      }

      static _GLIBCXX20_CONSTEXPR char_type*
      copy(char_type* __s1, const char_type* __s2, size_t __n)
      {
	if (__n == 0)
    423a:	48 85 d2             	test   rdx,rdx
    423d:	74 08                	je     4247 <std::__format::_Sink_iter<char> std::__format::__formatter_chrono<char>::_M_locale_fmt<std::__format::_Sink_iter<char> >(std::__format::_Sink_iter<char>, std::locale const&, tm const&, char, char) const [clone .isra.0]+0x2c7>
	  return __s1;
#if __cplusplus >= 202002L
	if (std::__is_constant_evaluated())
	  return __gnu_cxx::char_traits<char_type>::copy(__s1, __s2, __n);
#endif
	return static_cast<char_type*>(__builtin_memcpy(__s1, __s2, __n));
    423f:	4c 89 e6             	mov    rsi,r12
    4242:	e8 69 ef ff ff       	call   31b0 <memcpy@plt>
	    _M_overflow();
    4247:	48 8b 03             	mov    rax,QWORD PTR [rbx]
      { _M_current += __n; return *this; }
    424a:	48 01 6b 18          	add    QWORD PTR [rbx+0x18],rbp
    424e:	48 89 df             	mov    rdi,rbx

      constexpr void
      remove_prefix(size_type __n) noexcept
      {
	__glibcxx_assert(this->_M_len >= __n);
	this->_M_str += __n;
    4251:	49 01 ec             	add    r12,rbp
	this->_M_len -= __n;
    4254:	49 29 ed             	sub    r13,rbp
    4257:	ff 10                	call   QWORD PTR [rax]
    { return __lhs.base() - __rhs.base(); }
    4259:	48 8b 7b 18          	mov    rdi,QWORD PTR [rbx+0x18]
    425d:	48 8b 6b 10          	mov    rbp,QWORD PTR [rbx+0x10]
    4261:	48 89 f8             	mov    rax,rdi
    4264:	48 2b 43 08          	sub    rax,QWORD PTR [rbx+0x8]
    4268:	48 29 c5             	sub    rbp,rax
	while (__to.size() <= __s.size())
    426b:	49 39 ed             	cmp    r13,rbp
    426e:	73 c0                	jae    4230 <std::__format::_Sink_iter<char> std::__format::__formatter_chrono<char>::_M_locale_fmt<std::__format::_Sink_iter<char> >(std::__format::_Sink_iter<char>, std::locale const&, tm const&, char, char) const [clone .isra.0]+0x2b0>
	if (__s.size())
    4270:	4c 89 e6             	mov    rsi,r12
    4273:	4d 89 ec             	mov    r12,r13
    4276:	4c 8b 6c 24 18       	mov    r13,QWORD PTR [rsp+0x18]
    427b:	4d 85 e4             	test   r12,r12
    427e:	0f 84 b8 fe ff ff    	je     413c <std::__format::_Sink_iter<char> std::__format::__formatter_chrono<char>::_M_locale_fmt<std::__format::_Sink_iter<char> >(std::__format::_Sink_iter<char>, std::locale const&, tm const&, char, char) const [clone .isra.0]+0x1bc>
    4284:	4c 89 e2             	mov    rdx,r12
    4287:	e8 24 ef ff ff       	call   31b0 <memcpy@plt>
      { _M_current += __n; return *this; }
    428c:	4c 01 63 18          	add    QWORD PTR [rbx+0x18],r12
    4290:	e9 a7 fe ff ff       	jmp    413c <std::__format::_Sink_iter<char> std::__format::__formatter_chrono<char>::_M_locale_fmt<std::__format::_Sink_iter<char> >(std::__format::_Sink_iter<char>, std::locale const&, tm const&, char, char) const [clone .isra.0]+0x1bc>
    4295:	0f 1f 00             	nop    DWORD PTR [rax]
      ///  Returns the number of characters in the string, not including any
      ///  null-termination.
      _GLIBCXX_NODISCARD _GLIBCXX20_CONSTEXPR
      size_type
      size() const _GLIBCXX_NOEXCEPT
      { return _M_string_length; }
    4298:	4c 8b a4 24 98 00 00 	mov    r12,QWORD PTR [rsp+0x98]
    429f:	00 
      { return _M_dataplus._M_p; }
    42a0:	48 8b b4 24 90 00 00 	mov    rsi,QWORD PTR [rsp+0x90]
    42a7:	00 
      basic_string_view(const _CharT* __str, size_type __len) noexcept
    42a8:	e9 4f ff ff ff       	jmp    41fc <std::__format::_Sink_iter<char> std::__format::__formatter_chrono<char>::_M_locale_fmt<std::__format::_Sink_iter<char> >(std::__format::_Sink_iter<char>, std::locale const&, tm const&, char, char) const [clone .isra.0]+0x27c>
    42ad:	0f 1f 00             	nop    DWORD PTR [rax]

00000000000042b0 <std::ostream_iterator<char, char, std::char_traits<char> > std::__format::__do_vformat_to<std::ostream_iterator<char, char, std::char_traits<char> >, char, std::basic_format_context<std::__format::_Sink_iter<char>, char> >(std::ostream_iterator<char, char, std::char_traits<char> >, std::basic_string_view<char, std::char_traits<char> >, std::basic_format_args<std::basic_format_context<std::__format::_Sink_iter<char>, char> > const&, std::locale const*) [clone .isra.0]>:
	}
    };

  template<typename _Out, typename _CharT, typename _Context>
    inline _Out
    __do_vformat_to(_Out __out, basic_string_view<_CharT> __fmt,
    42b0:	41 57                	push   r15
    42b2:	41 56                	push   r14
    42b4:	41 55                	push   r13
    42b6:	41 54                	push   r12
    42b8:	49 89 cc             	mov    r12,rcx
      : _M_out(std::move(__out)), _M_max(__max)
    42bb:	48 8d 0d ae 77 01 00 	lea    rcx,[rip+0x177ae]        # 1ba70 <vtable for std::__format::_Iter_sink<char, std::ostream_iterator<char, char, std::char_traits<char> > >+0x10>
    __do_vformat_to(_Out __out, basic_string_view<_CharT> __fmt,
    42c2:	55                   	push   rbp
      : _M_out(std::move(__out)), _M_max(__max)
    42c3:	66 48 0f 6e c1       	movq   xmm0,rcx
    __do_vformat_to(_Out __out, basic_string_view<_CharT> __fmt,
    42c8:	48 89 fd             	mov    rbp,rdi
    42cb:	53                   	push   rbx
    42cc:	4c 89 c3             	mov    rbx,r8
    42cf:	48 81 ec f8 01 00 00 	sub    rsp,0x1f8
      : _M_span(__span), _M_next(__span.begin())
    42d6:	48 8d 84 24 d0 00 00 	lea    rax,[rsp+0xd0]
    42dd:	00 
    42de:	4c 8d ac 24 b0 00 00 	lea    r13,[rsp+0xb0]
    42e5:	00 
    42e6:	48 c7 84 24 c0 00 00 	mov    QWORD PTR [rsp+0xc0],0x100
    42ed:	00 00 01 00 00 
    __do_vformat_to(_Out __out, basic_string_view<_CharT> __fmt,
    42f2:	4c 8b 84 24 30 02 00 	mov    r8,QWORD PTR [rsp+0x230]
    42f9:	00 
      : _M_out(std::move(__out)), _M_max(__max)
    42fa:	66 48 0f 6e c8       	movq   xmm1,rax
      : _M_span(__span), _M_next(__span.begin())
    42ff:	48 89 84 24 c8 00 00 	mov    QWORD PTR [rsp+0xc8],rax
    4306:	00 
      : _M_out(std::move(__out)), _M_max(__max)
    4307:	66 0f 6c c1          	punpcklqdq xmm0,xmm1
      ostream_iterator(ostream_type& __s, const _CharT* __c) _GLIBCXX_NOEXCEPT
      : _M_stream(std::__addressof(__s)), _M_string(__c)  { }

      /// Copy constructor.
      ostream_iterator(const ostream_iterator& __obj) _GLIBCXX_NOEXCEPT
      : _M_stream(__obj._M_stream), _M_string(__obj._M_string)  { }
    430b:	48 89 b4 24 d0 01 00 	mov    QWORD PTR [rsp+0x1d0],rsi
    4312:	00 
    4313:	48 89 94 24 d8 01 00 	mov    QWORD PTR [rsp+0x1d8],rdx
    431a:	00 
    431b:	48 c7 84 24 e0 01 00 	mov    QWORD PTR [rsp+0x1e0],0xffffffffffffffff
    4322:	00 ff ff ff ff 
    4327:	48 c7 84 24 e8 01 00 	mov    QWORD PTR [rsp+0x1e8],0x0
    432e:	00 00 00 00 00 
      _Sink_iter<_CharT> __sink_out;

      if constexpr (is_same_v<_Out, _Sink_iter<_CharT>>)
	__sink_out = __out; // Already a sink iterator, safe to use post-move.
      else
	__sink_out = __sink.out();
    4333:	4c 89 6c 24 18       	mov    QWORD PTR [rsp+0x18],r13
      : _M_out(std::move(__out)), _M_max(__max)
    4338:	0f 29 84 24 b0 00 00 	movaps XMMWORD PTR [rsp+0xb0],xmm0
    433f:	00 

      if constexpr (is_same_v<_CharT, char>)
	// Fast path for "{}" format strings and simple format arg types.
	if (__fmt.size() == 2 && __fmt[0] == '{' && __fmt[1] == '}')
    4340:	49 83 fc 02          	cmp    r12,0x2
    4344:	0f 84 de 00 00 00    	je     4428 <std::ostream_iterator<char, char, std::char_traits<char> > std::__format::__do_vformat_to<std::ostream_iterator<char, char, std::char_traits<char> >, char, std::basic_format_context<std::__format::_Sink_iter<char>, char> >(std::ostream_iterator<char, char, std::char_traits<char> >, std::basic_string_view<char, std::char_traits<char> >, std::basic_format_args<std::basic_format_context<std::__format::_Sink_iter<char>, char> > const&, std::locale const*) [clone .isra.0]+0x178>
    434a:	4c 89 ea             	mov    rdx,r13
    434d:	4c 8d 74 24 40       	lea    r14,[rsp+0x40]
    4352:	4c 8d 7c 24 70       	lea    r15,[rsp+0x70]
    4357:	f3 41 0f 6f 01       	movdqu xmm0,XMMWORD PTR [r9]
      : _M_args(__args), _M_out(std::move(__out))
    435c:	48 89 54 24 50       	mov    QWORD PTR [rsp+0x50],rdx
    4361:	0f 29 44 24 40       	movaps XMMWORD PTR [rsp+0x40],xmm0
		  return std::move(__sink)._M_finish().out;
	      }
	  }

      auto __ctx = __loc == nullptr
		     ? _Context(__args, __sink_out)
    4366:	4d 85 c0             	test   r8,r8
    4369:	0f 84 a1 00 00 00    	je     4410 <std::ostream_iterator<char, char, std::char_traits<char> > std::__format::__do_vformat_to<std::ostream_iterator<char, char, std::char_traits<char> >, char, std::basic_format_context<std::__format::_Sink_iter<char>, char> >(std::ostream_iterator<char, char, std::char_traits<char> >, std::basic_string_view<char, std::char_traits<char> >, std::basic_format_args<std::basic_format_context<std::__format::_Sink_iter<char>, char> > const&, std::locale const*) [clone .isra.0]+0x160>
    : _M_loc(__loc), _M_hasval(true)
    436f:	48 8d 7c 24 58       	lea    rdi,[rsp+0x58]
    4374:	4c 89 c6             	mov    rsi,r8
    4377:	e8 14 ee ff ff       	call   3190 <std::locale::locale(std::locale const&)@plt>
    437c:	c6 44 24 60 01       	mov    BYTE PTR [rsp+0x60],0x1
      : _M_begin(__fmt.begin()), _M_end(__fmt.end()), _M_num_args(__num_args)
    4381:	66 0f 6f 05 f7 44 01 	movdqa xmm0,XMMWORD PTR [rip+0x144f7]        # 18880 <std::__unicode::__v15_1_0::__width_edges+0x400>
    4388:	00 
      : _Scanner<_CharT>(__str), _M_fc(__fc)
    4389:	48 8d 05 c0 76 01 00 	lea    rax,[rip+0x176c0]        # 1ba50 <vtable for std::__format::_Formatting_scanner<std::__format::_Sink_iter<char>, char>+0x10>
      : _M_begin(__fmt.begin()), _M_end(__fmt.end()), _M_num_args(__num_args)
    4390:	48 89 5c 24 78       	mov    QWORD PTR [rsp+0x78],rbx
		     : _Context(__args, __sink_out, *__loc);
      _Formatting_scanner<_Sink_iter<_CharT>, _CharT> __scanner(__ctx, __fmt);
      __scanner._M_scan();
    4395:	4c 89 ff             	mov    rdi,r15
      { return this->_M_str + this->_M_len; }
    4398:	4c 01 e3             	add    rbx,r12
      : _Scanner<_CharT>(__str), _M_fc(__fc)
    439b:	48 89 44 24 70       	mov    QWORD PTR [rsp+0x70],rax
    43a0:	48 89 9c 24 80 00 00 	mov    QWORD PTR [rsp+0x80],rbx
    43a7:	00 
      : _M_begin(__fmt.begin()), _M_end(__fmt.end()), _M_num_args(__num_args)
    43a8:	c7 84 24 88 00 00 00 	mov    DWORD PTR [rsp+0x88],0x0
    43af:	00 00 00 00 
      : _Scanner<_CharT>(__str), _M_fc(__fc)
    43b3:	4c 89 b4 24 a0 00 00 	mov    QWORD PTR [rsp+0xa0],r14
    43ba:	00 
      : _M_begin(__fmt.begin()), _M_end(__fmt.end()), _M_num_args(__num_args)
    43bb:	0f 29 84 24 90 00 00 	movaps XMMWORD PTR [rsp+0x90],xmm0
    43c2:	00 
      __scanner._M_scan();
    43c3:	e8 68 10 00 00       	call   5430 <std::__format::_Scanner<char>::_M_scan()>
	if (this->_M_used().size() != 0)
    43c8:	48 8b 84 24 c8 00 00 	mov    rax,QWORD PTR [rsp+0xc8]
    43cf:	00 
    43d0:	48 39 84 24 b8 00 00 	cmp    QWORD PTR [rsp+0xb8],rax
    43d7:	00 
    43d8:	0f 85 42 01 00 00    	jne    4520 <std::ostream_iterator<char, char, std::char_traits<char> > std::__format::__do_vformat_to<std::ostream_iterator<char, char, std::char_traits<char> >, char, std::basic_format_context<std::__format::_Sink_iter<char>, char> >(std::ostream_iterator<char, char, std::char_traits<char> >, std::basic_string_view<char, std::char_traits<char> >, std::basic_format_args<std::basic_format_context<std::__format::_Sink_iter<char>, char> > const&, std::locale const*) [clone .isra.0]+0x270>
    43de:	66 0f 6f 84 24 d0 01 	movdqa xmm0,XMMWORD PTR [rsp+0x1d0]
    43e5:	00 00 
    ~_Optional_locale() { if (_M_hasval) _M_loc.~locale(); }
    43e7:	80 7c 24 60 00       	cmp    BYTE PTR [rsp+0x60],0x0
    43ec:	0f 11 45 00          	movups XMMWORD PTR [rbp+0x0],xmm0
    43f0:	0f 85 12 01 00 00    	jne    4508 <std::ostream_iterator<char, char, std::char_traits<char> > std::__format::__do_vformat_to<std::ostream_iterator<char, char, std::char_traits<char> >, char, std::basic_format_context<std::__format::_Sink_iter<char>, char> >(std::ostream_iterator<char, char, std::char_traits<char> >, std::basic_string_view<char, std::char_traits<char> >, std::basic_format_args<std::basic_format_context<std::__format::_Sink_iter<char>, char> > const&, std::locale const*) [clone .isra.0]+0x258>

      if constexpr (is_same_v<_Out, _Sink_iter<_CharT>>)
	return __ctx.out();
      else
	return std::move(__sink)._M_finish().out;
    }
    43f6:	48 81 c4 f8 01 00 00 	add    rsp,0x1f8
    43fd:	48 89 e8             	mov    rax,rbp
    4400:	5b                   	pop    rbx
    4401:	5d                   	pop    rbp
    4402:	41 5c                	pop    r12
    4404:	41 5d                	pop    r13
    4406:	41 5e                	pop    r14
    4408:	41 5f                	pop    r15
    440a:	c3                   	ret
    440b:	0f 1f 44 00 00       	nop    DWORD PTR [rax+rax*1+0x0]
    _Optional_locale() : _M_dummy(), _M_hasval(false) { }
    4410:	48 c7 44 24 58 00 00 	mov    QWORD PTR [rsp+0x58],0x0
    4417:	00 00 
    4419:	c6 44 24 60 00       	mov    BYTE PTR [rsp+0x60],0x0
    441e:	e9 5e ff ff ff       	jmp    4381 <std::ostream_iterator<char, char, std::char_traits<char> > std::__format::__do_vformat_to<std::ostream_iterator<char, char, std::char_traits<char> >, char, std::basic_format_context<std::__format::_Sink_iter<char>, char> >(std::ostream_iterator<char, char, std::char_traits<char> >, std::basic_string_view<char, std::char_traits<char> >, std::basic_format_args<std::basic_format_context<std::__format::_Sink_iter<char>, char> > const&, std::locale const*) [clone .isra.0]+0xd1>
    4423:	0f 1f 44 00 00       	nop    DWORD PTR [rax+rax*1+0x0]
	if (__fmt.size() == 2 && __fmt[0] == '{' && __fmt[1] == '}')
    4428:	80 3b 7b             	cmp    BYTE PTR [rbx],0x7b
    442b:	0f 85 19 ff ff ff    	jne    434a <std::ostream_iterator<char, char, std::char_traits<char> > std::__format::__do_vformat_to<std::ostream_iterator<char, char, std::char_traits<char> >, char, std::basic_format_context<std::__format::_Sink_iter<char>, char> >(std::ostream_iterator<char, char, std::char_traits<char> >, std::basic_string_view<char, std::char_traits<char> >, std::basic_format_args<std::basic_format_context<std::__format::_Sink_iter<char>, char> > const&, std::locale const*) [clone .isra.0]+0x9a>
    4431:	80 7b 01 7d          	cmp    BYTE PTR [rbx+0x1],0x7d
    4435:	0f 85 0f ff ff ff    	jne    434a <std::ostream_iterator<char, char, std::char_traits<char> > std::__format::__do_vformat_to<std::ostream_iterator<char, char, std::char_traits<char> >, char, std::basic_format_context<std::__format::_Sink_iter<char>, char> >(std::ostream_iterator<char, char, std::char_traits<char> >, std::basic_string_view<char, std::char_traits<char> >, std::basic_format_args<std::basic_format_context<std::__format::_Sink_iter<char>, char> > const&, std::locale const*) [clone .isra.0]+0x9a>
	    bool __done = false;
    443b:	c6 44 24 17 00       	mov    BYTE PTR [rsp+0x17],0x0
	if (__i < _M_packed_size)
    4440:	41 f6 01 0f          	test   BYTE PTR [r9],0xf
    4444:	0f 84 e6 00 00 00    	je     4530 <std::ostream_iterator<char, char, std::char_traits<char> > std::__format::__do_vformat_to<std::ostream_iterator<char, char, std::char_traits<char> >, char, std::basic_format_context<std::__format::_Sink_iter<char>, char> >(std::ostream_iterator<char, char, std::char_traits<char> >, std::basic_string_view<char, std::char_traits<char> >, std::basic_format_args<std::basic_format_context<std::__format::_Sink_iter<char>, char> > const&, std::locale const*) [clone .isra.0]+0x280>
	uint64_t __t = _M_unpacked_size >> (__i * _S_packed_type_bits);
    444a:	49 8b 11             	mov    rdx,QWORD PTR [r9]
	    __arg._M_val = _M_values[__i];
    444d:	49 8b 49 08          	mov    rcx,QWORD PTR [r9+0x8]
	uint64_t __t = _M_unpacked_size >> (__i * _S_packed_type_bits);
    4451:	48 c1 ea 04          	shr    rdx,0x4
	    __arg._M_val = _M_values[__i];
    4455:	66 0f 6f 01          	movdqa xmm0,XMMWORD PTR [rcx]
	return static_cast<__format::_Arg_t>(__t & _S_packed_type_mask);
    4459:	89 d0                	mov    eax,edx
      return __arg._M_visit(std::forward<_Visitor>(__vis), __arg._M_type);
    445b:	83 e2 1f             	and    edx,0x1f
	return static_cast<__format::_Arg_t>(__t & _S_packed_type_mask);
    445e:	83 e0 1f             	and    eax,0x1f
	    __arg._M_val = _M_values[__i];
    4461:	0f 29 44 24 20       	movaps XMMWORD PTR [rsp+0x20],xmm0
	    std::visit_format_arg([&](auto& __arg) {
    4466:	48 8d 74 24 18       	lea    rsi,[rsp+0x18]
    446b:	48 8d 4c 24 17       	lea    rcx,[rsp+0x17]
    4470:	88 44 24 30          	mov    BYTE PTR [rsp+0x30],al
    4474:	66 48 0f 6e c6       	movq   xmm0,rsi
    4479:	66 48 0f 6e d1       	movq   xmm2,rcx
      return __arg._M_visit(std::forward<_Visitor>(__vis), __arg._M_type);
    447e:	4c 8d 74 24 40       	lea    r14,[rsp+0x40]
    4483:	4c 89 84 24 30 02 00 	mov    QWORD PTR [rsp+0x230],r8
    448a:	00 
	    std::visit_format_arg([&](auto& __arg) {
    448b:	66 0f 6c c2          	punpcklqdq xmm0,xmm2
      return __arg._M_visit(std::forward<_Visitor>(__vis), __arg._M_type);
    448f:	4c 8d 7c 24 70       	lea    r15,[rsp+0x70]
    4494:	4c 89 f6             	mov    rsi,r14
    4497:	4c 89 4c 24 08       	mov    QWORD PTR [rsp+0x8],r9
	    std::visit_format_arg([&](auto& __arg) {
    449c:	0f 29 44 24 40       	movaps XMMWORD PTR [rsp+0x40],xmm0
    44a1:	66 0f 6f 44 24 20    	movdqa xmm0,XMMWORD PTR [rsp+0x20]
      return __arg._M_visit(std::forward<_Visitor>(__vis), __arg._M_type);
    44a7:	4c 89 ff             	mov    rdi,r15
    44aa:	0f 29 44 24 70       	movaps XMMWORD PTR [rsp+0x70],xmm0
    44af:	66 0f 6f 44 24 30    	movdqa xmm0,XMMWORD PTR [rsp+0x30]
    44b5:	0f 29 84 24 80 00 00 	movaps XMMWORD PTR [rsp+0x80],xmm0
    44bc:	00 
    44bd:	e8 ee 21 00 00       	call   66b0 <decltype(auto) std::basic_format_arg<std::basic_format_context<std::__format::_Sink_iter<char>, char> >::_M_visit<std::__format::__do_vformat_to<std::ostream_iterator<char, char, std::char_traits<char> >, char, std::basic_format_context<std::__format::_Sink_iter<char>, char> >(std::ostream_iterator<char, char, std::char_traits<char> >, std::basic_string_view<char, std::char_traits<char> >, std::basic_format_args<std::basic_format_context<std::__format::_Sink_iter<char>, char> > const&, std::locale const*)::{lambda(auto:1&)#1}>(std::__format::__do_vformat_to<std::ostream_iterator<char, char, std::char_traits<char> >, char, std::basic_format_context<std::__format::_Sink_iter<char>, char> >(std::ostream_iterator<char, char, std::char_traits<char> >, std::basic_string_view<char, std::char_traits<char> >, std::basic_format_args<std::basic_format_context<std::__format::_Sink_iter<char>, char> > const&, std::locale const*)::{lambda(auto:1&)#1}&&, std::__format::_Arg_t)>
	    if (__done)
    44c2:	80 7c 24 17 00       	cmp    BYTE PTR [rsp+0x17],0x0
    44c7:	48 8b 54 24 18       	mov    rdx,QWORD PTR [rsp+0x18]
    44cc:	4c 8b 4c 24 08       	mov    r9,QWORD PTR [rsp+0x8]
    44d1:	4c 8b 84 24 30 02 00 	mov    r8,QWORD PTR [rsp+0x230]
    44d8:	00 
    44d9:	0f 84 78 fe ff ff    	je     4357 <std::ostream_iterator<char, char, std::char_traits<char> > std::__format::__do_vformat_to<std::ostream_iterator<char, char, std::char_traits<char> >, char, std::basic_format_context<std::__format::_Sink_iter<char>, char> >(std::ostream_iterator<char, char, std::char_traits<char> >, std::basic_string_view<char, std::char_traits<char> >, std::basic_format_args<std::basic_format_context<std::__format::_Sink_iter<char>, char> > const&, std::locale const*) [clone .isra.0]+0xa7>
	if (this->_M_used().size() != 0)
    44df:	48 8b 84 24 c8 00 00 	mov    rax,QWORD PTR [rsp+0xc8]
    44e6:	00 
    44e7:	48 39 84 24 b8 00 00 	cmp    QWORD PTR [rsp+0xb8],rax
    44ee:	00 
    44ef:	75 68                	jne    4559 <std::ostream_iterator<char, char, std::char_traits<char> > std::__format::__do_vformat_to<std::ostream_iterator<char, char, std::char_traits<char> >, char, std::basic_format_context<std::__format::_Sink_iter<char>, char> >(std::ostream_iterator<char, char, std::char_traits<char> >, std::basic_string_view<char, std::char_traits<char> >, std::basic_format_args<std::basic_format_context<std::__format::_Sink_iter<char>, char> > const&, std::locale const*) [clone .isra.0]+0x2a9>
    44f1:	66 0f 6f 84 24 d0 01 	movdqa xmm0,XMMWORD PTR [rsp+0x1d0]
    44f8:	00 00 
    44fa:	0f 11 45 00          	movups XMMWORD PTR [rbp+0x0],xmm0
    44fe:	e9 f3 fe ff ff       	jmp    43f6 <std::ostream_iterator<char, char, std::char_traits<char> > std::__format::__do_vformat_to<std::ostream_iterator<char, char, std::char_traits<char> >, char, std::basic_format_context<std::__format::_Sink_iter<char>, char> >(std::ostream_iterator<char, char, std::char_traits<char> >, std::basic_string_view<char, std::char_traits<char> >, std::basic_format_args<std::basic_format_context<std::__format::_Sink_iter<char>, char> > const&, std::locale const*) [clone .isra.0]+0x146>
    4503:	0f 1f 44 00 00       	nop    DWORD PTR [rax+rax*1+0x0]
    ~_Optional_locale() { if (_M_hasval) _M_loc.~locale(); }
    4508:	48 8d 7c 24 58       	lea    rdi,[rsp+0x58]
    450d:	e8 ae ed ff ff       	call   32c0 <std::locale::~locale()@plt>
      ~basic_format_context() = default;
    4512:	e9 df fe ff ff       	jmp    43f6 <std::ostream_iterator<char, char, std::char_traits<char> > std::__format::__do_vformat_to<std::ostream_iterator<char, char, std::char_traits<char> >, char, std::basic_format_context<std::__format::_Sink_iter<char>, char> >(std::ostream_iterator<char, char, std::char_traits<char> >, std::basic_string_view<char, std::char_traits<char> >, std::basic_format_args<std::basic_format_context<std::__format::_Sink_iter<char>, char> > const&, std::locale const*) [clone .isra.0]+0x146>
    4517:	66 0f 1f 84 00 00 00 	nop    WORD PTR [rax+rax*1+0x0]
    451e:	00 00 
	  _Iter_sink::_M_overflow();
    4520:	4c 89 ef             	mov    rdi,r13
    4523:	e8 48 08 00 00       	call   4d70 <std::__format::_Iter_sink<char, std::ostream_iterator<char, char, std::char_traits<char> > >::_M_overflow()>
    4528:	e9 b1 fe ff ff       	jmp    43de <std::ostream_iterator<char, char, std::char_traits<char> > std::__format::__do_vformat_to<std::ostream_iterator<char, char, std::char_traits<char> >, char, std::basic_format_context<std::__format::_Sink_iter<char>, char> >(std::ostream_iterator<char, char, std::char_traits<char> >, std::basic_string_view<char, std::char_traits<char> >, std::basic_format_args<std::basic_format_context<std::__format::_Sink_iter<char>, char> > const&, std::locale const*) [clone .isra.0]+0x12e>
    452d:	0f 1f 00             	nop    DWORD PTR [rax]
	else if (_M_packed_size == 0 && __i < _M_unpacked_size)
    4530:	49 8b 31             	mov    rsi,QWORD PTR [r9]
    4533:	31 c0                	xor    eax,eax
    4535:	31 d2                	xor    edx,edx
    4537:	48 c1 ee 04          	shr    rsi,0x4
    453b:	0f 84 25 ff ff ff    	je     4466 <std::ostream_iterator<char, char, std::char_traits<char> > std::__format::__do_vformat_to<std::ostream_iterator<char, char, std::char_traits<char> >, char, std::basic_format_context<std::__format::_Sink_iter<char>, char> >(std::ostream_iterator<char, char, std::char_traits<char> >, std::basic_string_view<char, std::char_traits<char> >, std::basic_format_args<std::basic_format_context<std::__format::_Sink_iter<char>, char> > const&, std::locale const*) [clone .isra.0]+0x1b6>
	  __arg = _M_args[__i];
    4541:	49 8b 41 08          	mov    rax,QWORD PTR [r9+0x8]
    4545:	f3 0f 6f 00          	movdqu xmm0,XMMWORD PTR [rax]
    4549:	0f b6 50 10          	movzx  edx,BYTE PTR [rax+0x10]
    454d:	0f 29 44 24 20       	movaps XMMWORD PTR [rsp+0x20],xmm0
    4552:	89 d0                	mov    eax,edx
    4554:	e9 0d ff ff ff       	jmp    4466 <std::ostream_iterator<char, char, std::char_traits<char> > std::__format::__do_vformat_to<std::ostream_iterator<char, char, std::char_traits<char> >, char, std::basic_format_context<std::__format::_Sink_iter<char>, char> >(std::ostream_iterator<char, char, std::char_traits<char> >, std::basic_string_view<char, std::char_traits<char> >, std::basic_format_args<std::basic_format_context<std::__format::_Sink_iter<char>, char> > const&, std::locale const*) [clone .isra.0]+0x1b6>
	  _Iter_sink::_M_overflow();
    4559:	4c 89 ef             	mov    rdi,r13
    455c:	e8 0f 08 00 00       	call   4d70 <std::__format::_Iter_sink<char, std::ostream_iterator<char, char, std::char_traits<char> > >::_M_overflow()>
    4561:	eb 8e                	jmp    44f1 <std::ostream_iterator<char, char, std::char_traits<char> > std::__format::__do_vformat_to<std::ostream_iterator<char, char, std::char_traits<char> >, char, std::basic_format_context<std::__format::_Sink_iter<char>, char> >(std::ostream_iterator<char, char, std::char_traits<char> >, std::basic_string_view<char, std::char_traits<char> >, std::basic_format_args<std::basic_format_context<std::__format::_Sink_iter<char>, char> > const&, std::locale const*) [clone .isra.0]+0x241>
    4563:	90                   	nop
    4564:	66 66 2e 0f 1f 84 00 	data16 cs nop WORD PTR [rax+rax*1+0x0]
    456b:	00 00 00 00 
    456f:	90                   	nop

0000000000004570 <std::__cxx11::basic_string<char, std::char_traits<char>, std::allocator<char> >::_M_replace_aux(unsigned long, unsigned long, unsigned long, char) [clone .isra.0]>:
	if (this->max_size() - (this->size() - __n1) < __n2)
    4570:	48 b8 ff ff ff ff ff 	movabs rax,0x7fffffffffffffff
    4577:	ff ff 7f 
    basic_string<_CharT, _Traits, _Alloc>::
    457a:	41 56                	push   r14
    457c:	41 55                	push   r13
    457e:	48 01 d0             	add    rax,rdx
    4581:	41 54                	push   r12
    4583:	55                   	push   rbp
    4584:	48 89 cd             	mov    rbp,rcx
    4587:	53                   	push   rbx
      { return _M_string_length; }
    4588:	48 8b 4f 08          	mov    rcx,QWORD PTR [rdi+0x8]
	if (this->max_size() - (this->size() - __n1) < __n2)
    458c:	48 29 c8             	sub    rax,rcx
    458f:	48 39 e8             	cmp    rax,rbp
    4592:	0f 82 46 ee ff ff    	jb     33de <std::__cxx11::basic_string<char, std::char_traits<char>, std::allocator<char> >::_M_replace_aux(unsigned long, unsigned long, unsigned long, char) [clone .isra.0] [clone .cold]>
    4598:	48 89 fb             	mov    rbx,rdi
      const size_type __new_size = __old_size + __n2 - __n1;
    459b:	49 89 ec             	mov    r12,rbp
      { return _M_dataplus._M_p; }
    459e:	48 8b 3f             	mov    rdi,QWORD PTR [rdi]
    45a1:	49 89 f6             	mov    r14,rsi
    45a4:	49 29 d4             	sub    r12,rdx
	return std::pointer_traits<const_pointer>::pointer_to(*_M_local_buf);
    45a7:	48 8d 43 10          	lea    rax,[rbx+0x10]
    45ab:	45 89 c5             	mov    r13d,r8d
    45ae:	49 01 cc             	add    r12,rcx
	if (_M_data() == _M_local_data())
    45b1:	48 39 c7             	cmp    rdi,rax
    45b4:	0f 84 86 00 00 00    	je     4640 <std::__cxx11::basic_string<char, std::char_traits<char>, std::allocator<char> >::_M_replace_aux(unsigned long, unsigned long, unsigned long, char) [clone .isra.0]+0xd0>
       */
      _GLIBCXX_NODISCARD _GLIBCXX20_CONSTEXPR
      size_type
      capacity() const _GLIBCXX_NOEXCEPT
      {
	return _M_is_local() ? size_type(_S_local_capacity)
    45ba:	48 8b 43 10          	mov    rax,QWORD PTR [rbx+0x10]
      if (__new_size <= this->capacity())
    45be:	4c 39 e0             	cmp    rax,r12
    45c1:	72 5d                	jb     4620 <std::__cxx11::basic_string<char, std::char_traits<char>, std::allocator<char> >::_M_replace_aux(unsigned long, unsigned long, unsigned long, char) [clone .isra.0]+0xb0>
	  const size_type __how_much = __old_size - __pos1 - __n1;
    45c3:	4a 8d 04 32          	lea    rax,[rdx+r14*1]
	  if (__how_much && __n1 != __n2)
    45c7:	48 29 c1             	sub    rcx,rax
    45ca:	74 24                	je     45f0 <std::__cxx11::basic_string<char, std::char_traits<char>, std::allocator<char> >::_M_replace_aux(unsigned long, unsigned long, unsigned long, char) [clone .isra.0]+0x80>
    45cc:	48 39 ea             	cmp    rdx,rbp
    45cf:	74 1f                	je     45f0 <std::__cxx11::basic_string<char, std::char_traits<char>, std::allocator<char> >::_M_replace_aux(unsigned long, unsigned long, unsigned long, char) [clone .isra.0]+0x80>
	  pointer __p = this->_M_data() + __pos1;
    45d1:	4c 01 f7             	add    rdi,r14
	    this->_S_move(__p + __n2, __p + __n1, __how_much);
    45d4:	48 8d 34 17          	lea    rsi,[rdi+rdx*1]
    45d8:	48 01 ef             	add    rdi,rbp
	if (__n == 1)
    45db:	48 83 f9 01          	cmp    rcx,0x1
    45df:	74 6f                	je     4650 <std::__cxx11::basic_string<char, std::char_traits<char>, std::allocator<char> >::_M_replace_aux(unsigned long, unsigned long, unsigned long, char) [clone .isra.0]+0xe0>
	return static_cast<char_type*>(__builtin_memmove(__s1, __s2, __n));
    45e1:	48 89 ca             	mov    rdx,rcx
    45e4:	e8 37 ed ff ff       	call   3320 <memmove@plt>
      { return _M_dataplus._M_p; }
    45e9:	48 8b 3b             	mov    rdi,QWORD PTR [rbx]
    45ec:	0f 1f 40 00          	nop    DWORD PTR [rax+0x0]
      if (__n2)
    45f0:	48 85 ed             	test   rbp,rbp
    45f3:	74 18                	je     460d <std::__cxx11::basic_string<char, std::char_traits<char>, std::allocator<char> >::_M_replace_aux(unsigned long, unsigned long, unsigned long, char) [clone .isra.0]+0x9d>
	this->_S_assign(this->_M_data() + __pos1, __n2, __c);
    45f5:	4c 01 f7             	add    rdi,r14
	if (__n == 1)
    45f8:	48 83 fd 01          	cmp    rbp,0x1
    45fc:	74 3a                	je     4638 <std::__cxx11::basic_string<char, std::char_traits<char>, std::allocator<char> >::_M_replace_aux(unsigned long, unsigned long, unsigned long, char) [clone .isra.0]+0xc8>
	  return __s;
#if __cplusplus >= 202002L
	if (std::__is_constant_evaluated())
	  return __gnu_cxx::char_traits<char_type>::assign(__s, __n, __a);
#endif
	return static_cast<char_type*>(__builtin_memset(__s, __a, __n));
    45fe:	41 0f be f5          	movsx  esi,r13b
    4602:	48 89 ea             	mov    rdx,rbp
    4605:	e8 36 eb ff ff       	call   3140 <memset@plt>
      { return _M_dataplus._M_p; }
    460a:	48 8b 3b             	mov    rdi,QWORD PTR [rbx]
      { _M_string_length = __length; }
    460d:	4c 89 63 08          	mov    QWORD PTR [rbx+0x8],r12
	__c1 = __c2;
    4611:	42 c6 04 27 00       	mov    BYTE PTR [rdi+r12*1],0x0
    }
    4616:	5b                   	pop    rbx
    4617:	5d                   	pop    rbp
    4618:	41 5c                	pop    r12
    461a:	41 5d                	pop    r13
    461c:	41 5e                	pop    r14
    461e:	c3                   	ret
    461f:	90                   	nop
	this->_M_mutate(__pos1, __n1, 0, __n2);
    4620:	48 89 df             	mov    rdi,rbx
    4623:	49 89 e8             	mov    r8,rbp
    4626:	31 c9                	xor    ecx,ecx
    4628:	4c 89 f6             	mov    rsi,r14
    462b:	e8 40 32 00 00       	call   7870 <std::__cxx11::basic_string<char, std::char_traits<char>, std::allocator<char> >::_M_mutate(unsigned long, unsigned long, char const*, unsigned long)>
      { return _M_dataplus._M_p; }
    4630:	48 8b 3b             	mov    rdi,QWORD PTR [rbx]
    4633:	eb bb                	jmp    45f0 <std::__cxx11::basic_string<char, std::char_traits<char>, std::allocator<char> >::_M_replace_aux(unsigned long, unsigned long, unsigned long, char) [clone .isra.0]+0x80>
    4635:	0f 1f 00             	nop    DWORD PTR [rax]
    4638:	44 88 2f             	mov    BYTE PTR [rdi],r13b
    463b:	48 8b 3b             	mov    rdi,QWORD PTR [rbx]
      }
    463e:	eb cd                	jmp    460d <std::__cxx11::basic_string<char, std::char_traits<char>, std::allocator<char> >::_M_replace_aux(unsigned long, unsigned long, unsigned long, char) [clone .isra.0]+0x9d>
	return _M_is_local() ? size_type(_S_local_capacity)
    4640:	b8 0f 00 00 00       	mov    eax,0xf
    4645:	e9 74 ff ff ff       	jmp    45be <std::__cxx11::basic_string<char, std::char_traits<char>, std::allocator<char> >::_M_replace_aux(unsigned long, unsigned long, unsigned long, char) [clone .isra.0]+0x4e>
    464a:	66 0f 1f 44 00 00    	nop    WORD PTR [rax+rax*1+0x0]
	__c1 = __c2;
    4650:	0f b6 06             	movzx  eax,BYTE PTR [rsi]
    4653:	88 07                	mov    BYTE PTR [rdi],al
      { return _M_dataplus._M_p; }
    4655:	48 8b 3b             	mov    rdi,QWORD PTR [rbx]
      }
    4658:	eb 96                	jmp    45f0 <std::__cxx11::basic_string<char, std::char_traits<char>, std::allocator<char> >::_M_replace_aux(unsigned long, unsigned long, unsigned long, char) [clone .isra.0]+0x80>
    465a:	66 0f 1f 44 00 00    	nop    WORD PTR [rax+rax*1+0x0]

0000000000004660 <std::__cxx11::basic_string<char, std::char_traits<char>, std::allocator<char> >::_M_replace(unsigned long, unsigned long, char const*, unsigned long) [clone .isra.0]>:
	if (this->max_size() - (this->size() - __n1) < __n2)
    4660:	48 b8 ff ff ff ff ff 	movabs rax,0x7fffffffffffffff
    4667:	ff ff 7f 
    basic_string<_CharT, _Traits, _Alloc>::
    466a:	41 55                	push   r13
    466c:	41 54                	push   r12
    466e:	49 89 cc             	mov    r12,rcx
    4671:	48 01 d0             	add    rax,rdx
    4674:	55                   	push   rbp
    4675:	53                   	push   rbx
    4676:	48 83 ec 18          	sub    rsp,0x18
      { return _M_string_length; }
    467a:	48 8b 4f 08          	mov    rcx,QWORD PTR [rdi+0x8]
	if (this->max_size() - (this->size() - __n1) < __n2)
    467e:	48 29 c8             	sub    rax,rcx
    4681:	4c 39 c0             	cmp    rax,r8
    4684:	0f 82 73 ed ff ff    	jb     33fd <std::__cxx11::basic_string<char, std::char_traits<char>, std::allocator<char> >::_M_replace(unsigned long, unsigned long, char const*, unsigned long) [clone .isra.0] [clone .cold]+0x13>
      { return _M_dataplus._M_p; }
    468a:	48 8b 07             	mov    rax,QWORD PTR [rdi]
      const size_type __new_size = __old_size + __len2 - __len1;
    468d:	4c 89 c5             	mov    rbp,r8
    4690:	48 89 fb             	mov    rbx,rdi
	return std::pointer_traits<const_pointer>::pointer_to(*_M_local_buf);
    4693:	48 8d 7f 10          	lea    rdi,[rdi+0x10]
    4697:	48 29 d5             	sub    rbp,rdx
    469a:	48 01 cd             	add    rbp,rcx
	if (_M_data() == _M_local_data())
    469d:	48 39 f8             	cmp    rax,rdi
    46a0:	0f 84 9a 00 00 00    	je     4740 <std::__cxx11::basic_string<char, std::char_traits<char>, std::allocator<char> >::_M_replace(unsigned long, unsigned long, char const*, unsigned long) [clone .isra.0]+0xe0>
	return _M_is_local() ? size_type(_S_local_capacity)
    46a6:	48 8b 7b 10          	mov    rdi,QWORD PTR [rbx+0x10]
      if (__new_size <= this->capacity())
    46aa:	48 39 ef             	cmp    rdi,rbp
    46ad:	0f 82 7d 00 00 00    	jb     4730 <std::__cxx11::basic_string<char, std::char_traits<char>, std::allocator<char> >::_M_replace(unsigned long, unsigned long, char const*, unsigned long) [clone .isra.0]+0xd0>
	  pointer __p = this->_M_data() + __pos;
    46b3:	4c 8d 2c 30          	lea    r13,[rax+rsi*1]
	  const size_type __how_much = __old_size - __pos - __len1;
    46b7:	49 89 c9             	mov    r9,rcx
    46ba:	48 01 d6             	add    rsi,rdx
    46bd:	49 29 f1             	sub    r9,rsi
		|| less<const _CharT*>()(_M_data() + this->size(), __s));
    46c0:	49 39 c4             	cmp    r12,rax
    46c3:	73 5b                	jae    4720 <std::__cxx11::basic_string<char, std::char_traits<char>, std::allocator<char> >::_M_replace(unsigned long, unsigned long, char const*, unsigned long) [clone .isra.0]+0xc0>
	      if (__how_much && __len1 != __len2)
    46c5:	4d 85 c9             	test   r9,r9
    46c8:	74 27                	je     46f1 <std::__cxx11::basic_string<char, std::char_traits<char>, std::allocator<char> >::_M_replace(unsigned long, unsigned long, char const*, unsigned long) [clone .isra.0]+0x91>
    46ca:	4c 39 c2             	cmp    rdx,r8
    46cd:	74 22                	je     46f1 <std::__cxx11::basic_string<char, std::char_traits<char>, std::allocator<char> >::_M_replace(unsigned long, unsigned long, char const*, unsigned long) [clone .isra.0]+0x91>
		this->_S_move(__p + __len2, __p + __len1, __how_much);
    46cf:	49 8d 74 15 00       	lea    rsi,[r13+rdx*1+0x0]
    46d4:	4b 8d 7c 05 00       	lea    rdi,[r13+r8*1+0x0]
	if (__n == 1)
    46d9:	49 83 f9 01          	cmp    r9,0x1
    46dd:	74 71                	je     4750 <std::__cxx11::basic_string<char, std::char_traits<char>, std::allocator<char> >::_M_replace(unsigned long, unsigned long, char const*, unsigned long) [clone .isra.0]+0xf0>
	return static_cast<char_type*>(__builtin_memmove(__s1, __s2, __n));
    46df:	4c 89 ca             	mov    rdx,r9
    46e2:	4c 89 44 24 08       	mov    QWORD PTR [rsp+0x8],r8
    46e7:	e8 34 ec ff ff       	call   3320 <memmove@plt>
    46ec:	4c 8b 44 24 08       	mov    r8,QWORD PTR [rsp+0x8]
	      if (__len2)
    46f1:	4d 85 c0             	test   r8,r8
    46f4:	74 14                	je     470a <std::__cxx11::basic_string<char, std::char_traits<char>, std::allocator<char> >::_M_replace(unsigned long, unsigned long, char const*, unsigned long) [clone .isra.0]+0xaa>
	if (__n == 1)
    46f6:	49 83 f8 01          	cmp    r8,0x1
    46fa:	74 64                	je     4760 <std::__cxx11::basic_string<char, std::char_traits<char>, std::allocator<char> >::_M_replace(unsigned long, unsigned long, char const*, unsigned long) [clone .isra.0]+0x100>
	return static_cast<char_type*>(__builtin_memcpy(__s1, __s2, __n));
    46fc:	4c 89 c2             	mov    rdx,r8
    46ff:	4c 89 e6             	mov    rsi,r12
    4702:	4c 89 ef             	mov    rdi,r13
    4705:	e8 a6 ea ff ff       	call   31b0 <memcpy@plt>
	__c1 = __c2;
    470a:	48 8b 03             	mov    rax,QWORD PTR [rbx]
      { _M_string_length = __length; }
    470d:	48 89 6b 08          	mov    QWORD PTR [rbx+0x8],rbp
    4711:	c6 04 28 00          	mov    BYTE PTR [rax+rbp*1],0x0
      else
	this->_M_mutate(__pos, __len1, __s, __len2);

      this->_M_set_length(__new_size);
      return *this;
    }
    4715:	48 83 c4 18          	add    rsp,0x18
    4719:	5b                   	pop    rbx
    471a:	5d                   	pop    rbp
    471b:	41 5c                	pop    r12
    471d:	41 5d                	pop    r13
    471f:	c3                   	ret
		|| less<const _CharT*>()(_M_data() + this->size(), __s));
    4720:	48 01 c8             	add    rax,rcx
    4723:	4c 39 e0             	cmp    rax,r12
    4726:	72 9d                	jb     46c5 <std::__cxx11::basic_string<char, std::char_traits<char>, std::allocator<char> >::_M_replace(unsigned long, unsigned long, char const*, unsigned long) [clone .isra.0]+0x65>
    4728:	e9 bd ec ff ff       	jmp    33ea <std::__cxx11::basic_string<char, std::char_traits<char>, std::allocator<char> >::_M_replace(unsigned long, unsigned long, char const*, unsigned long) [clone .isra.0] [clone .cold]>
    472d:	0f 1f 00             	nop    DWORD PTR [rax]
	this->_M_mutate(__pos, __len1, __s, __len2);
    4730:	4c 89 e1             	mov    rcx,r12
    4733:	48 89 df             	mov    rdi,rbx
    4736:	e8 35 31 00 00       	call   7870 <std::__cxx11::basic_string<char, std::char_traits<char>, std::allocator<char> >::_M_mutate(unsigned long, unsigned long, char const*, unsigned long)>
    473b:	eb cd                	jmp    470a <std::__cxx11::basic_string<char, std::char_traits<char>, std::allocator<char> >::_M_replace(unsigned long, unsigned long, char const*, unsigned long) [clone .isra.0]+0xaa>
    473d:	0f 1f 00             	nop    DWORD PTR [rax]
	return _M_is_local() ? size_type(_S_local_capacity)
    4740:	bf 0f 00 00 00       	mov    edi,0xf
    4745:	e9 60 ff ff ff       	jmp    46aa <std::__cxx11::basic_string<char, std::char_traits<char>, std::allocator<char> >::_M_replace(unsigned long, unsigned long, char const*, unsigned long) [clone .isra.0]+0x4a>
    474a:	66 0f 1f 44 00 00    	nop    WORD PTR [rax+rax*1+0x0]
    4750:	0f b6 06             	movzx  eax,BYTE PTR [rsi]
    4753:	88 07                	mov    BYTE PTR [rdi],al
	      if (__len2)
    4755:	4d 85 c0             	test   r8,r8
    4758:	74 b0                	je     470a <std::__cxx11::basic_string<char, std::char_traits<char>, std::allocator<char> >::_M_replace(unsigned long, unsigned long, char const*, unsigned long) [clone .isra.0]+0xaa>
    475a:	eb 9a                	jmp    46f6 <std::__cxx11::basic_string<char, std::char_traits<char>, std::allocator<char> >::_M_replace(unsigned long, unsigned long, char const*, unsigned long) [clone .isra.0]+0x96>
    475c:	0f 1f 40 00          	nop    DWORD PTR [rax+0x0]
    4760:	41 0f b6 04 24       	movzx  eax,BYTE PTR [r12]
    4765:	41 88 45 00          	mov    BYTE PTR [r13+0x0],al
      }
    4769:	eb 9f                	jmp    470a <std::__cxx11::basic_string<char, std::char_traits<char>, std::allocator<char> >::_M_replace(unsigned long, unsigned long, char const*, unsigned long) [clone .isra.0]+0xaa>
    476b:	90                   	nop
    476c:	0f 1f 40 00          	nop    DWORD PTR [rax+0x0]

0000000000004770 <std::__cxx11::basic_string<char, std::char_traits<char>, std::allocator<char> >::insert(unsigned long, unsigned long, char) [clone .isra.0]>:
       *  out_of_range is thrown.  The value of the string doesn't
       *  change if an error is thrown.
      */
      _GLIBCXX20_CONSTEXPR
      basic_string&
      insert(size_type __pos, size_type __n, _CharT __c)
    4770:	41 56                	push   r14
    4772:	41 55                	push   r13
    4774:	41 54                	push   r12
    4776:	49 89 f4             	mov    r12,rsi
    4779:	55                   	push   rbp
    477a:	48 89 d5             	mov    rbp,rdx
    477d:	53                   	push   rbx
      { return _M_string_length; }
    477e:	48 8b 57 08          	mov    rdx,QWORD PTR [rdi+0x8]
	if (__pos > this->size())
    4782:	48 39 f2             	cmp    rdx,rsi
    4785:	0f 82 8b ec ff ff    	jb     3416 <std::__cxx11::basic_string<char, std::char_traits<char>, std::allocator<char> >::insert(unsigned long, unsigned long, char) [clone .isra.0] [clone .cold]+0xc>
	if (this->max_size() - (this->size() - __n1) < __n2)
    478b:	48 b8 ff ff ff ff ff 	movabs rax,0x7fffffffffffffff
    4792:	ff ff 7f 
    4795:	48 29 d0             	sub    rax,rdx
    4798:	48 39 e8             	cmp    rax,rbp
    479b:	0f 82 69 ec ff ff    	jb     340a <std::__cxx11::basic_string<char, std::char_traits<char>, std::allocator<char> >::insert(unsigned long, unsigned long, char) [clone .isra.0] [clone .cold]>
    47a1:	48 89 fb             	mov    rbx,rdi
      { return _M_dataplus._M_p; }
    47a4:	48 8b 3f             	mov    rdi,QWORD PTR [rdi]
    47a7:	41 89 cd             	mov    r13d,ecx
      const size_type __new_size = __old_size + __n2 - __n1;
    47aa:	4c 8d 34 2a          	lea    r14,[rdx+rbp*1]
	return std::pointer_traits<const_pointer>::pointer_to(*_M_local_buf);
    47ae:	48 8d 43 10          	lea    rax,[rbx+0x10]
	if (_M_data() == _M_local_data())
    47b2:	48 39 c7             	cmp    rdi,rax
    47b5:	0f 84 85 00 00 00    	je     4840 <std::__cxx11::basic_string<char, std::char_traits<char>, std::allocator<char> >::insert(unsigned long, unsigned long, char) [clone .isra.0]+0xd0>
	return _M_is_local() ? size_type(_S_local_capacity)
    47bb:	48 8b 43 10          	mov    rax,QWORD PTR [rbx+0x10]
      if (__new_size <= this->capacity())
    47bf:	4c 39 f0             	cmp    rax,r14
    47c2:	72 4c                	jb     4810 <std::__cxx11::basic_string<char, std::char_traits<char>, std::allocator<char> >::insert(unsigned long, unsigned long, char) [clone .isra.0]+0xa0>
	  if (__how_much && __n1 != __n2)
    47c4:	4c 29 e2             	sub    rdx,r12
    47c7:	74 5c                	je     4825 <std::__cxx11::basic_string<char, std::char_traits<char>, std::allocator<char> >::insert(unsigned long, unsigned long, char) [clone .isra.0]+0xb5>
    47c9:	48 85 ed             	test   rbp,rbp
    47cc:	74 2e                	je     47fc <std::__cxx11::basic_string<char, std::char_traits<char>, std::allocator<char> >::insert(unsigned long, unsigned long, char) [clone .isra.0]+0x8c>
	  pointer __p = this->_M_data() + __pos1;
    47ce:	4a 8d 34 27          	lea    rsi,[rdi+r12*1]
	    this->_S_move(__p + __n2, __p + __n1, __how_much);
    47d2:	48 8d 3c 2e          	lea    rdi,[rsi+rbp*1]
	if (__n == 1)
    47d6:	48 83 fa 01          	cmp    rdx,0x1
    47da:	74 74                	je     4850 <std::__cxx11::basic_string<char, std::char_traits<char>, std::allocator<char> >::insert(unsigned long, unsigned long, char) [clone .isra.0]+0xe0>
	return static_cast<char_type*>(__builtin_memmove(__s1, __s2, __n));
    47dc:	e8 3f eb ff ff       	call   3320 <memmove@plt>
      { return _M_dataplus._M_p; }
    47e1:	48 8b 3b             	mov    rdi,QWORD PTR [rbx]
	this->_S_assign(this->_M_data() + __pos1, __n2, __c);
    47e4:	4c 01 e7             	add    rdi,r12
	if (__n == 1)
    47e7:	48 83 fd 01          	cmp    rbp,0x1
    47eb:	74 43                	je     4830 <std::__cxx11::basic_string<char, std::char_traits<char>, std::allocator<char> >::insert(unsigned long, unsigned long, char) [clone .isra.0]+0xc0>
	return static_cast<char_type*>(__builtin_memset(__s, __a, __n));
    47ed:	41 0f be f5          	movsx  esi,r13b
    47f1:	48 89 ea             	mov    rdx,rbp
    47f4:	e8 47 e9 ff ff       	call   3140 <memset@plt>
      { return _M_dataplus._M_p; }
    47f9:	48 8b 3b             	mov    rdi,QWORD PTR [rbx]
      { _M_string_length = __length; }
    47fc:	4c 89 73 08          	mov    QWORD PTR [rbx+0x8],r14
	__c1 = __c2;
    4800:	42 c6 04 37 00       	mov    BYTE PTR [rdi+r14*1],0x0
      { return _M_replace_aux(_M_check(__pos, "basic_string::insert"),
			      size_type(0), __n, __c); }
    4805:	5b                   	pop    rbx
    4806:	5d                   	pop    rbp
    4807:	41 5c                	pop    r12
    4809:	41 5d                	pop    r13
    480b:	41 5e                	pop    r14
    480d:	c3                   	ret
    480e:	66 90                	xchg   ax,ax
	this->_M_mutate(__pos1, __n1, 0, __n2);
    4810:	48 89 df             	mov    rdi,rbx
    4813:	49 89 e8             	mov    r8,rbp
    4816:	31 c9                	xor    ecx,ecx
    4818:	31 d2                	xor    edx,edx
    481a:	4c 89 e6             	mov    rsi,r12
    481d:	e8 4e 30 00 00       	call   7870 <std::__cxx11::basic_string<char, std::char_traits<char>, std::allocator<char> >::_M_mutate(unsigned long, unsigned long, char const*, unsigned long)>
      { return _M_dataplus._M_p; }
    4822:	48 8b 3b             	mov    rdi,QWORD PTR [rbx]
      if (__n2)
    4825:	48 85 ed             	test   rbp,rbp
    4828:	74 d2                	je     47fc <std::__cxx11::basic_string<char, std::char_traits<char>, std::allocator<char> >::insert(unsigned long, unsigned long, char) [clone .isra.0]+0x8c>
    482a:	eb b8                	jmp    47e4 <std::__cxx11::basic_string<char, std::char_traits<char>, std::allocator<char> >::insert(unsigned long, unsigned long, char) [clone .isra.0]+0x74>
    482c:	0f 1f 40 00          	nop    DWORD PTR [rax+0x0]
    4830:	44 88 2f             	mov    BYTE PTR [rdi],r13b
    4833:	48 8b 3b             	mov    rdi,QWORD PTR [rbx]
      }
    4836:	eb c4                	jmp    47fc <std::__cxx11::basic_string<char, std::char_traits<char>, std::allocator<char> >::insert(unsigned long, unsigned long, char) [clone .isra.0]+0x8c>
    4838:	0f 1f 84 00 00 00 00 	nop    DWORD PTR [rax+rax*1+0x0]
    483f:	00 
	return _M_is_local() ? size_type(_S_local_capacity)
    4840:	b8 0f 00 00 00       	mov    eax,0xf
    4845:	e9 75 ff ff ff       	jmp    47bf <std::__cxx11::basic_string<char, std::char_traits<char>, std::allocator<char> >::insert(unsigned long, unsigned long, char) [clone .isra.0]+0x4f>
    484a:	66 0f 1f 44 00 00    	nop    WORD PTR [rax+rax*1+0x0]
	__c1 = __c2;
    4850:	0f b6 06             	movzx  eax,BYTE PTR [rsi]
    4853:	88 07                	mov    BYTE PTR [rdi],al
      { return _M_dataplus._M_p; }
    4855:	48 8b 3b             	mov    rdi,QWORD PTR [rbx]
	this->_S_assign(this->_M_data() + __pos1, __n2, __c);
    4858:	4c 01 e7             	add    rdi,r12
	if (__n == 1)
    485b:	48 83 fd 01          	cmp    rbp,0x1
    485f:	75 8c                	jne    47ed <std::__cxx11::basic_string<char, std::char_traits<char>, std::allocator<char> >::insert(unsigned long, unsigned long, char) [clone .isra.0]+0x7d>
    4861:	eb cd                	jmp    4830 <std::__cxx11::basic_string<char, std::char_traits<char>, std::allocator<char> >::insert(unsigned long, unsigned long, char) [clone .isra.0]+0xc0>
    4863:	90                   	nop
    4864:	66 66 2e 0f 1f 84 00 	data16 cs nop WORD PTR [rax+rax*1+0x0]
    486b:	00 00 00 00 
    486f:	90                   	nop

0000000000004870 <std::__format::__formatter_fp<char>::_M_localize[abi:cxx11](std::basic_string_view<char, std::char_traits<char> >, char, std::locale const&) const [clone .isra.0]>:
      _M_localize(basic_string_view<_CharT> __str, char __expc,
    4870:	41 57                	push   r15
	return std::pointer_traits<pointer>::pointer_to(*_M_local_buf);
    4872:	48 8d 47 10          	lea    rax,[rdi+0x10]
    4876:	41 56                	push   r14
    4878:	41 89 ce             	mov    r14d,ecx
    487b:	41 55                	push   r13
    487d:	49 89 d5             	mov    r13,rdx
    4880:	41 54                	push   r12
    4882:	4d 89 c4             	mov    r12,r8
    4885:	55                   	push   rbp
    4886:	48 89 f5             	mov    rbp,rsi
    4889:	53                   	push   rbx
    488a:	48 89 fb             	mov    rbx,rdi
    488d:	48 83 ec 58          	sub    rsp,0x58
    4891:	48 89 07             	mov    QWORD PTR [rdi],rax
      { _M_string_length = __length; }
    4894:	48 c7 47 08 00 00 00 	mov    QWORD PTR [rdi+0x8],0x0
    489b:	00 
    489c:	c6 47 10 00          	mov    BYTE PTR [rdi+0x10],0x0
	if (__loc == locale::classic())
    48a0:	e8 fb e9 ff ff       	call   32a0 <std::locale::classic()@plt>
    48a5:	4c 89 e7             	mov    rdi,r12
    48a8:	48 89 c6             	mov    rsi,rax
    48ab:	e8 c0 e7 ff ff       	call   3070 <std::locale::operator==(std::locale const&) const@plt>
    48b0:	84 c0                	test   al,al
    48b2:	74 1c                	je     48d0 <std::__format::__formatter_fp<char>::_M_localize[abi:cxx11](std::basic_string_view<char, std::char_traits<char> >, char, std::locale const&) const [clone .isra.0]+0x60>
      }
    48b4:	48 83 c4 58          	add    rsp,0x58
    48b8:	48 89 d8             	mov    rax,rbx
    48bb:	5b                   	pop    rbx
    48bc:	5d                   	pop    rbp
    48bd:	41 5c                	pop    r12
    48bf:	41 5d                	pop    r13
    48c1:	41 5e                	pop    r14
    48c3:	41 5f                	pop    r15
    48c5:	c3                   	ret
    48c6:	66 2e 0f 1f 84 00 00 	cs nop WORD PTR [rax+rax*1+0x0]
    48cd:	00 00 00 
      const size_t __i = _Facet::id._M_id();
    48d0:	48 8d 3d e9 78 01 00 	lea    rdi,[rip+0x178e9]        # 1c1c0 <std::__cxx11::numpunct<char>::id@GLIBCXX_3.4.21>
    48d7:	e8 44 e8 ff ff       	call   3120 <std::locale::id::_M_id() const@plt>
    48dc:	48 89 c2             	mov    rdx,rax
      const locale::facet** __facets = __loc._M_impl->_M_facets;
    48df:	49 8b 04 24          	mov    rax,QWORD PTR [r12]
      _GLIBCXX_STD_FACET(numpunct<char>);
    48e3:	48 8b 40 08          	mov    rax,QWORD PTR [rax+0x8]
    48e7:	4c 8b 3c d0          	mov    r15,QWORD PTR [rax+rdx*8]
      if (const _Facet* __f = std::__try_use_facet<_Facet>(__loc))
    48eb:	4d 85 ff             	test   r15,r15
    48ee:	0f 84 3e eb ff ff    	je     3432 <std::__format::__formatter_fp<char>::_M_localize[abi:cxx11](std::basic_string_view<char, std::char_traits<char> >, char, std::locale const&) const [clone .isra.0] [clone .cold]>
       *
       *  @return  @a char_type representing a decimal point.
      */
      char_type
      decimal_point() const
      { return this->do_decimal_point(); }
    48f4:	49 8b 07             	mov    rax,QWORD PTR [r15]
    48f7:	4c 89 ff             	mov    rdi,r15
    48fa:	ff 50 10             	call   QWORD PTR [rax+0x10]
       *
       *  @return  string representing grouping specification.
      */
      string
      grouping() const
      { return this->do_grouping(); }
    48fd:	48 8d 7c 24 30       	lea    rdi,[rsp+0x30]
    4902:	4c 89 fe             	mov    rsi,r15
      { return this->do_decimal_point(); }
    4905:	88 04 24             	mov    BYTE PTR [rsp],al
    4908:	41 89 c4             	mov    r12d,eax
      { return this->do_grouping(); }
    490b:	49 8b 07             	mov    rax,QWORD PTR [r15]
    490e:	ff 50 20             	call   QWORD PTR [rax+0x20]
	if (__grp.empty() && __point == __dot)
    4911:	48 83 7c 24 38 00    	cmp    QWORD PTR [rsp+0x38],0x0
    4917:	75 2f                	jne    4948 <std::__format::__formatter_fp<char>::_M_localize[abi:cxx11](std::basic_string_view<char, std::char_traits<char> >, char, std::locale const&) const [clone .isra.0]+0xd8>
    4919:	41 80 fc 2e          	cmp    r12b,0x2e
    491d:	75 29                	jne    4948 <std::__format::__formatter_fp<char>::_M_localize[abi:cxx11](std::basic_string_view<char, std::char_traits<char> >, char, std::locale const&) const [clone .isra.0]+0xd8>
    491f:	90                   	nop
      { return _M_dataplus._M_p; }
    4920:	48 8b 7c 24 30       	mov    rdi,QWORD PTR [rsp+0x30]
	if (_M_data() == _M_local_data())
    4925:	48 8d 44 24 40       	lea    rax,[rsp+0x40]
    492a:	48 39 c7             	cmp    rdi,rax
    492d:	74 85                	je     48b4 <std::__format::__formatter_fp<char>::_M_localize[abi:cxx11](std::basic_string_view<char, std::char_traits<char> >, char, std::locale const&) const [clone .isra.0]+0x44>
      { _Alloc_traits::deallocate(_M_get_allocator(), _M_data(), __size + 1); }
    492f:	48 8b 44 24 40       	mov    rax,QWORD PTR [rsp+0x40]
    4934:	48 8d 70 01          	lea    rsi,[rax+0x1]
    4938:	e8 c3 e8 ff ff       	call   3200 <operator delete(void*, unsigned long)@plt>
      { _M_dispose(); }
    493d:	e9 72 ff ff ff       	jmp    48b4 <std::__format::__formatter_fp<char>::_M_localize[abi:cxx11](std::basic_string_view<char, std::char_traits<char> >, char, std::locale const&) const [clone .isra.0]+0x44>
    4942:	66 0f 1f 44 00 00    	nop    WORD PTR [rax+rax*1+0x0]
      if (__pos < this->_M_len)
    4948:	48 85 ed             	test   rbp,rbp
    494b:	0f 84 0f 01 00 00    	je     4a60 <std::__format::__formatter_fp<char>::_M_localize[abi:cxx11](std::basic_string_view<char, std::char_traits<char> >, char, std::locale const&) const [clone .isra.0]+0x1f0>
	return static_cast<const char_type*>(__builtin_memchr(__s, __a, __n));
    4951:	48 89 ea             	mov    rdx,rbp
    4954:	be 2e 00 00 00       	mov    esi,0x2e
    4959:	4c 89 ef             	mov    rdi,r13
    495c:	e8 bf e8 ff ff       	call   3220 <memchr@plt>
    4961:	41 0f be f6          	movsx  esi,r14b
    4965:	48 89 ea             	mov    rdx,rbp
    4968:	4c 89 ef             	mov    rdi,r13
    496b:	49 89 c4             	mov    r12,rax
    496e:	e8 ad e8 ff ff       	call   3220 <memchr@plt>
	  if (__p)
    4973:	4d 85 e4             	test   r12,r12
    4976:	0f 84 cc 00 00 00    	je     4a48 <std::__format::__formatter_fp<char>::_M_localize[abi:cxx11](std::basic_string_view<char, std::char_traits<char> >, char, std::locale const&) const [clone .isra.0]+0x1d8>
	    __ret = __p - this->_M_str;
    497c:	4d 89 e2             	mov    r10,r12
    497f:	4d 29 ea             	sub    r10,r13
	  if (__p)
    4982:	48 85 c0             	test   rax,rax
    4985:	0f 84 5d 01 00 00    	je     4ae8 <std::__format::__formatter_fp<char>::_M_localize[abi:cxx11](std::basic_string_view<char, std::char_traits<char> >, char, std::locale const&) const [clone .isra.0]+0x278>
	    __ret = __p - this->_M_str;
    498b:	4c 29 e8             	sub    rax,r13
    498e:	4c 39 d0             	cmp    rax,r10
    4991:	49 0f 47 c2          	cmova  rax,r10
    4995:	49 89 c4             	mov    r12,rax
	if (__e == __str.npos)
    4998:	49 83 fc ff          	cmp    r12,0xffffffffffffffff
    499c:	0f 84 be 00 00 00    	je     4a60 <std::__format::__formatter_fp<char>::_M_localize[abi:cxx11](std::basic_string_view<char, std::char_traits<char> >, char, std::locale const&) const [clone .isra.0]+0x1f0>
	const size_t __r = __str.size() - __e;
    49a2:	49 89 eb             	mov    r11,rbp
	__lstr.__resize_and_overwrite(__e * 2 + __r, __overwrite);
    49a5:	49 8d 34 2c          	lea    rsi,[r12+rbp*1]
    resize_and_overwrite(const size_type __n, _Operation __op)
#else
    __resize_and_overwrite(const size_type __n, _Operation __op)
#endif
    {
      reserve(__n);
    49a9:	48 89 df             	mov    rdi,rbx
    49ac:	4c 89 54 24 28       	mov    QWORD PTR [rsp+0x28],r10
	const size_t __r = __str.size() - __e;
    49b1:	4d 29 e3             	sub    r11,r12
    49b4:	4c 89 5c 24 20       	mov    QWORD PTR [rsp+0x20],r11
    49b9:	e8 72 12 00 00       	call   5c30 <std::__cxx11::basic_string<char, std::char_traits<char>, std::allocator<char> >::reserve(unsigned long)>
      { return _M_string_length; }
    49be:	48 8b 4c 24 38       	mov    rcx,QWORD PTR [rsp+0x38]
      { return this->do_thousands_sep(); }
    49c3:	49 8b 07             	mov    rax,QWORD PTR [r15]
    49c6:	4c 89 ff             	mov    rdi,r15
      { return _M_dataplus._M_p; }
    49c9:	48 8b 54 24 30       	mov    rdx,QWORD PTR [rsp+0x30]
	  auto __end = std::__add_grouping(__p, __np.thousands_sep(),
    49ce:	4f 8d 4c 25 00       	lea    r9,[r13+r12*1+0x0]
    49d3:	4c 8b 33             	mov    r14,QWORD PTR [rbx]
    49d6:	4c 89 4c 24 18       	mov    QWORD PTR [rsp+0x18],r9
      { return _M_string_length; }
    49db:	48 89 4c 24 10       	mov    QWORD PTR [rsp+0x10],rcx
      { return _M_dataplus._M_p; }
    49e0:	48 89 54 24 08       	mov    QWORD PTR [rsp+0x8],rdx
    49e5:	ff 50 18             	call   QWORD PTR [rax+0x18]
    49e8:	48 8b 4c 24 10       	mov    rcx,QWORD PTR [rsp+0x10]
    49ed:	4c 8b 4c 24 18       	mov    r9,QWORD PTR [rsp+0x18]
    49f2:	4d 89 e8             	mov    r8,r13
    49f5:	48 8b 54 24 08       	mov    rdx,QWORD PTR [rsp+0x8]
    49fa:	0f be f0             	movsx  esi,al
    49fd:	4c 89 f7             	mov    rdi,r14
    4a00:	e8 9b 71 00 00       	call   bba0 <char* std::__add_grouping<char>(char*, char, char const*, unsigned long, char const*, char const*)>
	  if (__r)
    4a05:	4c 8b 5c 24 20       	mov    r11,QWORD PTR [rsp+0x20]
	  auto __end = std::__add_grouping(__p, __np.thousands_sep(),
    4a0a:	48 89 c1             	mov    rcx,rax
	  if (__r)
    4a0d:	4d 85 db             	test   r11,r11
    4a10:	74 20                	je     4a32 <std::__format::__formatter_fp<char>::_M_localize[abi:cxx11](std::basic_string_view<char, std::char_traits<char> >, char, std::locale const&) const [clone .isra.0]+0x1c2>
	      if (__d != __str.npos)
    4a12:	4c 8b 54 24 28       	mov    r10,QWORD PTR [rsp+0x28]
    4a17:	49 83 fa ff          	cmp    r10,0xffffffffffffffff
    4a1b:	74 0f                	je     4a2c <std::__format::__formatter_fp<char>::_M_localize[abi:cxx11](std::basic_string_view<char, std::char_traits<char> >, char, std::locale const&) const [clone .isra.0]+0x1bc>
		  *__end = __point;
    4a1d:	0f b6 04 24          	movzx  eax,BYTE PTR [rsp]
		  ++__end;
    4a21:	48 83 c1 01          	add    rcx,0x1
		  ++__e;
    4a25:	49 83 c4 01          	add    r12,0x1
		  *__end = __point;
    4a29:	88 41 ff             	mov    BYTE PTR [rcx-0x1],al
	      if (__r > 1)
    4a2c:	49 83 fb 01          	cmp    r11,0x1
    4a30:	75 7e                	jne    4ab0 <std::__format::__formatter_fp<char>::_M_localize[abi:cxx11](std::basic_string_view<char, std::char_traits<char> >, char, std::locale const&) const [clone .isra.0]+0x240>
	__c1 = __c2;
    4a32:	48 8b 03             	mov    rax,QWORD PTR [rbx]
	  return (__end - __p);
    4a35:	4c 29 f1             	sub    rcx,r14
      { _M_string_length = __length; }
    4a38:	48 89 4b 08          	mov    QWORD PTR [rbx+0x8],rcx
    4a3c:	c6 04 08 00          	mov    BYTE PTR [rax+rcx*1],0x0
    4a40:	e9 db fe ff ff       	jmp    4920 <std::__format::__formatter_fp<char>::_M_localize[abi:cxx11](std::basic_string_view<char, std::char_traits<char> >, char, std::locale const&) const [clone .isra.0]+0xb0>
    4a45:	0f 1f 00             	nop    DWORD PTR [rax]
      size_type __ret = npos;
    4a48:	49 c7 c2 ff ff ff ff 	mov    r10,0xffffffffffffffff
	  if (__p)
    4a4f:	48 85 c0             	test   rax,rax
    4a52:	0f 85 33 ff ff ff    	jne    498b <std::__format::__formatter_fp<char>::_M_localize[abi:cxx11](std::basic_string_view<char, std::char_traits<char> >, char, std::locale const&) const [clone .isra.0]+0x11b>
    4a58:	0f 1f 84 00 00 00 00 	nop    DWORD PTR [rax+rax*1+0x0]
    4a5f:	00 
	__lstr.__resize_and_overwrite(__e * 2 + __r, __overwrite);
    4a60:	48 8d 74 2d 00       	lea    rsi,[rbp+rbp*1+0x0]
    4a65:	48 89 df             	mov    rdi,rbx
	  auto __end = std::__add_grouping(__p, __np.thousands_sep(),
    4a68:	4c 01 ed             	add    rbp,r13
    4a6b:	e8 c0 11 00 00       	call   5c30 <std::__cxx11::basic_string<char, std::char_traits<char>, std::allocator<char> >::reserve(unsigned long)>
      { return _M_string_length; }
    4a70:	48 8b 4c 24 38       	mov    rcx,QWORD PTR [rsp+0x38]
    4a75:	49 8b 07             	mov    rax,QWORD PTR [r15]
    4a78:	4c 89 ff             	mov    rdi,r15
      { return _M_dataplus._M_p; }
    4a7b:	4c 8b 33             	mov    r14,QWORD PTR [rbx]
    4a7e:	4c 8b 64 24 30       	mov    r12,QWORD PTR [rsp+0x30]
      { return _M_string_length; }
    4a83:	48 89 0c 24          	mov    QWORD PTR [rsp],rcx
    4a87:	ff 50 18             	call   QWORD PTR [rax+0x18]
    4a8a:	48 8b 0c 24          	mov    rcx,QWORD PTR [rsp]
    4a8e:	49 89 e9             	mov    r9,rbp
    4a91:	4d 89 e8             	mov    r8,r13
    4a94:	0f be f0             	movsx  esi,al
    4a97:	4c 89 e2             	mov    rdx,r12
    4a9a:	4c 89 f7             	mov    rdi,r14
    4a9d:	e8 fe 70 00 00       	call   bba0 <char* std::__add_grouping<char>(char*, char, char const*, unsigned long, char const*, char const*)>
    4aa2:	48 89 c1             	mov    rcx,rax
    4aa5:	eb 8b                	jmp    4a32 <std::__format::__formatter_fp<char>::_M_localize[abi:cxx11](std::basic_string_view<char, std::char_traits<char> >, char, std::locale const&) const [clone .isra.0]+0x1c2>
    4aa7:	66 0f 1f 84 00 00 00 	nop    WORD PTR [rax+rax*1+0x0]
    4aae:	00 00 
    if (__pos > __size)
    4ab0:	4c 39 e5             	cmp    rbp,r12
    4ab3:	0f 82 7e e9 ff ff    	jb     3437 <std::__format::__formatter_fp<char>::_M_localize[abi:cxx11](std::basic_string_view<char, std::char_traits<char> >, char, std::locale const&) const [clone .isra.0] [clone .cold]+0x5>
	if (__n == 0)
    4ab9:	4c 29 e5             	sub    rbp,r12
    4abc:	75 12                	jne    4ad0 <std::__format::__formatter_fp<char>::_M_localize[abi:cxx11](std::basic_string_view<char, std::char_traits<char> >, char, std::locale const&) const [clone .isra.0]+0x260>
		__end += __str.copy(__end, __str.npos, __e);
    4abe:	48 01 e9             	add    rcx,rbp
    4ac1:	e9 6c ff ff ff       	jmp    4a32 <std::__format::__formatter_fp<char>::_M_localize[abi:cxx11](std::basic_string_view<char, std::char_traits<char> >, char, std::locale const&) const [clone .isra.0]+0x1c2>
    4ac6:	66 2e 0f 1f 84 00 00 	cs nop WORD PTR [rax+rax*1+0x0]
    4acd:	00 00 00 
	return static_cast<char_type*>(__builtin_memcpy(__s1, __s2, __n));
    4ad0:	48 89 cf             	mov    rdi,rcx
	__glibcxx_requires_string_len(__str, __n);
	__pos = std::__sv_check(size(), __pos, "basic_string_view::copy");
	const size_type __rlen = std::min<size_t>(__n, _M_len - __pos);
	// _GLIBCXX_RESOLVE_LIB_DEFECTS
	// 2777. basic_string_view::copy should use char_traits::copy
	traits_type::copy(__str, data() + __pos, __rlen);
    4ad3:	4b 8d 74 25 00       	lea    rsi,[r13+r12*1+0x0]
    4ad8:	48 89 ea             	mov    rdx,rbp
    4adb:	e8 d0 e6 ff ff       	call   31b0 <memcpy@plt>
    4ae0:	48 89 c1             	mov    rcx,rax
    4ae3:	eb d9                	jmp    4abe <std::__format::__formatter_fp<char>::_M_localize[abi:cxx11](std::basic_string_view<char, std::char_traits<char> >, char, std::locale const&) const [clone .isra.0]+0x24e>
    4ae5:	0f 1f 00             	nop    DWORD PTR [rax]
    4ae8:	4d 89 d4             	mov    r12,r10
    4aeb:	e9 a8 fe ff ff       	jmp    4998 <std::__format::__formatter_fp<char>::_M_localize[abi:cxx11](std::basic_string_view<char, std::char_traits<char> >, char, std::locale const&) const [clone .isra.0]+0x128>

0000000000004af0 <std::thread::_M_thread_deps_never_run()>:
    }
    4af0:	c3                   	ret
    4af1:	66 2e 0f 1f 84 00 00 	cs nop WORD PTR [rax+rax*1+0x0]
    4af8:	00 00 00 
    4afb:	0f 1f 44 00 00       	nop    DWORD PTR [rax+rax*1+0x0]

0000000000004b00 <std::__format::_Sink<char>::_M_reserve(unsigned long)>:
      _M_reserve(size_t __n)
    4b00:	53                   	push   rbx
    4b01:	48 89 f3             	mov    rbx,rsi
    4b04:	48 89 f8             	mov    rax,rdi
    4b07:	48 83 ec 10          	sub    rsp,0x10
	{ return this->_M_extent_value; }
    4b0b:	48 8b 4f 10          	mov    rcx,QWORD PTR [rdi+0x10]
    { return __lhs.base() - __rhs.base(); }
    4b0f:	48 8b 57 18          	mov    rdx,QWORD PTR [rdi+0x18]
    4b13:	48 2b 57 08          	sub    rdx,QWORD PTR [rdi+0x8]
	  __count = this->size() - __offset;
    4b17:	48 89 ce             	mov    rsi,rcx
    4b1a:	48 29 d6             	sub    rsi,rdx
	if (__n <= _M_unused().size())
    4b1d:	48 39 de             	cmp    rsi,rbx
    4b20:	73 28                	jae    4b4a <std::__format::_Sink<char>::_M_reserve(unsigned long)+0x4a>
	if (__n <= _M_span.size()) // Cannot meet the request.
    4b22:	48 39 d9             	cmp    rcx,rbx
    4b25:	72 29                	jb     4b50 <std::__format::_Sink<char>::_M_reserve(unsigned long)+0x50>
	    _M_overflow(); // Make more space available.
    4b27:	48 8b 17             	mov    rdx,QWORD PTR [rdi]
    4b2a:	48 89 7c 24 08       	mov    QWORD PTR [rsp+0x8],rdi
    4b2f:	ff 12                	call   QWORD PTR [rdx]
    4b31:	48 8b 44 24 08       	mov    rax,QWORD PTR [rsp+0x8]
    4b36:	48 8b 50 10          	mov    rdx,QWORD PTR [rax+0x10]
    4b3a:	48 8b 48 18          	mov    rcx,QWORD PTR [rax+0x18]
    4b3e:	48 2b 48 08          	sub    rcx,QWORD PTR [rax+0x8]
    4b42:	48 29 ca             	sub    rdx,rcx
	    if (__n <= _M_unused().size())
    4b45:	48 39 da             	cmp    rdx,rbx
    4b48:	72 06                	jb     4b50 <std::__format::_Sink<char>::_M_reserve(unsigned long)+0x50>
      }
    4b4a:	48 83 c4 10          	add    rsp,0x10
    4b4e:	5b                   	pop    rbx
    4b4f:	c3                   	ret
    4b50:	48 83 c4 10          	add    rsp,0x10
	return { nullptr };
    4b54:	31 c0                	xor    eax,eax
      }
    4b56:	5b                   	pop    rbx
    4b57:	c3                   	ret
    4b58:	0f 1f 84 00 00 00 00 	nop    DWORD PTR [rax+rax*1+0x0]
    4b5f:	00 

0000000000004b60 <std::__format::_Sink<char>::_M_bump(unsigned long)>:
      { _M_current += __n; return *this; }
    4b60:	48 01 77 18          	add    QWORD PTR [rdi+0x18],rsi
      { _M_next += __n; }
    4b64:	c3                   	ret
    4b65:	66 2e 0f 1f 84 00 00 	cs nop WORD PTR [rax+rax*1+0x0]
    4b6c:	00 00 00 
    4b6f:	90                   	nop

0000000000004b70 <std::thread::_State_impl<std::thread::_Invoker<std::tuple<non_atomic_write> > >::~_State_impl()>:
      struct _State_impl : public _State
    4b70:	48 8d 05 71 6d 01 00 	lea    rax,[rip+0x16d71]        # 1b8e8 <vtable for std::thread::_State_impl<std::thread::_Invoker<std::tuple<non_atomic_write> > >+0x10>
    4b77:	48 89 07             	mov    QWORD PTR [rdi],rax
    4b7a:	e9 81 e5 ff ff       	jmp    3100 <std::thread::_State::~_State()@plt>
    4b7f:	90                   	nop

0000000000004b80 <std::thread::_State_impl<std::thread::_Invoker<std::tuple<non_atomic_write> > >::~_State_impl()>:
    4b80:	48 8d 05 61 6d 01 00 	lea    rax,[rip+0x16d61]        # 1b8e8 <vtable for std::thread::_State_impl<std::thread::_Invoker<std::tuple<non_atomic_write> > >+0x10>
    4b87:	53                   	push   rbx
    4b88:	48 89 fb             	mov    rbx,rdi
    4b8b:	48 89 07             	mov    QWORD PTR [rdi],rax
    4b8e:	e8 6d e5 ff ff       	call   3100 <std::thread::_State::~_State()@plt>
    4b93:	48 89 df             	mov    rdi,rbx
    4b96:	be 20 00 00 00       	mov    esi,0x20
    4b9b:	5b                   	pop    rbx
    4b9c:	e9 5f e6 ff ff       	jmp    3200 <operator delete(void*, unsigned long)@plt>
    4ba1:	66 2e 0f 1f 84 00 00 	cs nop WORD PTR [rax+rax*1+0x0]
    4ba8:	00 00 00 
    4bab:	0f 1f 44 00 00       	nop    DWORD PTR [rax+rax*1+0x0]

0000000000004bb0 <std::thread::_State_impl<std::thread::_Invoker<std::tuple<sequential_relaxed_read> > >::~_State_impl()>:
    4bb0:	48 8d 05 49 6e 01 00 	lea    rax,[rip+0x16e49]        # 1ba00 <vtable for std::thread::_State_impl<std::thread::_Invoker<std::tuple<sequential_relaxed_read> > >+0x10>
    4bb7:	48 89 07             	mov    QWORD PTR [rdi],rax
    4bba:	e9 41 e5 ff ff       	jmp    3100 <std::thread::_State::~_State()@plt>
    4bbf:	90                   	nop

0000000000004bc0 <std::thread::_State_impl<std::thread::_Invoker<std::tuple<sequential_relaxed_read> > >::~_State_impl()>:
    4bc0:	48 8d 05 39 6e 01 00 	lea    rax,[rip+0x16e39]        # 1ba00 <vtable for std::thread::_State_impl<std::thread::_Invoker<std::tuple<sequential_relaxed_read> > >+0x10>
    4bc7:	53                   	push   rbx
    4bc8:	48 89 fb             	mov    rbx,rdi
    4bcb:	48 89 07             	mov    QWORD PTR [rdi],rax
    4bce:	e8 2d e5 ff ff       	call   3100 <std::thread::_State::~_State()@plt>
    4bd3:	48 89 df             	mov    rdi,rbx
    4bd6:	be 20 00 00 00       	mov    esi,0x20
    4bdb:	5b                   	pop    rbx
    4bdc:	e9 1f e6 ff ff       	jmp    3200 <operator delete(void*, unsigned long)@plt>
    4be1:	66 2e 0f 1f 84 00 00 	cs nop WORD PTR [rax+rax*1+0x0]
    4be8:	00 00 00 
    4beb:	0f 1f 44 00 00       	nop    DWORD PTR [rax+rax*1+0x0]

0000000000004bf0 <std::thread::_State_impl<std::thread::_Invoker<std::tuple<relaxed_sequential_write> > >::~_State_impl()>:
    4bf0:	48 8d 05 e1 6d 01 00 	lea    rax,[rip+0x16de1]        # 1b9d8 <vtable for std::thread::_State_impl<std::thread::_Invoker<std::tuple<relaxed_sequential_write> > >+0x10>
    4bf7:	48 89 07             	mov    QWORD PTR [rdi],rax
    4bfa:	e9 01 e5 ff ff       	jmp    3100 <std::thread::_State::~_State()@plt>
    4bff:	90                   	nop

0000000000004c00 <std::thread::_State_impl<std::thread::_Invoker<std::tuple<relaxed_sequential_write> > >::~_State_impl()>:
    4c00:	48 8d 05 d1 6d 01 00 	lea    rax,[rip+0x16dd1]        # 1b9d8 <vtable for std::thread::_State_impl<std::thread::_Invoker<std::tuple<relaxed_sequential_write> > >+0x10>
    4c07:	53                   	push   rbx
    4c08:	48 89 fb             	mov    rbx,rdi
    4c0b:	48 89 07             	mov    QWORD PTR [rdi],rax
    4c0e:	e8 ed e4 ff ff       	call   3100 <std::thread::_State::~_State()@plt>
    4c13:	48 89 df             	mov    rdi,rbx
    4c16:	be 20 00 00 00       	mov    esi,0x20
    4c1b:	5b                   	pop    rbx
    4c1c:	e9 df e5 ff ff       	jmp    3200 <operator delete(void*, unsigned long)@plt>
    4c21:	66 2e 0f 1f 84 00 00 	cs nop WORD PTR [rax+rax*1+0x0]
    4c28:	00 00 00 
    4c2b:	0f 1f 44 00 00       	nop    DWORD PTR [rax+rax*1+0x0]

0000000000004c30 <std::thread::_State_impl<std::thread::_Invoker<std::tuple<acquire_relaxed_read> > >::~_State_impl()>:
    4c30:	48 8d 05 79 6d 01 00 	lea    rax,[rip+0x16d79]        # 1b9b0 <vtable for std::thread::_State_impl<std::thread::_Invoker<std::tuple<acquire_relaxed_read> > >+0x10>
    4c37:	48 89 07             	mov    QWORD PTR [rdi],rax
    4c3a:	e9 c1 e4 ff ff       	jmp    3100 <std::thread::_State::~_State()@plt>
    4c3f:	90                   	nop

0000000000004c40 <std::thread::_State_impl<std::thread::_Invoker<std::tuple<acquire_relaxed_read> > >::~_State_impl()>:
    4c40:	48 8d 05 69 6d 01 00 	lea    rax,[rip+0x16d69]        # 1b9b0 <vtable for std::thread::_State_impl<std::thread::_Invoker<std::tuple<acquire_relaxed_read> > >+0x10>
    4c47:	53                   	push   rbx
    4c48:	48 89 fb             	mov    rbx,rdi
    4c4b:	48 89 07             	mov    QWORD PTR [rdi],rax
    4c4e:	e8 ad e4 ff ff       	call   3100 <std::thread::_State::~_State()@plt>
    4c53:	48 89 df             	mov    rdi,rbx
    4c56:	be 20 00 00 00       	mov    esi,0x20
    4c5b:	5b                   	pop    rbx
    4c5c:	e9 9f e5 ff ff       	jmp    3200 <operator delete(void*, unsigned long)@plt>
    4c61:	66 2e 0f 1f 84 00 00 	cs nop WORD PTR [rax+rax*1+0x0]
    4c68:	00 00 00 
    4c6b:	0f 1f 44 00 00       	nop    DWORD PTR [rax+rax*1+0x0]

0000000000004c70 <std::thread::_State_impl<std::thread::_Invoker<std::tuple<relaxed_release_write> > >::~_State_impl()>:
    4c70:	48 8d 05 11 6d 01 00 	lea    rax,[rip+0x16d11]        # 1b988 <vtable for std::thread::_State_impl<std::thread::_Invoker<std::tuple<relaxed_release_write> > >+0x10>
    4c77:	48 89 07             	mov    QWORD PTR [rdi],rax
    4c7a:	e9 81 e4 ff ff       	jmp    3100 <std::thread::_State::~_State()@plt>
    4c7f:	90                   	nop

0000000000004c80 <std::thread::_State_impl<std::thread::_Invoker<std::tuple<relaxed_release_write> > >::~_State_impl()>:
    4c80:	48 8d 05 01 6d 01 00 	lea    rax,[rip+0x16d01]        # 1b988 <vtable for std::thread::_State_impl<std::thread::_Invoker<std::tuple<relaxed_release_write> > >+0x10>
    4c87:	53                   	push   rbx
    4c88:	48 89 fb             	mov    rbx,rdi
    4c8b:	48 89 07             	mov    QWORD PTR [rdi],rax
    4c8e:	e8 6d e4 ff ff       	call   3100 <std::thread::_State::~_State()@plt>
    4c93:	48 89 df             	mov    rdi,rbx
    4c96:	be 20 00 00 00       	mov    esi,0x20
    4c9b:	5b                   	pop    rbx
    4c9c:	e9 5f e5 ff ff       	jmp    3200 <operator delete(void*, unsigned long)@plt>
    4ca1:	66 2e 0f 1f 84 00 00 	cs nop WORD PTR [rax+rax*1+0x0]
    4ca8:	00 00 00 
    4cab:	0f 1f 44 00 00       	nop    DWORD PTR [rax+rax*1+0x0]

0000000000004cb0 <std::thread::_State_impl<std::thread::_Invoker<std::tuple<relaxed_relaxed_read> > >::~_State_impl()>:
    4cb0:	48 8d 05 a9 6c 01 00 	lea    rax,[rip+0x16ca9]        # 1b960 <vtable for std::thread::_State_impl<std::thread::_Invoker<std::tuple<relaxed_relaxed_read> > >+0x10>
    4cb7:	48 89 07             	mov    QWORD PTR [rdi],rax
    4cba:	e9 41 e4 ff ff       	jmp    3100 <std::thread::_State::~_State()@plt>
    4cbf:	90                   	nop

0000000000004cc0 <std::thread::_State_impl<std::thread::_Invoker<std::tuple<relaxed_relaxed_read> > >::~_State_impl()>:
    4cc0:	48 8d 05 99 6c 01 00 	lea    rax,[rip+0x16c99]        # 1b960 <vtable for std::thread::_State_impl<std::thread::_Invoker<std::tuple<relaxed_relaxed_read> > >+0x10>
    4cc7:	53                   	push   rbx
    4cc8:	48 89 fb             	mov    rbx,rdi
    4ccb:	48 89 07             	mov    QWORD PTR [rdi],rax
    4cce:	e8 2d e4 ff ff       	call   3100 <std::thread::_State::~_State()@plt>
    4cd3:	48 89 df             	mov    rdi,rbx
    4cd6:	be 20 00 00 00       	mov    esi,0x20
    4cdb:	5b                   	pop    rbx
    4cdc:	e9 1f e5 ff ff       	jmp    3200 <operator delete(void*, unsigned long)@plt>
    4ce1:	66 2e 0f 1f 84 00 00 	cs nop WORD PTR [rax+rax*1+0x0]
    4ce8:	00 00 00 
    4ceb:	0f 1f 44 00 00       	nop    DWORD PTR [rax+rax*1+0x0]

0000000000004cf0 <std::thread::_State_impl<std::thread::_Invoker<std::tuple<relaxed_relaxed_write> > >::~_State_impl()>:
    4cf0:	48 8d 05 41 6c 01 00 	lea    rax,[rip+0x16c41]        # 1b938 <vtable for std::thread::_State_impl<std::thread::_Invoker<std::tuple<relaxed_relaxed_write> > >+0x10>
    4cf7:	48 89 07             	mov    QWORD PTR [rdi],rax
    4cfa:	e9 01 e4 ff ff       	jmp    3100 <std::thread::_State::~_State()@plt>
    4cff:	90                   	nop

0000000000004d00 <std::thread::_State_impl<std::thread::_Invoker<std::tuple<relaxed_relaxed_write> > >::~_State_impl()>:
    4d00:	48 8d 05 31 6c 01 00 	lea    rax,[rip+0x16c31]        # 1b938 <vtable for std::thread::_State_impl<std::thread::_Invoker<std::tuple<relaxed_relaxed_write> > >+0x10>
    4d07:	53                   	push   rbx
    4d08:	48 89 fb             	mov    rbx,rdi
    4d0b:	48 89 07             	mov    QWORD PTR [rdi],rax
    4d0e:	e8 ed e3 ff ff       	call   3100 <std::thread::_State::~_State()@plt>
    4d13:	48 89 df             	mov    rdi,rbx
    4d16:	be 20 00 00 00       	mov    esi,0x20
    4d1b:	5b                   	pop    rbx
    4d1c:	e9 df e4 ff ff       	jmp    3200 <operator delete(void*, unsigned long)@plt>
    4d21:	66 2e 0f 1f 84 00 00 	cs nop WORD PTR [rax+rax*1+0x0]
    4d28:	00 00 00 
    4d2b:	0f 1f 44 00 00       	nop    DWORD PTR [rax+rax*1+0x0]

0000000000004d30 <std::thread::_State_impl<std::thread::_Invoker<std::tuple<non_atomic_read> > >::~_State_impl()>:
    4d30:	48 8d 05 d9 6b 01 00 	lea    rax,[rip+0x16bd9]        # 1b910 <vtable for std::thread::_State_impl<std::thread::_Invoker<std::tuple<non_atomic_read> > >+0x10>
    4d37:	48 89 07             	mov    QWORD PTR [rdi],rax
    4d3a:	e9 c1 e3 ff ff       	jmp    3100 <std::thread::_State::~_State()@plt>
    4d3f:	90                   	nop

0000000000004d40 <std::thread::_State_impl<std::thread::_Invoker<std::tuple<non_atomic_read> > >::~_State_impl()>:
    4d40:	48 8d 05 c9 6b 01 00 	lea    rax,[rip+0x16bc9]        # 1b910 <vtable for std::thread::_State_impl<std::thread::_Invoker<std::tuple<non_atomic_read> > >+0x10>
    4d47:	53                   	push   rbx
    4d48:	48 89 fb             	mov    rbx,rdi
    4d4b:	48 89 07             	mov    QWORD PTR [rdi],rax
    4d4e:	e8 ad e3 ff ff       	call   3100 <std::thread::_State::~_State()@plt>
    4d53:	48 89 df             	mov    rdi,rbx
    4d56:	be 20 00 00 00       	mov    esi,0x20
    4d5b:	5b                   	pop    rbx
    4d5c:	e9 9f e4 ff ff       	jmp    3200 <operator delete(void*, unsigned long)@plt>
    4d61:	66 2e 0f 1f 84 00 00 	cs nop WORD PTR [rax+rax*1+0x0]
    4d68:	00 00 00 
    4d6b:	0f 1f 44 00 00       	nop    DWORD PTR [rax+rax*1+0x0]

0000000000004d70 <std::__format::_Iter_sink<char, std::ostream_iterator<char, char, std::char_traits<char> > >::_M_overflow()>:
      _M_overflow() override
    4d70:	41 57                	push   r15
    4d72:	41 56                	push   r14
    4d74:	41 55                	push   r13
    4d76:	41 54                	push   r12
    4d78:	55                   	push   rbp
    4d79:	48 89 fd             	mov    rbp,rdi
    4d7c:	53                   	push   rbx
    4d7d:	48 83 ec 38          	sub    rsp,0x38
    { return __lhs.base() - __rhs.base(); }
    4d81:	4c 8b 6f 18          	mov    r13,QWORD PTR [rdi+0x18]
      : _M_current(__i) { }
    4d85:	48 8b 5f 08          	mov    rbx,QWORD PTR [rdi+0x8]
	if (_M_max < 0) // No maximum.
    4d89:	4c 8b a7 30 01 00 00 	mov    r12,QWORD PTR [rdi+0x130]
    { return __lhs.base() - __rhs.base(); }
    4d90:	4d 89 ee             	mov    r14,r13
    4d93:	49 29 de             	sub    r14,rbx
    4d96:	4d 85 e4             	test   r12,r12
    4d99:	0f 88 e9 00 00 00    	js     4e88 <std::__format::_Iter_sink<char, std::ostream_iterator<char, char, std::char_traits<char> > >::_M_overflow()+0x118>
	else if (_M_count < static_cast<size_t>(_M_max))
    4d9f:	48 8b 87 38 01 00 00 	mov    rax,QWORD PTR [rdi+0x138]
    4da6:	4c 39 e0             	cmp    rax,r12
    4da9:	0f 83 b9 00 00 00    	jae    4e68 <std::__format::_Iter_sink<char, std::ostream_iterator<char, char, std::char_traits<char> > >::_M_overflow()+0xf8>
	    auto __max = _M_max - _M_count;
    4daf:	49 29 c4             	sub    r12,rax
    4db2:	f3 0f 6f 87 20 01 00 	movdqu xmm0,XMMWORD PTR [rdi+0x120]
    4db9:	00 
	    if (__max < __s.size())
    4dba:	4d 39 f4             	cmp    r12,r14
    4dbd:	4d 0f 47 e6          	cmova  r12,r14
      ostream_iterator(const ostream_iterator& __obj) _GLIBCXX_NOEXCEPT
    4dc1:	0f 12 e0             	movhlps xmm4,xmm0
      : _M_stream(__obj._M_stream), _M_string(__obj._M_string)  { }
    4dc4:	0f 29 44 24 10       	movaps XMMWORD PTR [rsp+0x10],xmm0
    4dc9:	66 49 0f 7e c7       	movq   r15,xmm0
			sizeof(_ValueTypeI) * __num);
		  return {__first + __num, __result + __num};
		}
	    }

	  for (auto __n = __last - __first; __n > 0; --__n)
    4dce:	66 49 0f 7e e5       	movq   r13,xmm4
    4dd3:	4d 85 e4             	test   r12,r12
    4dd6:	0f 8e 7f 00 00 00    	jle    4e5b <std::__format::_Iter_sink<char, std::ostream_iterator<char, char, std::char_traits<char> > >::_M_overflow()+0xeb>
  template<typename _Traits>
    inline basic_ostream<char, _Traits>&
    operator<<(basic_ostream<char, _Traits>& __out, char __c)
    {
      if (__out.width() != 0)
	return __ostream_insert(__out, &__c, 1);
    4ddc:	48 8d 44 24 2f       	lea    rax,[rsp+0x2f]
    4de1:	49 01 dc             	add    r12,rbx
    4de4:	48 89 44 24 08       	mov    QWORD PTR [rsp+0x8],rax
    4de9:	eb 3b                	jmp    4e26 <std::__format::_Iter_sink<char, std::ostream_iterator<char, char, std::char_traits<char> > >::_M_overflow()+0xb6>
    4deb:	0f 1f 44 00 00       	nop    DWORD PTR [rax+rax*1+0x0]
    4df0:	48 8b 74 24 08       	mov    rsi,QWORD PTR [rsp+0x8]
    4df5:	ba 01 00 00 00       	mov    edx,0x1
    4dfa:	4c 89 ff             	mov    rdi,r15
    4dfd:	e8 3e e4 ff ff       	call   3240 <std::basic_ostream<char, std::char_traits<char> >& std::__ostream_insert<char, std::char_traits<char> >(std::basic_ostream<char, std::char_traits<char> >&, char const*, long)@plt>
      {
	__glibcxx_requires_cond(_M_stream != 0,
				_M_message(__gnu_debug::__msg_output_ostream)
				._M_iterator(*this));
	*_M_stream << __value;
	if (_M_string)
    4e02:	4d 85 ed             	test   r13,r13
    4e05:	74 16                	je     4e1d <std::__format::_Iter_sink<char, std::ostream_iterator<char, char, std::char_traits<char> > >::_M_overflow()+0xad>
	return __builtin_strlen(__s);
    4e07:	4c 89 ef             	mov    rdi,r13
    4e0a:	e8 e1 e2 ff ff       	call   30f0 <strlen@plt>
    operator<<(basic_ostream<char, _Traits>& __out, const char* __s)
    {
      if (!__s)
	__out.setstate(ios_base::badbit);
      else
	__ostream_insert(__out, __s,
    4e0f:	4c 89 ee             	mov    rsi,r13
    4e12:	4c 89 ff             	mov    rdi,r15
    4e15:	48 89 c2             	mov    rdx,rax
    4e18:	e8 23 e4 ff ff       	call   3240 <std::basic_ostream<char, std::char_traits<char> >& std::__ostream_insert<char, std::char_traits<char> >(std::basic_ostream<char, std::char_traits<char> >&, char const*, long)@plt>
	    {
	      if constexpr (_IsMove)
		*__result = std::move(*__first);
	      else
		*__result = *__first;
	      ++__first;
    4e1d:	48 83 c3 01          	add    rbx,0x1
	  for (auto __n = __last - __first; __n > 0; --__n)
    4e21:	4c 39 e3             	cmp    rbx,r12
    4e24:	74 2a                	je     4e50 <std::__format::_Iter_sink<char, std::ostream_iterator<char, char, std::char_traits<char> > >::_M_overflow()+0xe0>
    4e26:	0f be 33             	movsx  esi,BYTE PTR [rbx]
      operator=(const _Tp& __value)
    4e29:	40 88 74 24 2f       	mov    BYTE PTR [rsp+0x2f],sil
      if (__out.width() != 0)
    4e2e:	49 8b 07             	mov    rax,QWORD PTR [r15]
     *
     *  <em>Minimum field width</em> refers to the number of characters.
    */
    streamsize
    width() const
    { return _M_width; }
    4e31:	48 8b 40 e8          	mov    rax,QWORD PTR [rax-0x18]
    4e35:	49 83 7c 07 10 00    	cmp    QWORD PTR [r15+rax*1+0x10],0x0
    4e3b:	75 b3                	jne    4df0 <std::__format::_Iter_sink<char, std::ostream_iterator<char, char, std::char_traits<char> > >::_M_overflow()+0x80>
      __out.put(__c);
    4e3d:	4c 89 ff             	mov    rdi,r15
    4e40:	e8 eb e1 ff ff       	call   3030 <std::basic_ostream<char, std::char_traits<char> >::put(char)@plt>
      return __out;
    4e45:	eb bb                	jmp    4e02 <std::__format::_Iter_sink<char, std::ostream_iterator<char, char, std::char_traits<char> > >::_M_overflow()+0x92>
    4e47:	66 0f 1f 84 00 00 00 	nop    WORD PTR [rax+rax*1+0x0]
    4e4e:	00 00 
      : _M_current(__i) { }
    4e50:	48 8b 5d 08          	mov    rbx,QWORD PTR [rbp+0x8]
	_M_count += __s.size();
    4e54:	48 8b 85 38 01 00 00 	mov    rax,QWORD PTR [rbp+0x138]
	    _M_out = ranges::copy(__first, std::move(_M_out)).out;
    4e5b:	66 0f 6f 54 24 10    	movdqa xmm2,XMMWORD PTR [rsp+0x10]
    4e61:	0f 11 95 20 01 00 00 	movups XMMWORD PTR [rbp+0x120],xmm2
	_M_count += __s.size();
    4e68:	49 01 c6             	add    r14,rax
      { _M_next = _M_span.begin(); }
    4e6b:	48 89 5d 18          	mov    QWORD PTR [rbp+0x18],rbx
	_M_count += __s.size();
    4e6f:	4c 89 b5 38 01 00 00 	mov    QWORD PTR [rbp+0x138],r14
      }
    4e76:	48 83 c4 38          	add    rsp,0x38
    4e7a:	5b                   	pop    rbx
    4e7b:	5d                   	pop    rbp
    4e7c:	41 5c                	pop    r12
    4e7e:	41 5d                	pop    r13
    4e80:	41 5e                	pop    r14
    4e82:	41 5f                	pop    r15
    4e84:	c3                   	ret
    4e85:	0f 1f 00             	nop    DWORD PTR [rax]
      : _M_stream(__obj._M_stream), _M_string(__obj._M_string)  { }
    4e88:	f3 0f 6f 8f 20 01 00 	movdqu xmm1,XMMWORD PTR [rdi+0x120]
    4e8f:	00 
    4e90:	0f 12 e9             	movhlps xmm5,xmm1
    4e93:	0f 29 4c 24 10       	movaps XMMWORD PTR [rsp+0x10],xmm1
    4e98:	66 49 0f 7e cf       	movq   r15,xmm1
    4e9d:	66 49 0f 7e ec       	movq   r12,xmm5
    4ea2:	4d 85 f6             	test   r14,r14
    4ea5:	7e 6d                	jle    4f14 <std::__format::_Iter_sink<char, std::ostream_iterator<char, char, std::char_traits<char> > >::_M_overflow()+0x1a4>
	return __ostream_insert(__out, &__c, 1);
    4ea7:	48 8d 44 24 2f       	lea    rax,[rsp+0x2f]
    4eac:	48 89 44 24 08       	mov    QWORD PTR [rsp+0x8],rax
    4eb1:	eb 3b                	jmp    4eee <std::__format::_Iter_sink<char, std::ostream_iterator<char, char, std::char_traits<char> > >::_M_overflow()+0x17e>
    4eb3:	0f 1f 44 00 00       	nop    DWORD PTR [rax+rax*1+0x0]
    4eb8:	48 8b 74 24 08       	mov    rsi,QWORD PTR [rsp+0x8]
    4ebd:	ba 01 00 00 00       	mov    edx,0x1
    4ec2:	4c 89 ff             	mov    rdi,r15
    4ec5:	e8 76 e3 ff ff       	call   3240 <std::basic_ostream<char, std::char_traits<char> >& std::__ostream_insert<char, std::char_traits<char> >(std::basic_ostream<char, std::char_traits<char> >&, char const*, long)@plt>
	if (_M_string)
    4eca:	4d 85 e4             	test   r12,r12
    4ecd:	74 16                	je     4ee5 <std::__format::_Iter_sink<char, std::ostream_iterator<char, char, std::char_traits<char> > >::_M_overflow()+0x175>
    4ecf:	4c 89 e7             	mov    rdi,r12
    4ed2:	e8 19 e2 ff ff       	call   30f0 <strlen@plt>
	__ostream_insert(__out, __s,
    4ed7:	4c 89 e6             	mov    rsi,r12
    4eda:	4c 89 ff             	mov    rdi,r15
    4edd:	48 89 c2             	mov    rdx,rax
    4ee0:	e8 5b e3 ff ff       	call   3240 <std::basic_ostream<char, std::char_traits<char> >& std::__ostream_insert<char, std::char_traits<char> >(std::basic_ostream<char, std::char_traits<char> >&, char const*, long)@plt>
	      ++__first;
    4ee5:	48 83 c3 01          	add    rbx,0x1
	  for (auto __n = __last - __first; __n > 0; --__n)
    4ee9:	49 39 dd             	cmp    r13,rbx
    4eec:	74 22                	je     4f10 <std::__format::_Iter_sink<char, std::ostream_iterator<char, char, std::char_traits<char> > >::_M_overflow()+0x1a0>
    4eee:	0f be 33             	movsx  esi,BYTE PTR [rbx]
      operator=(const _Tp& __value)
    4ef1:	40 88 74 24 2f       	mov    BYTE PTR [rsp+0x2f],sil
      if (__out.width() != 0)
    4ef6:	49 8b 07             	mov    rax,QWORD PTR [r15]
    4ef9:	48 8b 40 e8          	mov    rax,QWORD PTR [rax-0x18]
    4efd:	49 83 7c 07 10 00    	cmp    QWORD PTR [r15+rax*1+0x10],0x0
    4f03:	75 b3                	jne    4eb8 <std::__format::_Iter_sink<char, std::ostream_iterator<char, char, std::char_traits<char> > >::_M_overflow()+0x148>
      __out.put(__c);
    4f05:	4c 89 ff             	mov    rdi,r15
    4f08:	e8 23 e1 ff ff       	call   3030 <std::basic_ostream<char, std::char_traits<char> >::put(char)@plt>
      return __out;
    4f0d:	eb bb                	jmp    4eca <std::__format::_Iter_sink<char, std::ostream_iterator<char, char, std::char_traits<char> > >::_M_overflow()+0x15a>
    4f0f:	90                   	nop
    4f10:	48 8b 5d 08          	mov    rbx,QWORD PTR [rbp+0x8]
	  _M_out = ranges::copy(__s, std::move(_M_out)).out;
    4f14:	66 0f 6f 5c 24 10    	movdqa xmm3,XMMWORD PTR [rsp+0x10]
	_M_count += __s.size();
    4f1a:	48 8b 85 38 01 00 00 	mov    rax,QWORD PTR [rbp+0x138]
	  _M_out = ranges::copy(__s, std::move(_M_out)).out;
    4f21:	0f 11 9d 20 01 00 00 	movups XMMWORD PTR [rbp+0x120],xmm3
    4f28:	e9 3b ff ff ff       	jmp    4e68 <std::__format::_Iter_sink<char, std::ostream_iterator<char, char, std::char_traits<char> > >::_M_overflow()+0xf8>
    4f2d:	66 2e 0f 1f 84 00 00 	cs nop WORD PTR [rax+rax*1+0x0]
    4f34:	00 00 00 
    4f37:	66 0f 1f 84 00 00 00 	nop    WORD PTR [rax+rax*1+0x0]
    4f3e:	00 00 

0000000000004f40 <std::__format::_Iter_sink<char, std::__format::_Sink_iter<char> >::_M_overflow()>:
      _M_overflow() override
    4f40:	41 57                	push   r15
    4f42:	41 56                	push   r14
    4f44:	41 55                	push   r13
    4f46:	41 54                	push   r12
    4f48:	49 89 fc             	mov    r12,rdi
    4f4b:	55                   	push   rbp
    4f4c:	53                   	push   rbx
    4f4d:	48 83 ec 08          	sub    rsp,0x8
    { return __lhs.base() - __rhs.base(); }
    4f51:	4c 8b 7f 18          	mov    r15,QWORD PTR [rdi+0x18]
      : _M_current(__i) { }
    4f55:	48 8b 5f 08          	mov    rbx,QWORD PTR [rdi+0x8]
	if (_M_max < 0) // No maximum.
    4f59:	4c 8b af 28 01 00 00 	mov    r13,QWORD PTR [rdi+0x128]
    { return __lhs.base() - __rhs.base(); }
    4f60:	4d 89 fe             	mov    r14,r15
    4f63:	49 29 de             	sub    r14,rbx
    4f66:	4d 85 ed             	test   r13,r13
    4f69:	0f 88 c1 00 00 00    	js     5030 <std::__format::_Iter_sink<char, std::__format::_Sink_iter<char> >::_M_overflow()+0xf0>
	else if (_M_count < static_cast<size_t>(_M_max))
    4f6f:	48 8b 87 30 01 00 00 	mov    rax,QWORD PTR [rdi+0x130]
    4f76:	4c 39 e8             	cmp    rax,r13
    4f79:	0f 83 7e 00 00 00    	jae    4ffd <std::__format::_Iter_sink<char, std::__format::_Sink_iter<char> >::_M_overflow()+0xbd>
	    auto __max = _M_max - _M_count;
    4f7f:	49 29 c5             	sub    r13,rax
    4f82:	48 8b af 20 01 00 00 	mov    rbp,QWORD PTR [rdi+0x120]
	    if (__max < __s.size())
    4f89:	4d 39 f5             	cmp    r13,r14
    4f8c:	4d 0f 47 ee          	cmova  r13,r14
    4f90:	4d 85 ed             	test   r13,r13
    4f93:	7e 60                	jle    4ff5 <std::__format::_Iter_sink<char, std::__format::_Sink_iter<char> >::_M_overflow()+0xb5>
    4f95:	49 01 dd             	add    r13,rbx
    4f98:	66 66 2e 0f 1f 84 00 	data16 cs nop WORD PTR [rax+rax*1+0x0]
    4f9f:	00 00 00 00 
    4fa3:	66 66 2e 0f 1f 84 00 	data16 cs nop WORD PTR [rax+rax*1+0x0]
    4faa:	00 00 00 00 
    4fae:	66 66 2e 0f 1f 84 00 	data16 cs nop WORD PTR [rax+rax*1+0x0]
    4fb5:	00 00 00 00 
    4fb9:	0f 1f 80 00 00 00 00 	nop    DWORD PTR [rax+0x0]
      { return __normal_iterator(_M_current++); }
    4fc0:	48 8b 45 18          	mov    rax,QWORD PTR [rbp+0x18]
		*__result = *__first;
    4fc4:	0f b6 13             	movzx  edx,BYTE PTR [rbx]
    4fc7:	48 8d 48 01          	lea    rcx,[rax+0x1]
    4fcb:	48 89 4d 18          	mov    QWORD PTR [rbp+0x18],rcx
	*_M_next++ = __c;
    4fcf:	88 10                	mov    BYTE PTR [rax],dl
    { return __lhs.base() - __rhs.base(); }
    4fd1:	48 8b 45 18          	mov    rax,QWORD PTR [rbp+0x18]
    4fd5:	48 2b 45 08          	sub    rax,QWORD PTR [rbp+0x8]
	if (_M_next - _M_span.begin() == std::ssize(_M_span)) [[unlikely]]
    4fd9:	48 3b 45 10          	cmp    rax,QWORD PTR [rbp+0x10]
    4fdd:	74 41                	je     5020 <std::__format::_Iter_sink<char, std::__format::_Sink_iter<char> >::_M_overflow()+0xe0>
	      ++__first;
    4fdf:	48 83 c3 01          	add    rbx,0x1
	  for (auto __n = __last - __first; __n > 0; --__n)
    4fe3:	4c 39 eb             	cmp    rbx,r13
    4fe6:	75 d8                	jne    4fc0 <std::__format::_Iter_sink<char, std::__format::_Sink_iter<char> >::_M_overflow()+0x80>
      : _M_current(__i) { }
    4fe8:	49 8b 5c 24 08       	mov    rbx,QWORD PTR [r12+0x8]
	_M_count += __s.size();
    4fed:	49 8b 84 24 30 01 00 	mov    rax,QWORD PTR [r12+0x130]
    4ff4:	00 
	    _M_out = ranges::copy(__first, std::move(_M_out)).out;
    4ff5:	49 89 ac 24 20 01 00 	mov    QWORD PTR [r12+0x120],rbp
    4ffc:	00 
	_M_count += __s.size();
    4ffd:	49 01 c6             	add    r14,rax
      { _M_next = _M_span.begin(); }
    5000:	49 89 5c 24 18       	mov    QWORD PTR [r12+0x18],rbx
	_M_count += __s.size();
    5005:	4d 89 b4 24 30 01 00 	mov    QWORD PTR [r12+0x130],r14
    500c:	00 
      }
    500d:	48 83 c4 08          	add    rsp,0x8
    5011:	5b                   	pop    rbx
    5012:	5d                   	pop    rbp
    5013:	41 5c                	pop    r12
    5015:	41 5d                	pop    r13
    5017:	41 5e                	pop    r14
    5019:	41 5f                	pop    r15
    501b:	c3                   	ret
    501c:	0f 1f 40 00          	nop    DWORD PTR [rax+0x0]
	  _M_overflow();
    5020:	48 8b 45 00          	mov    rax,QWORD PTR [rbp+0x0]
    5024:	48 89 ef             	mov    rdi,rbp
    5027:	ff 10                	call   QWORD PTR [rax]
      }
    5029:	eb b4                	jmp    4fdf <std::__format::_Iter_sink<char, std::__format::_Sink_iter<char> >::_M_overflow()+0x9f>
    502b:	0f 1f 44 00 00       	nop    DWORD PTR [rax+rax*1+0x0]
    5030:	48 8b af 20 01 00 00 	mov    rbp,QWORD PTR [rdi+0x120]
    5037:	4d 85 f6             	test   r14,r14
    503a:	7e 31                	jle    506d <std::__format::_Iter_sink<char, std::__format::_Sink_iter<char> >::_M_overflow()+0x12d>
    503c:	0f 1f 40 00          	nop    DWORD PTR [rax+0x0]
      { return __normal_iterator(_M_current++); }
    5040:	48 8b 45 18          	mov    rax,QWORD PTR [rbp+0x18]
		*__result = *__first;
    5044:	0f b6 13             	movzx  edx,BYTE PTR [rbx]
    5047:	48 8d 48 01          	lea    rcx,[rax+0x1]
    504b:	48 89 4d 18          	mov    QWORD PTR [rbp+0x18],rcx
	*_M_next++ = __c;
    504f:	88 10                	mov    BYTE PTR [rax],dl
    { return __lhs.base() - __rhs.base(); }
    5051:	48 8b 45 18          	mov    rax,QWORD PTR [rbp+0x18]
    5055:	48 2b 45 08          	sub    rax,QWORD PTR [rbp+0x8]
	if (_M_next - _M_span.begin() == std::ssize(_M_span)) [[unlikely]]
    5059:	48 3b 45 10          	cmp    rax,QWORD PTR [rbp+0x10]
    505d:	74 29                	je     5088 <std::__format::_Iter_sink<char, std::__format::_Sink_iter<char> >::_M_overflow()+0x148>
	      ++__first;
    505f:	48 83 c3 01          	add    rbx,0x1
	  for (auto __n = __last - __first; __n > 0; --__n)
    5063:	49 39 df             	cmp    r15,rbx
    5066:	75 d8                	jne    5040 <std::__format::_Iter_sink<char, std::__format::_Sink_iter<char> >::_M_overflow()+0x100>
      : _M_current(__i) { }
    5068:	49 8b 5c 24 08       	mov    rbx,QWORD PTR [r12+0x8]
	  _M_out = ranges::copy(__s, std::move(_M_out)).out;
    506d:	49 89 ac 24 20 01 00 	mov    QWORD PTR [r12+0x120],rbp
    5074:	00 
	_M_count += __s.size();
    5075:	49 8b 84 24 30 01 00 	mov    rax,QWORD PTR [r12+0x130]
    507c:	00 
    507d:	e9 7b ff ff ff       	jmp    4ffd <std::__format::_Iter_sink<char, std::__format::_Sink_iter<char> >::_M_overflow()+0xbd>
    5082:	66 0f 1f 44 00 00    	nop    WORD PTR [rax+rax*1+0x0]
	  _M_overflow();
    5088:	48 8b 45 00          	mov    rax,QWORD PTR [rbp+0x0]
    508c:	48 89 ef             	mov    rdi,rbp
    508f:	ff 10                	call   QWORD PTR [rax]
      }
    5091:	eb cc                	jmp    505f <std::__format::_Iter_sink<char, std::__format::_Sink_iter<char> >::_M_overflow()+0x11f>
    5093:	66 2e 0f 1f 84 00 00 	cs nop WORD PTR [rax+rax*1+0x0]
    509a:	00 00 00 
    509d:	0f 1f 00             	nop    DWORD PTR [rax]

00000000000050a0 <std::__format::_Formatting_scanner<std::__format::_Sink_iter<char>, char>::_M_on_chars(char const*)>:
      _M_on_chars(iterator __last) override
    50a0:	41 56                	push   r14
    50a2:	41 55                	push   r13
    50a4:	41 54                	push   r12
    50a6:	55                   	push   rbp
    50a7:	53                   	push   rbx
	_M_fc.advance_to(__format::__write(_M_fc.out(), __str));
    50a8:	4c 8b 77 30          	mov    r14,QWORD PTR [rdi+0x30]
      constexpr const_iterator begin() const noexcept { return _M_begin; }
    50ac:	4c 8b 6f 08          	mov    r13,QWORD PTR [rdi+0x8]
      iterator out() { return std::move(_M_out); }
    50b0:	49 8b 6e 10          	mov    rbp,QWORD PTR [r14+0x10]
	  if (__str.size())
    50b4:	4c 29 ee             	sub    rsi,r13
    50b7:	75 17                	jne    50d0 <std::__format::_Formatting_scanner<std::__format::_Sink_iter<char>, char>::_M_on_chars(char const*)+0x30>
      void advance_to(iterator __it) { _M_out = std::move(__it); }
    50b9:	49 89 6e 10          	mov    QWORD PTR [r14+0x10],rbp
      }
    50bd:	5b                   	pop    rbx
    50be:	5d                   	pop    rbp
    50bf:	41 5c                	pop    r12
    50c1:	41 5d                	pop    r13
    50c3:	41 5e                	pop    r14
    50c5:	c3                   	ret
    50c6:	66 2e 0f 1f 84 00 00 	cs nop WORD PTR [rax+rax*1+0x0]
    50cd:	00 00 00 
    { return __lhs.base() - __rhs.base(); }
    50d0:	48 8b 7d 18          	mov    rdi,QWORD PTR [rbp+0x18]
    50d4:	48 8b 5d 10          	mov    rbx,QWORD PTR [rbp+0x10]
    50d8:	49 89 f4             	mov    r12,rsi
    50db:	48 89 f8             	mov    rax,rdi
    50de:	48 2b 45 08          	sub    rax,QWORD PTR [rbp+0x8]
    50e2:	48 29 c3             	sub    rbx,rax
	while (__to.size() <= __s.size())
    50e5:	48 39 de             	cmp    rsi,rbx
    50e8:	72 4c                	jb     5136 <std::__format::_Formatting_scanner<std::__format::_Sink_iter<char>, char>::_M_on_chars(char const*)+0x96>
    50ea:	66 0f 1f 44 00 00    	nop    WORD PTR [rax+rax*1+0x0]
    50f0:	49 39 dc             	cmp    r12,rbx
    50f3:	48 89 da             	mov    rdx,rbx
    50f6:	49 0f 46 d4          	cmovbe rdx,r12
	if (__n == 0)
    50fa:	48 85 d2             	test   rdx,rdx
    50fd:	74 08                	je     5107 <std::__format::_Formatting_scanner<std::__format::_Sink_iter<char>, char>::_M_on_chars(char const*)+0x67>
	return static_cast<char_type*>(__builtin_memcpy(__s1, __s2, __n));
    50ff:	4c 89 ee             	mov    rsi,r13
    5102:	e8 a9 e0 ff ff       	call   31b0 <memcpy@plt>
	    _M_overflow();
    5107:	48 8b 45 00          	mov    rax,QWORD PTR [rbp+0x0]
      { _M_current += __n; return *this; }
    510b:	48 01 5d 18          	add    QWORD PTR [rbp+0x18],rbx
    510f:	48 89 ef             	mov    rdi,rbp
	this->_M_str += __n;
    5112:	49 01 dd             	add    r13,rbx
	this->_M_len -= __n;
    5115:	49 29 dc             	sub    r12,rbx
    5118:	ff 10                	call   QWORD PTR [rax]
    { return __lhs.base() - __rhs.base(); }
    511a:	48 8b 7d 18          	mov    rdi,QWORD PTR [rbp+0x18]
    511e:	48 8b 5d 10          	mov    rbx,QWORD PTR [rbp+0x10]
    5122:	48 89 f8             	mov    rax,rdi
    5125:	48 2b 45 08          	sub    rax,QWORD PTR [rbp+0x8]
    5129:	48 29 c3             	sub    rbx,rax
	while (__to.size() <= __s.size())
    512c:	49 39 dc             	cmp    r12,rbx
    512f:	73 bf                	jae    50f0 <std::__format::_Formatting_scanner<std::__format::_Sink_iter<char>, char>::_M_on_chars(char const*)+0x50>
	if (__s.size())
    5131:	4d 85 e4             	test   r12,r12
    5134:	74 83                	je     50b9 <std::__format::_Formatting_scanner<std::__format::_Sink_iter<char>, char>::_M_on_chars(char const*)+0x19>
    5136:	4c 89 e2             	mov    rdx,r12
    5139:	4c 89 ee             	mov    rsi,r13
    513c:	e8 6f e0 ff ff       	call   31b0 <memcpy@plt>
      { _M_current += __n; return *this; }
    5141:	4c 01 65 18          	add    QWORD PTR [rbp+0x18],r12
      void advance_to(iterator __it) { _M_out = std::move(__it); }
    5145:	49 89 6e 10          	mov    QWORD PTR [r14+0x10],rbp
      }
    5149:	5b                   	pop    rbx
    514a:	5d                   	pop    rbp
    514b:	41 5c                	pop    r12
    514d:	41 5d                	pop    r13
    514f:	41 5e                	pop    r14
    5151:	c3                   	ret
    5152:	66 2e 0f 1f 84 00 00 	cs nop WORD PTR [rax+rax*1+0x0]
    5159:	00 00 00 
    515c:	0f 1f 40 00          	nop    DWORD PTR [rax+0x0]

0000000000005160 <non_atomic_write::operator()()>:
		for (std::uint32_t i=0; i<niter; ++i) { // At -O2 this loop is completely optimized away
    5160:	8b 47 10             	mov    eax,DWORD PTR [rdi+0x10]
    5163:	85 c0                	test   eax,eax
    5165:	74 15                	je     517c <non_atomic_write::operator()()+0x1c>
			x = i;
    5167:	48 8b 0f             	mov    rcx,QWORD PTR [rdi]
			y = i;
    516a:	48 8b 57 08          	mov    rdx,QWORD PTR [rdi+0x8]
		for (std::uint32_t i=0; i<niter; ++i) { // At -O2 this loop is completely optimized away
    516e:	31 c0                	xor    eax,eax
			x = i;
    5170:	89 01                	mov    DWORD PTR [rcx],eax
			y = i;
    5172:	89 02                	mov    DWORD PTR [rdx],eax
		for (std::uint32_t i=0; i<niter; ++i) { // At -O2 this loop is completely optimized away
    5174:	83 c0 01             	add    eax,0x1
    5177:	3b 47 10             	cmp    eax,DWORD PTR [rdi+0x10]
    517a:	72 f4                	jb     5170 <non_atomic_write::operator()()+0x10>
	}
    517c:	c3                   	ret
    517d:	0f 1f 00             	nop    DWORD PTR [rax]

0000000000005180 <std::thread::_State_impl<std::thread::_Invoker<std::tuple<non_atomic_write> > >::_M_run()>:
	_GLIBCXX20_CONSTEXPR
	_Head_base(__uses_alloc2<_Alloc> __a, _UHead&& __uhead)
	: _M_head_impl(std::forward<_UHead>(__uhead), *__a._M_a) { }

      static constexpr _Head&
      _M_head(_Head_base& __b) noexcept { return __b._M_head_impl; }
    5180:	48 83 c7 08          	add    rdi,0x8
    { return static_cast<_Up&&>(__t); }

  template<typename _Res, typename _Fn, typename... _Args>
    constexpr _Res
    __invoke_impl(__invoke_other, _Fn&& __f, _Args&&... __args)
    { return std::forward<_Fn>(__f)(std::forward<_Args>(__args)...); }
    5184:	e9 d7 ff ff ff       	jmp    5160 <non_atomic_write::operator()()>
    5189:	66 2e 0f 1f 84 00 00 	cs nop WORD PTR [rax+rax*1+0x0]
    5190:	00 00 00 
    5193:	66 2e 0f 1f 84 00 00 	cs nop WORD PTR [rax+rax*1+0x0]
    519a:	00 00 00 
    519d:	0f 1f 00             	nop    DWORD PTR [rax]

00000000000051a0 <non_atomic_read::operator()()>:
		for (std::uint32_t i=0; i<niter; ++i) {
    51a0:	8b 57 10             	mov    edx,DWORD PTR [rdi+0x10]
    51a3:	85 d2                	test   edx,edx
    51a5:	74 2c                	je     51d3 <non_atomic_read::operator()()+0x33>
			std::uint32_t yy = y;
    51a7:	48 8b 77 08          	mov    rsi,QWORD PTR [rdi+0x8]
			std::uint32_t xx = x;
    51ab:	48 8b 0f             	mov    rcx,QWORD PTR [rdi]
		for (std::uint32_t i=0; i<niter; ++i) {
    51ae:	31 c0                	xor    eax,eax
    51b0:	66 66 2e 0f 1f 84 00 	data16 cs nop WORD PTR [rax+rax*1+0x0]
    51b7:	00 00 00 00 
    51bb:	0f 1f 44 00 00       	nop    DWORD PTR [rax+rax*1+0x0]
			if (xx < yy) { ++count_mismatch; }
    51c0:	44 8b 06             	mov    r8d,DWORD PTR [rsi]
    51c3:	44 39 01             	cmp    DWORD PTR [rcx],r8d
    51c6:	73 04                	jae    51cc <non_atomic_read::operator()()+0x2c>
    51c8:	83 47 14 01          	add    DWORD PTR [rdi+0x14],0x1
		for (std::uint32_t i=0; i<niter; ++i) {
    51cc:	83 c0 01             	add    eax,0x1
    51cf:	39 d0                	cmp    eax,edx
    51d1:	75 ed                	jne    51c0 <non_atomic_read::operator()()+0x20>
	}
    51d3:	c3                   	ret
    51d4:	66 2e 0f 1f 84 00 00 	cs nop WORD PTR [rax+rax*1+0x0]
    51db:	00 00 00 
    51de:	66 90                	xchg   ax,ax

00000000000051e0 <std::thread::_State_impl<std::thread::_Invoker<std::tuple<non_atomic_read> > >::_M_run()>:
    51e0:	48 83 c7 08          	add    rdi,0x8
    51e4:	e9 b7 ff ff ff       	jmp    51a0 <non_atomic_read::operator()()>
    51e9:	66 2e 0f 1f 84 00 00 	cs nop WORD PTR [rax+rax*1+0x0]
    51f0:	00 00 00 
    51f3:	66 2e 0f 1f 84 00 00 	cs nop WORD PTR [rax+rax*1+0x0]
    51fa:	00 00 00 
    51fd:	0f 1f 00             	nop    DWORD PTR [rax]

0000000000005200 <relaxed_relaxed_write::operator()()>:
		for (std::uint32_t i=0; i<niter; ++i) {
    5200:	8b 47 10             	mov    eax,DWORD PTR [rdi+0x10]
    5203:	85 c0                	test   eax,eax
    5205:	74 2c                	je     5233 <relaxed_relaxed_write::operator()()+0x33>
    5207:	31 c0                	xor    eax,eax
    5209:	66 66 2e 0f 1f 84 00 	data16 cs nop WORD PTR [rax+rax*1+0x0]
    5210:	00 00 00 00 
    5214:	66 66 2e 0f 1f 84 00 	data16 cs nop WORD PTR [rax+rax*1+0x0]
    521b:	00 00 00 00 
    521f:	90                   	nop
	  = __m & __memory_order_mask;
	__glibcxx_assert(__b != memory_order_acquire);
	__glibcxx_assert(__b != memory_order_acq_rel);
	__glibcxx_assert(__b != memory_order_consume);

	__atomic_store_n(&_M_i, __i, int(__m));
    5220:	48 8b 17             	mov    rdx,QWORD PTR [rdi]
    5223:	89 02                	mov    DWORD PTR [rdx],eax
    5225:	48 8b 57 08          	mov    rdx,QWORD PTR [rdi+0x8]
    5229:	89 02                	mov    DWORD PTR [rdx],eax
    522b:	83 c0 01             	add    eax,0x1
    522e:	3b 47 10             	cmp    eax,DWORD PTR [rdi+0x10]
    5231:	72 ed                	jb     5220 <relaxed_relaxed_write::operator()()+0x20>
	}
    5233:	c3                   	ret
    5234:	66 2e 0f 1f 84 00 00 	cs nop WORD PTR [rax+rax*1+0x0]
    523b:	00 00 00 
    523e:	66 90                	xchg   ax,ax

0000000000005240 <std::thread::_State_impl<std::thread::_Invoker<std::tuple<relaxed_relaxed_write> > >::_M_run()>:
    5240:	48 83 c7 08          	add    rdi,0x8
    5244:	e9 b7 ff ff ff       	jmp    5200 <relaxed_relaxed_write::operator()()>
    5249:	66 2e 0f 1f 84 00 00 	cs nop WORD PTR [rax+rax*1+0x0]
    5250:	00 00 00 
    5253:	66 2e 0f 1f 84 00 00 	cs nop WORD PTR [rax+rax*1+0x0]
    525a:	00 00 00 
    525d:	0f 1f 00             	nop    DWORD PTR [rax]

0000000000005260 <relaxed_relaxed_read::operator()()>:
		for (std::uint32_t i=0; i<niter; ++i) {
    5260:	8b 47 10             	mov    eax,DWORD PTR [rdi+0x10]
    5263:	85 c0                	test   eax,eax
    5265:	74 2e                	je     5295 <relaxed_relaxed_read::operator()()+0x35>
    5267:	4c 8b 47 08          	mov    r8,QWORD PTR [rdi+0x8]
    526b:	48 8b 37             	mov    rsi,QWORD PTR [rdi]
    526e:	31 c0                	xor    eax,eax
    5270:	66 66 2e 0f 1f 84 00 	data16 cs nop WORD PTR [rax+rax*1+0x0]
    5277:	00 00 00 00 
    527b:	0f 1f 44 00 00       	nop    DWORD PTR [rax+rax*1+0x0]
	memory_order __b __attribute__ ((__unused__))
	  = __m & __memory_order_mask;
	__glibcxx_assert(__b != memory_order_release);
	__glibcxx_assert(__b != memory_order_acq_rel);

	return __atomic_load_n(&_M_i, int(__m));
    5280:	41 8b 10             	mov    edx,DWORD PTR [r8]
    5283:	8b 0e                	mov    ecx,DWORD PTR [rsi]
			if (xx < yy) { ++count_mismatch; }
    5285:	39 d1                	cmp    ecx,edx
    5287:	73 04                	jae    528d <relaxed_relaxed_read::operator()()+0x2d>
    5289:	83 47 14 01          	add    DWORD PTR [rdi+0x14],0x1
		for (std::uint32_t i=0; i<niter; ++i) {
    528d:	83 c0 01             	add    eax,0x1
    5290:	3b 47 10             	cmp    eax,DWORD PTR [rdi+0x10]
    5293:	72 eb                	jb     5280 <relaxed_relaxed_read::operator()()+0x20>
	}
    5295:	c3                   	ret
    5296:	66 2e 0f 1f 84 00 00 	cs nop WORD PTR [rax+rax*1+0x0]
    529d:	00 00 00 

00000000000052a0 <std::thread::_State_impl<std::thread::_Invoker<std::tuple<relaxed_relaxed_read> > >::_M_run()>:
    52a0:	48 83 c7 08          	add    rdi,0x8
    52a4:	e9 b7 ff ff ff       	jmp    5260 <relaxed_relaxed_read::operator()()>
    52a9:	66 2e 0f 1f 84 00 00 	cs nop WORD PTR [rax+rax*1+0x0]
    52b0:	00 00 00 
    52b3:	66 2e 0f 1f 84 00 00 	cs nop WORD PTR [rax+rax*1+0x0]
    52ba:	00 00 00 
    52bd:	0f 1f 00             	nop    DWORD PTR [rax]

00000000000052c0 <relaxed_release_write::operator()()>:
		for (std::uint32_t i=0; i<niter; ++i) {
    52c0:	8b 47 10             	mov    eax,DWORD PTR [rdi+0x10]
    52c3:	85 c0                	test   eax,eax
    52c5:	74 2c                	je     52f3 <relaxed_release_write::operator()()+0x33>
    52c7:	31 c0                	xor    eax,eax
    52c9:	66 66 2e 0f 1f 84 00 	data16 cs nop WORD PTR [rax+rax*1+0x0]
    52d0:	00 00 00 00 
    52d4:	66 66 2e 0f 1f 84 00 	data16 cs nop WORD PTR [rax+rax*1+0x0]
    52db:	00 00 00 00 
    52df:	90                   	nop
	__atomic_store_n(&_M_i, __i, int(__m));
    52e0:	48 8b 17             	mov    rdx,QWORD PTR [rdi]
    52e3:	89 02                	mov    DWORD PTR [rdx],eax
    52e5:	48 8b 57 08          	mov    rdx,QWORD PTR [rdi+0x8]
    52e9:	89 02                	mov    DWORD PTR [rdx],eax
    52eb:	83 c0 01             	add    eax,0x1
    52ee:	3b 47 10             	cmp    eax,DWORD PTR [rdi+0x10]
    52f1:	72 ed                	jb     52e0 <relaxed_release_write::operator()()+0x20>
	}
    52f3:	c3                   	ret
    52f4:	66 2e 0f 1f 84 00 00 	cs nop WORD PTR [rax+rax*1+0x0]
    52fb:	00 00 00 
    52fe:	66 90                	xchg   ax,ax

0000000000005300 <std::thread::_State_impl<std::thread::_Invoker<std::tuple<relaxed_release_write> > >::_M_run()>:
    5300:	48 83 c7 08          	add    rdi,0x8
    5304:	e9 b7 ff ff ff       	jmp    52c0 <relaxed_release_write::operator()()>
    5309:	66 2e 0f 1f 84 00 00 	cs nop WORD PTR [rax+rax*1+0x0]
    5310:	00 00 00 
    5313:	66 2e 0f 1f 84 00 00 	cs nop WORD PTR [rax+rax*1+0x0]
    531a:	00 00 00 
    531d:	0f 1f 00             	nop    DWORD PTR [rax]

0000000000005320 <acquire_relaxed_read::operator()()>:
		for (std::uint32_t i=0; i<niter; ++i) {
    5320:	8b 47 10             	mov    eax,DWORD PTR [rdi+0x10]
    5323:	85 c0                	test   eax,eax
    5325:	74 34                	je     535b <acquire_relaxed_read::operator()()+0x3b>
    5327:	31 c0                	xor    eax,eax
    5329:	66 66 2e 0f 1f 84 00 	data16 cs nop WORD PTR [rax+rax*1+0x0]
    5330:	00 00 00 00 
    5334:	66 66 2e 0f 1f 84 00 	data16 cs nop WORD PTR [rax+rax*1+0x0]
    533b:	00 00 00 00 
    533f:	90                   	nop
	return __atomic_load_n(&_M_i, int(__m));
    5340:	48 8b 57 08          	mov    rdx,QWORD PTR [rdi+0x8]
    5344:	8b 12                	mov    edx,DWORD PTR [rdx]
    5346:	48 8b 0f             	mov    rcx,QWORD PTR [rdi]
    5349:	8b 09                	mov    ecx,DWORD PTR [rcx]
			if (xx < yy) { ++count_mismatch; }
    534b:	39 d1                	cmp    ecx,edx
    534d:	73 04                	jae    5353 <acquire_relaxed_read::operator()()+0x33>
    534f:	83 47 14 01          	add    DWORD PTR [rdi+0x14],0x1
		for (std::uint32_t i=0; i<niter; ++i) {
    5353:	83 c0 01             	add    eax,0x1
    5356:	3b 47 10             	cmp    eax,DWORD PTR [rdi+0x10]
    5359:	72 e5                	jb     5340 <acquire_relaxed_read::operator()()+0x20>
	}
    535b:	c3                   	ret
    535c:	0f 1f 40 00          	nop    DWORD PTR [rax+0x0]

0000000000005360 <std::thread::_State_impl<std::thread::_Invoker<std::tuple<acquire_relaxed_read> > >::_M_run()>:
    5360:	48 83 c7 08          	add    rdi,0x8
    5364:	e9 b7 ff ff ff       	jmp    5320 <acquire_relaxed_read::operator()()>
    5369:	66 2e 0f 1f 84 00 00 	cs nop WORD PTR [rax+rax*1+0x0]
    5370:	00 00 00 
    5373:	66 2e 0f 1f 84 00 00 	cs nop WORD PTR [rax+rax*1+0x0]
    537a:	00 00 00 
    537d:	0f 1f 00             	nop    DWORD PTR [rax]

0000000000005380 <relaxed_sequential_write::operator()()>:
		for (std::uint32_t i=0; i<niter; ++i) {
    5380:	8b 47 10             	mov    eax,DWORD PTR [rdi+0x10]
    5383:	85 c0                	test   eax,eax
    5385:	74 2e                	je     53b5 <relaxed_sequential_write::operator()()+0x35>
    5387:	31 c0                	xor    eax,eax
    5389:	66 66 2e 0f 1f 84 00 	data16 cs nop WORD PTR [rax+rax*1+0x0]
    5390:	00 00 00 00 
    5394:	66 66 2e 0f 1f 84 00 	data16 cs nop WORD PTR [rax+rax*1+0x0]
    539b:	00 00 00 00 
    539f:	90                   	nop
	__atomic_store_n(&_M_i, __i, int(__m));
    53a0:	48 8b 17             	mov    rdx,QWORD PTR [rdi]
    53a3:	89 c1                	mov    ecx,eax
    53a5:	89 02                	mov    DWORD PTR [rdx],eax
    53a7:	48 8b 57 08          	mov    rdx,QWORD PTR [rdi+0x8]
    53ab:	87 0a                	xchg   DWORD PTR [rdx],ecx
    53ad:	83 c0 01             	add    eax,0x1
    53b0:	3b 47 10             	cmp    eax,DWORD PTR [rdi+0x10]
    53b3:	72 eb                	jb     53a0 <relaxed_sequential_write::operator()()+0x20>
	}
    53b5:	c3                   	ret
    53b6:	66 2e 0f 1f 84 00 00 	cs nop WORD PTR [rax+rax*1+0x0]
    53bd:	00 00 00 

00000000000053c0 <std::thread::_State_impl<std::thread::_Invoker<std::tuple<relaxed_sequential_write> > >::_M_run()>:
    53c0:	48 83 c7 08          	add    rdi,0x8
    53c4:	e9 b7 ff ff ff       	jmp    5380 <relaxed_sequential_write::operator()()>
    53c9:	66 2e 0f 1f 84 00 00 	cs nop WORD PTR [rax+rax*1+0x0]
    53d0:	00 00 00 
    53d3:	66 2e 0f 1f 84 00 00 	cs nop WORD PTR [rax+rax*1+0x0]
    53da:	00 00 00 
    53dd:	0f 1f 00             	nop    DWORD PTR [rax]

00000000000053e0 <sequential_relaxed_read::operator()()>:
		for (std::uint32_t i=0; i<niter; ++i) {
    53e0:	8b 47 10             	mov    eax,DWORD PTR [rdi+0x10]
    53e3:	85 c0                	test   eax,eax
    53e5:	74 34                	je     541b <sequential_relaxed_read::operator()()+0x3b>
    53e7:	31 c0                	xor    eax,eax
    53e9:	66 66 2e 0f 1f 84 00 	data16 cs nop WORD PTR [rax+rax*1+0x0]
    53f0:	00 00 00 00 
    53f4:	66 66 2e 0f 1f 84 00 	data16 cs nop WORD PTR [rax+rax*1+0x0]
    53fb:	00 00 00 00 
    53ff:	90                   	nop
	return __atomic_load_n(&_M_i, int(__m));
    5400:	48 8b 57 08          	mov    rdx,QWORD PTR [rdi+0x8]
    5404:	8b 12                	mov    edx,DWORD PTR [rdx]
    5406:	48 8b 0f             	mov    rcx,QWORD PTR [rdi]
    5409:	8b 09                	mov    ecx,DWORD PTR [rcx]
			if (xx < yy) { ++count_mismatch; }
    540b:	39 d1                	cmp    ecx,edx
    540d:	73 04                	jae    5413 <sequential_relaxed_read::operator()()+0x33>
    540f:	83 47 14 01          	add    DWORD PTR [rdi+0x14],0x1
		for (std::uint32_t i=0; i<niter; ++i) {
    5413:	83 c0 01             	add    eax,0x1
    5416:	3b 47 10             	cmp    eax,DWORD PTR [rdi+0x10]
    5419:	72 e5                	jb     5400 <sequential_relaxed_read::operator()()+0x20>
	}
    541b:	c3                   	ret
    541c:	0f 1f 40 00          	nop    DWORD PTR [rax+0x0]

0000000000005420 <std::thread::_State_impl<std::thread::_Invoker<std::tuple<sequential_relaxed_read> > >::_M_run()>:
    5420:	48 83 c7 08          	add    rdi,0x8
    5424:	e9 b7 ff ff ff       	jmp    53e0 <sequential_relaxed_read::operator()()>
    5429:	0f 1f 80 00 00 00 00 	nop    DWORD PTR [rax+0x0]

0000000000005430 <std::__format::_Scanner<char>::_M_scan()>:
      _M_scan()
    5430:	41 57                	push   r15
    5432:	41 56                	push   r14
    5434:	41 55                	push   r13
    5436:	41 54                	push   r12
    5438:	55                   	push   rbp
    5439:	48 89 fd             	mov    rbp,rdi
    543c:	53                   	push   rbx
    543d:	48 83 ec 18          	sub    rsp,0x18
	: _M_len(__last - __first), _M_str(std::to_address(__first))
    5441:	4c 8b 77 10          	mov    r14,QWORD PTR [rdi+0x10]
      constexpr const_iterator begin() const noexcept { return _M_begin; }
    5445:	48 8b 5f 08          	mov    rbx,QWORD PTR [rdi+0x8]
    5449:	4d 89 f7             	mov    r15,r14
    544c:	49 29 df             	sub    r15,rbx
	if (__fmt.size() == 2 && __fmt[0] == '{' && __fmt[1] == '}')
    544f:	49 83 ff 02          	cmp    r15,0x2
    5453:	74 1b                	je     5470 <std::__format::_Scanner<char>::_M_scan()+0x40>
      if (__pos < this->_M_len)
    5455:	4d 85 ff             	test   r15,r15
    5458:	75 1f                	jne    5479 <std::__format::_Scanner<char>::_M_scan()+0x49>
      }
    545a:	48 83 c4 18          	add    rsp,0x18
    545e:	5b                   	pop    rbx
    545f:	5d                   	pop    rbp
    5460:	41 5c                	pop    r12
    5462:	41 5d                	pop    r13
    5464:	41 5e                	pop    r14
    5466:	41 5f                	pop    r15
    5468:	c3                   	ret
    5469:	0f 1f 80 00 00 00 00 	nop    DWORD PTR [rax+0x0]
	if (__fmt.size() == 2 && __fmt[0] == '{' && __fmt[1] == '}')
    5470:	80 3b 7b             	cmp    BYTE PTR [rbx],0x7b
    5473:	0f 84 af 03 00 00    	je     5828 <std::__format::_Scanner<char>::_M_scan()+0x3f8>
	return static_cast<const char_type*>(__builtin_memchr(__s, __a, __n));
    5479:	4c 89 fa             	mov    rdx,r15
    547c:	be 7b 00 00 00       	mov    esi,0x7b
    5481:	48 89 df             	mov    rdi,rbx
	    __ret = __p - this->_M_str;
    5484:	49 c7 c5 ff ff ff ff 	mov    r13,0xffffffffffffffff
    548b:	e8 90 dd ff ff       	call   3220 <memchr@plt>
    5490:	4c 89 fa             	mov    rdx,r15
    5493:	be 7d 00 00 00       	mov    esi,0x7d
    5498:	48 89 df             	mov    rdi,rbx
    549b:	49 89 c4             	mov    r12,rax
    549e:	49 29 dc             	sub    r12,rbx
    54a1:	48 85 c0             	test   rax,rax
    54a4:	4d 0f 44 e5          	cmove  r12,r13
    54a8:	e8 73 dd ff ff       	call   3220 <memchr@plt>
    54ad:	48 89 c2             	mov    rdx,rax
    54b0:	48 29 da             	sub    rdx,rbx
    54b3:	48 85 c0             	test   rax,rax
    54b6:	4c 0f 45 ea          	cmovne r13,rdx
      size() const noexcept
    54ba:	66 0f 1f 44 00 00    	nop    WORD PTR [rax+rax*1+0x0]
	    auto __cmp = __lbr <=> __rbr;
    54c0:	4d 39 ec             	cmp    r12,r13
    54c3:	0f 84 3f 01 00 00    	je     5608 <std::__format::_Scanner<char>::_M_scan()+0x1d8>
    54c9:	0f 82 91 00 00 00    	jb     5560 <std::__format::_Scanner<char>::_M_scan()+0x130>
		if (++__rbr == __fmt.size() || __fmt[__rbr] != '}')
    54cf:	49 8d 55 01          	lea    rdx,[r13+0x1]
    54d3:	4c 39 fa             	cmp    rdx,r15
    54d6:	0f 84 c6 03 00 00    	je     58a2 <std::__format::_Scanner<char>::_M_scan()+0x472>
    54dc:	42 80 7c 2b 01 7d    	cmp    BYTE PTR [rbx+r13*1+0x1],0x7d
    54e2:	0f 85 ba 03 00 00    	jne    58a2 <std::__format::_Scanner<char>::_M_scan()+0x472>
		_M_on_chars(__last);
    54e8:	48 8b 45 00          	mov    rax,QWORD PTR [rbp+0x0]
		iterator __last = begin() + __rbr;
    54ec:	48 89 d3             	mov    rbx,rdx
    54ef:	48 03 5d 08          	add    rbx,QWORD PTR [rbp+0x8]
    54f3:	48 89 54 24 08       	mov    QWORD PTR [rsp+0x8],rdx
		_M_on_chars(__last);
    54f8:	48 89 de             	mov    rsi,rbx
    54fb:	48 89 ef             	mov    rdi,rbp
		_M_pc.advance_to(__last + 1);
    54fe:	48 83 c3 01          	add    rbx,0x1
		_M_on_chars(__last);
    5502:	ff 10                	call   QWORD PTR [rax]
	: _M_len(__last - __first), _M_str(std::to_address(__first))
    5504:	4c 8b 75 10          	mov    r14,QWORD PTR [rbp+0x10]
		  __lbr -= __rbr + 1;
    5508:	48 8b 54 24 08       	mov    rdx,QWORD PTR [rsp+0x8]
    550d:	49 8d 44 24 ff       	lea    rax,[r12-0x1]
      { _M_begin = __it; }
    5512:	48 89 5d 08          	mov    QWORD PTR [rbp+0x8],rbx
		  __lbr -= __rbr + 1;
    5516:	48 29 d0             	sub    rax,rdx
      if (__pos < this->_M_len)
    5519:	4d 89 f7             	mov    r15,r14
    551c:	49 83 fc ff          	cmp    r12,0xffffffffffffffff
    5520:	4c 0f 45 e0          	cmovne r12,rax
    5524:	49 29 df             	sub    r15,rbx
    5527:	0f 84 2d ff ff ff    	je     545a <std::__format::_Scanner<char>::_M_scan()+0x2a>
    552d:	4c 89 fa             	mov    rdx,r15
    5530:	be 7d 00 00 00       	mov    esi,0x7d
    5535:	48 89 df             	mov    rdi,rbx
    5538:	e8 e3 dc ff ff       	call   3220 <memchr@plt>
	    __ret = __p - this->_M_str;
    553d:	49 89 c5             	mov    r13,rax
    5540:	49 29 dd             	sub    r13,rbx
	  if (__p)
    5543:	48 85 c0             	test   rax,rax
    5546:	0f 85 74 ff ff ff    	jne    54c0 <std::__format::_Scanner<char>::_M_scan()+0x90>
      size_type __ret = npos;
    554c:	49 c7 c5 ff ff ff ff 	mov    r13,0xffffffffffffffff
	    auto __cmp = __lbr <=> __rbr;
    5553:	49 83 fc ff          	cmp    r12,0xffffffffffffffff
    5557:	0f 84 ab 00 00 00    	je     5608 <std::__format::_Scanner<char>::_M_scan()+0x1d8>
    555d:	0f 1f 00             	nop    DWORD PTR [rax]
		if (__lbr + 1 == __fmt.size()
    5560:	49 8d 44 24 01       	lea    rax,[r12+0x1]
		      || (__rbr == __fmt.npos && __fmt[__lbr + 1] != '{'))
    5565:	49 39 c7             	cmp    r15,rax
    5568:	0f 84 34 03 00 00    	je     58a2 <std::__format::_Scanner<char>::_M_scan()+0x472>
    556e:	42 0f b6 44 23 01    	movzx  eax,BYTE PTR [rbx+r12*1+0x1]
    5574:	49 83 fd ff          	cmp    r13,0xffffffffffffffff
    5578:	0f 84 d2 00 00 00    	je     5650 <std::__format::_Scanner<char>::_M_scan()+0x220>
		const bool __is_escape = __fmt[__lbr + 1] == '{';
    557e:	3c 7b                	cmp    al,0x7b
		_M_on_chars(__last);
    5580:	48 8b 55 00          	mov    rdx,QWORD PTR [rbp+0x0]
		const bool __is_escape = __fmt[__lbr + 1] == '{';
    5584:	88 44 24 08          	mov    BYTE PTR [rsp+0x8],al
		_M_on_chars(__last);
    5588:	48 89 ef             	mov    rdi,rbp
		const bool __is_escape = __fmt[__lbr + 1] == '{';
    558b:	41 0f 94 c7          	sete   r15b
    558f:	45 0f b6 ff          	movzx  r15d,r15b
		iterator __last = begin() + __lbr + int(__is_escape);
    5593:	4d 01 e7             	add    r15,r12
    5596:	4c 03 7d 08          	add    r15,QWORD PTR [rbp+0x8]
		_M_on_chars(__last);
    559a:	4c 89 fe             	mov    rsi,r15
		_M_pc.advance_to(__last + 1);
    559d:	49 8d 5f 01          	lea    rbx,[r15+0x1]
		_M_on_chars(__last);
    55a1:	ff 12                	call   QWORD PTR [rdx]
		if (__is_escape)
    55a3:	0f b6 44 24 08       	movzx  eax,BYTE PTR [rsp+0x8]
      constexpr const_iterator end() const noexcept { return _M_end; }
    55a8:	4c 8b 75 10          	mov    r14,QWORD PTR [rbp+0x10]
      { _M_begin = __it; }
    55ac:	48 89 5d 08          	mov    QWORD PTR [rbp+0x8],rbx
		if (__is_escape)
    55b0:	3c 7b                	cmp    al,0x7b
    55b2:	0f 85 b0 00 00 00    	jne    5668 <std::__format::_Scanner<char>::_M_scan()+0x238>
		      __rbr -= __lbr + 2;
    55b8:	49 8d 45 fe          	lea    rax,[r13-0x2]
      if (__pos < this->_M_len)
    55bc:	4d 89 f7             	mov    r15,r14
    55bf:	4c 29 e0             	sub    rax,r12
    55c2:	49 83 fd ff          	cmp    r13,0xffffffffffffffff
    55c6:	4c 0f 45 e8          	cmovne r13,rax
    55ca:	49 29 df             	sub    r15,rbx
    55cd:	0f 84 87 fe ff ff    	je     545a <std::__format::_Scanner<char>::_M_scan()+0x2a>
    55d3:	4c 89 fa             	mov    rdx,r15
    55d6:	be 7b 00 00 00       	mov    esi,0x7b
    55db:	48 89 df             	mov    rdi,rbx
    55de:	e8 3d dc ff ff       	call   3220 <memchr@plt>
	    __ret = __p - this->_M_str;
    55e3:	49 89 c4             	mov    r12,rax
    55e6:	49 29 dc             	sub    r12,rbx
	  if (__p)
    55e9:	48 85 c0             	test   rax,rax
    55ec:	0f 85 ce fe ff ff    	jne    54c0 <std::__format::_Scanner<char>::_M_scan()+0x90>
	    auto __cmp = __lbr <=> __rbr;
    55f2:	49 83 fd ff          	cmp    r13,0xffffffffffffffff
    55f6:	74 10                	je     5608 <std::__format::_Scanner<char>::_M_scan()+0x1d8>
      size_type __ret = npos;
    55f8:	49 c7 c4 ff ff ff ff 	mov    r12,0xffffffffffffffff
    55ff:	e9 cb fe ff ff       	jmp    54cf <std::__format::_Scanner<char>::_M_scan()+0x9f>
    5604:	0f 1f 40 00          	nop    DWORD PTR [rax+0x0]
		_M_on_chars(end());
    5608:	48 8b 45 00          	mov    rax,QWORD PTR [rbp+0x0]
    560c:	4c 89 f6             	mov    rsi,r14
    560f:	48 89 ef             	mov    rdi,rbp
    5612:	ff 10                	call   QWORD PTR [rax]
      { _M_begin = __it; }
    5614:	48 8b 45 10          	mov    rax,QWORD PTR [rbp+0x10]
    5618:	48 89 45 08          	mov    QWORD PTR [rbp+0x8],rax
      }
    561c:	48 83 c4 18          	add    rsp,0x18
    5620:	5b                   	pop    rbx
    5621:	5d                   	pop    rbp
    5622:	41 5c                	pop    r12
    5624:	41 5d                	pop    r13
    5626:	41 5e                	pop    r14
    5628:	41 5f                	pop    r15
    562a:	c3                   	ret
    562b:	0f 1f 44 00 00       	nop    DWORD PTR [rax+rax*1+0x0]
	    auto __cmp = __lbr <=> __rbr;
    5630:	49 83 fc ff          	cmp    r12,0xffffffffffffffff
    5634:	74 d2                	je     5608 <std::__format::_Scanner<char>::_M_scan()+0x1d8>
		if (__lbr + 1 == __fmt.size()
    5636:	49 8d 44 24 01       	lea    rax,[r12+0x1]
		      || (__rbr == __fmt.npos && __fmt[__lbr + 1] != '{'))
    563b:	4c 39 f8             	cmp    rax,r15
    563e:	0f 84 5e 02 00 00    	je     58a2 <std::__format::_Scanner<char>::_M_scan()+0x472>
    5644:	41 0f b6 45 01       	movzx  eax,BYTE PTR [r13+0x1]
    5649:	0f 1f 80 00 00 00 00 	nop    DWORD PTR [rax+0x0]
    5650:	3c 7b                	cmp    al,0x7b
    5652:	0f 85 4a 02 00 00    	jne    58a2 <std::__format::_Scanner<char>::_M_scan()+0x472>
    5658:	49 c7 c5 ff ff ff ff 	mov    r13,0xffffffffffffffff
    565f:	e9 1a ff ff ff       	jmp    557e <std::__format::_Scanner<char>::_M_scan()+0x14e>
    5664:	0f 1f 40 00          	nop    DWORD PTR [rax+0x0]
	if (*__next == '}')
    5668:	41 0f b6 47 01       	movzx  eax,BYTE PTR [r15+0x1]
    566d:	3c 7d                	cmp    al,0x7d
    566f:	0f 84 5b 01 00 00    	je     57d0 <std::__format::_Scanner<char>::_M_scan()+0x3a0>
	else if (*__next == ':')
    5675:	3c 3a                	cmp    al,0x3a
    5677:	0f 84 7b 01 00 00    	je     57f8 <std::__format::_Scanner<char>::_M_scan()+0x3c8>
      if (*__first == '0')
    567d:	3c 30                	cmp    al,0x30
    567f:	0f 84 8b 00 00 00    	je     5710 <std::__format::_Scanner<char>::_M_scan()+0x2e0>
      if ('1' <= *__first && *__first <= '9')
    5685:	8d 50 cf             	lea    edx,[rax-0x31]
    5688:	80 fa 08             	cmp    dl,0x8
    568b:	0f 87 11 02 00 00    	ja     58a2 <std::__format::_Scanner<char>::_M_scan()+0x472>
	  const unsigned short __id = *__first - '0';
    5691:	66 0f be f0          	movsx  si,al
	  const auto __next = __first + 1;
    5695:	49 8d 4f 02          	lea    rcx,[r15+0x2]
	  if (__next == __last || !('0' <= *__next && *__next <= '9'))
    5699:	41 0f b6 47 02       	movzx  eax,BYTE PTR [r15+0x2]
	  const unsigned short __id = *__first - '0';
    569e:	83 ee 30             	sub    esi,0x30
	  if (__next == __last || !('0' <= *__next && *__next <= '9'))
    56a1:	49 39 ce             	cmp    r14,rcx
    56a4:	74 75                	je     571b <std::__format::_Scanner<char>::_M_scan()+0x2eb>
    56a6:	8d 50 d0             	lea    edx,[rax-0x30]
    56a9:	80 fa 09             	cmp    dl,0x9
    56ac:	77 6d                	ja     571b <std::__format::_Scanner<char>::_M_scan()+0x2eb>
    56ae:	48 89 d9             	mov    rcx,rbx
	  unsigned short __val = 0;
    56b1:	31 f6                	xor    esi,esi
		       int __base)
    {
      // __glibcxx_assert(_DecOnly ? __base <= 10 : __base <= 36);

      const int __bits_per_digit = __bit_width(unsigned(__base & 0x3f));
      int __unused_bits_lower_bound = __gnu_cxx::__int_traits<_Tp>::__digits;
    56b3:	41 b8 10 00 00 00    	mov    r8d,0x10
    56b9:	eb 1c                	jmp    56d7 <std::__format::_Scanner<char>::_M_scan()+0x2a7>
    56bb:	0f 1f 44 00 00       	nop    DWORD PTR [rax+rax*1+0x0]
	    return true;

	  __unused_bits_lower_bound -= __bits_per_digit;
	  if (__unused_bits_lower_bound >= 0) [[__likely__]]
	    // We're definitely not going to overflow.
	    __val = __val * __base + __c;
    56c0:	8d 34 b6             	lea    esi,[rsi+rsi*4]
    56c3:	40 0f b6 ff          	movzx  edi,dil
    56c7:	8d 34 77             	lea    esi,[rdi+rsi*2]
      for (; __first != __last; ++__first)
    56ca:	48 83 c1 01          	add    rcx,0x1
    56ce:	49 39 ce             	cmp    r14,rcx
    56d1:	0f 84 c3 01 00 00    	je     589a <std::__format::_Scanner<char>::_M_scan()+0x46a>
	return static_cast<unsigned char>(__c - '0');
    56d7:	0f b6 01             	movzx  eax,BYTE PTR [rcx]
    56da:	8d 78 d0             	lea    edi,[rax-0x30]
	  if (__c >= __base)
    56dd:	40 80 ff 09          	cmp    dil,0x9
    56e1:	0f 87 ae 01 00 00    	ja     5895 <std::__format::_Scanner<char>::_M_scan()+0x465>
	  if (__unused_bits_lower_bound >= 0) [[__likely__]]
    56e7:	41 83 e8 04          	sub    r8d,0x4
    56eb:	79 d3                	jns    56c0 <std::__format::_Scanner<char>::_M_scan()+0x290>
      if (__builtin_mul_overflow(__val, __base, &__val)
    56ed:	ba 0a 00 00 00       	mov    edx,0xa
    56f2:	89 f0                	mov    eax,esi
    56f4:	66 f7 e2             	mul    dx
    56f7:	0f 80 a5 01 00 00    	jo     58a2 <std::__format::_Scanner<char>::_M_scan()+0x472>
	  || __builtin_add_overflow(__val, __c, &__val))
    56fd:	40 0f b6 ff          	movzx  edi,dil
    5701:	66 01 c7             	add    di,ax
    5704:	0f 82 98 01 00 00    	jb     58a2 <std::__format::_Scanner<char>::_M_scan()+0x472>
    570a:	89 fe                	mov    esi,edi
    570c:	eb bc                	jmp    56ca <std::__format::_Scanner<char>::_M_scan()+0x29a>
    570e:	66 90                	xchg   ax,ax
	  if (__next == __last || !('0' <= *__next && *__next <= '9'))
    5710:	41 0f b6 47 02       	movzx  eax,BYTE PTR [r15+0x2]
	return {0, __first + 1}; // No leading zeros allowed, so '0...' == 0
    5715:	49 8d 4f 02          	lea    rcx,[r15+0x2]
	  if (__next == __last || !('0' <= *__next && *__next <= '9'))
    5719:	31 f6                	xor    esi,esi
	    if (!__ptr || !(*__ptr == '}' || *__ptr == ':'))
    571b:	3c 7d                	cmp    al,0x7d
    571d:	74 08                	je     5727 <std::__format::_Scanner<char>::_M_scan()+0x2f7>
    571f:	3c 3a                	cmp    al,0x3a
    5721:	0f 85 7b 01 00 00    	jne    58a2 <std::__format::_Scanner<char>::_M_scan()+0x472>
	if (_M_indexing == _Auto)
    5727:	83 7d 18 02          	cmp    DWORD PTR [rbp+0x18],0x2
	    _M_pc.check_arg_id(__id = __i);
    572b:	0f b7 f6             	movzx  esi,si
	if (_M_indexing == _Auto)
    572e:	0f 84 6e 01 00 00    	je     58a2 <std::__format::_Scanner<char>::_M_scan()+0x472>
		_M_pc.advance_to(++__ptr);
    5734:	31 c0                	xor    eax,eax
	_M_indexing = _Manual;
    5736:	c7 45 18 01 00 00 00 	mov    DWORD PTR [rbp+0x18],0x1
		_M_pc.advance_to(++__ptr);
    573d:	80 39 3a             	cmp    BYTE PTR [rcx],0x3a
    5740:	0f 94 c0             	sete   al
    5743:	48 01 c1             	add    rcx,rax
    5746:	48 89 4d 08          	mov    QWORD PTR [rbp+0x8],rcx
	_M_format_arg(__id);
    574a:	48 8b 45 00          	mov    rax,QWORD PTR [rbp+0x0]
    574e:	48 89 ef             	mov    rdi,rbp
    5751:	ff 50 08             	call   QWORD PTR [rax+0x8]
      constexpr const_iterator begin() const noexcept { return _M_begin; }
    5754:	48 8b 5d 08          	mov    rbx,QWORD PTR [rbp+0x8]
      constexpr const_iterator end() const noexcept { return _M_end; }
    5758:	4c 8b 75 10          	mov    r14,QWORD PTR [rbp+0x10]
	if (begin() == end() || *begin() != '}')
    575c:	4c 39 f3             	cmp    rbx,r14
    575f:	0f 84 3d 01 00 00    	je     58a2 <std::__format::_Scanner<char>::_M_scan()+0x472>
    5765:	80 3b 7d             	cmp    BYTE PTR [rbx],0x7d
    5768:	0f 85 34 01 00 00    	jne    58a2 <std::__format::_Scanner<char>::_M_scan()+0x472>
	_M_pc.advance_to(begin() + 1); // Move past '}'
    576e:	48 83 c3 01          	add    rbx,0x1
      if (__pos < this->_M_len)
    5772:	4d 89 f7             	mov    r15,r14
      { _M_begin = __it; }
    5775:	48 89 5d 08          	mov    QWORD PTR [rbp+0x8],rbx
    5779:	49 29 df             	sub    r15,rbx
    577c:	0f 84 d8 fc ff ff    	je     545a <std::__format::_Scanner<char>::_M_scan()+0x2a>
    5782:	4c 89 fa             	mov    rdx,r15
    5785:	be 7b 00 00 00       	mov    esi,0x7b
    578a:	48 89 df             	mov    rdi,rbx
    578d:	e8 8e da ff ff       	call   3220 <memchr@plt>
    5792:	49 89 c5             	mov    r13,rax
	  if (__p)
    5795:	48 85 c0             	test   rax,rax
    5798:	0f 84 d2 00 00 00    	je     5870 <std::__format::_Scanner<char>::_M_scan()+0x440>
	    __ret = __p - this->_M_str;
    579e:	49 89 c4             	mov    r12,rax
    57a1:	4c 89 fa             	mov    rdx,r15
    57a4:	be 7d 00 00 00       	mov    esi,0x7d
    57a9:	48 89 df             	mov    rdi,rbx
    57ac:	49 29 dc             	sub    r12,rbx
    57af:	e8 6c da ff ff       	call   3220 <memchr@plt>
	  if (__p)
    57b4:	48 85 c0             	test   rax,rax
    57b7:	0f 84 73 fe ff ff    	je     5630 <std::__format::_Scanner<char>::_M_scan()+0x200>
	    __ret = __p - this->_M_str;
    57bd:	48 29 d8             	sub    rax,rbx
    57c0:	49 89 c5             	mov    r13,rax
    57c3:	e9 f8 fc ff ff       	jmp    54c0 <std::__format::_Scanner<char>::_M_scan()+0x90>
    57c8:	0f 1f 84 00 00 00 00 	nop    DWORD PTR [rax+rax*1+0x0]
    57cf:	00 
	if (_M_indexing == _Manual)
    57d0:	83 7d 18 01          	cmp    DWORD PTR [rbp+0x18],0x1
    57d4:	0f 84 c8 00 00 00    	je     58a2 <std::__format::_Scanner<char>::_M_scan()+0x472>
	return _M_next_arg_id++;
    57da:	48 8b 75 20          	mov    rsi,QWORD PTR [rbp+0x20]
	_M_indexing = _Auto;
    57de:	c7 45 18 02 00 00 00 	mov    DWORD PTR [rbp+0x18],0x2
	return _M_next_arg_id++;
    57e5:	48 8d 46 01          	lea    rax,[rsi+0x1]
    57e9:	48 89 45 20          	mov    QWORD PTR [rbp+0x20],rax
    57ed:	e9 58 ff ff ff       	jmp    574a <std::__format::_Scanner<char>::_M_scan()+0x31a>
    57f2:	66 0f 1f 44 00 00    	nop    WORD PTR [rax+rax*1+0x0]
	if (_M_indexing == _Manual)
    57f8:	83 7d 18 01          	cmp    DWORD PTR [rbp+0x18],0x1
    57fc:	0f 84 a0 00 00 00    	je     58a2 <std::__format::_Scanner<char>::_M_scan()+0x472>
	return _M_next_arg_id++;
    5802:	48 8b 75 20          	mov    rsi,QWORD PTR [rbp+0x20]
	    _M_pc.advance_to(++__next);
    5806:	49 83 c7 02          	add    r15,0x2
	_M_indexing = _Auto;
    580a:	c7 45 18 02 00 00 00 	mov    DWORD PTR [rbp+0x18],0x2
	    _M_pc.advance_to(++__next);
    5811:	4c 89 7d 08          	mov    QWORD PTR [rbp+0x8],r15
	return _M_next_arg_id++;
    5815:	48 8d 46 01          	lea    rax,[rsi+0x1]
    5819:	48 89 45 20          	mov    QWORD PTR [rbp+0x20],rax
      { _M_begin = __it; }
    581d:	e9 28 ff ff ff       	jmp    574a <std::__format::_Scanner<char>::_M_scan()+0x31a>
    5822:	66 0f 1f 44 00 00    	nop    WORD PTR [rax+rax*1+0x0]
	if (__fmt.size() == 2 && __fmt[0] == '{' && __fmt[1] == '}')
    5828:	80 7b 01 7d          	cmp    BYTE PTR [rbx+0x1],0x7d
    582c:	0f 85 47 fc ff ff    	jne    5479 <std::__format::_Scanner<char>::_M_scan()+0x49>
	    _M_format_arg(_M_pc.next_arg_id());
    5832:	48 8b 07             	mov    rax,QWORD PTR [rdi]
	    _M_pc.advance_to(begin() + 1);
    5835:	48 83 c3 01          	add    rbx,0x1
	if (_M_indexing == _Manual)
    5839:	83 7f 18 01          	cmp    DWORD PTR [rdi+0x18],0x1
	    _M_pc.advance_to(begin() + 1);
    583d:	48 89 5f 08          	mov    QWORD PTR [rdi+0x8],rbx
	    _M_format_arg(_M_pc.next_arg_id());
    5841:	48 8b 40 08          	mov    rax,QWORD PTR [rax+0x8]
	if (_M_indexing == _Manual)
    5845:	74 5b                	je     58a2 <std::__format::_Scanner<char>::_M_scan()+0x472>
	return _M_next_arg_id++;
    5847:	48 8b 77 20          	mov    rsi,QWORD PTR [rdi+0x20]
	_M_indexing = _Auto;
    584b:	c7 47 18 02 00 00 00 	mov    DWORD PTR [rdi+0x18],0x2
	return _M_next_arg_id++;
    5852:	48 8d 56 01          	lea    rdx,[rsi+0x1]
    5856:	48 89 57 20          	mov    QWORD PTR [rdi+0x20],rdx
      }
    585a:	48 83 c4 18          	add    rsp,0x18
    585e:	5b                   	pop    rbx
    585f:	5d                   	pop    rbp
    5860:	41 5c                	pop    r12
    5862:	41 5d                	pop    r13
    5864:	41 5e                	pop    r14
    5866:	41 5f                	pop    r15
	    _M_format_arg(_M_pc.next_arg_id());
    5868:	ff e0                	jmp    rax
    586a:	66 0f 1f 44 00 00    	nop    WORD PTR [rax+rax*1+0x0]
    5870:	4c 89 fa             	mov    rdx,r15
    5873:	be 7d 00 00 00       	mov    esi,0x7d
    5878:	48 89 df             	mov    rdi,rbx
    587b:	e8 a0 d9 ff ff       	call   3220 <memchr@plt>
	  if (__p)
    5880:	48 85 c0             	test   rax,rax
    5883:	0f 84 7f fd ff ff    	je     5608 <std::__format::_Scanner<char>::_M_scan()+0x1d8>
    5889:	49 c7 c4 ff ff ff ff 	mov    r12,0xffffffffffffffff
    5890:	e9 28 ff ff ff       	jmp    57bd <std::__format::_Scanner<char>::_M_scan()+0x38d>
		&& __first != __start) [[likely]]
    5895:	48 39 cb             	cmp    rbx,rcx
    5898:	74 08                	je     58a2 <std::__format::_Scanner<char>::_M_scan()+0x472>
	    if (!__ptr || !(*__ptr == '}' || *__ptr == ':'))
    589a:	0f b6 01             	movzx  eax,BYTE PTR [rcx]
    589d:	e9 79 fe ff ff       	jmp    571b <std::__format::_Scanner<char>::_M_scan()+0x2eb>
  { _GLIBCXX_THROW_OR_ABORT(format_error(__what)); }
    58a2:	e8 a9 d8 ff ff       	call   3150 <abort@plt>
    58a7:	66 0f 1f 84 00 00 00 	nop    WORD PTR [rax+rax*1+0x0]
    58ae:	00 00 

00000000000058b0 <void std::__detail::__to_chars_10_impl<unsigned int>(char*, unsigned int, unsigned int)>:
  // Write an unsigned integer value to the range [first,first+len).
  // The caller is required to provide a buffer of exactly the right size
  // (which can be determined by the __to_chars_len function).
  template<typename _Tp>
    _GLIBCXX23_CONSTEXPR void
    __to_chars_10_impl(char* __first, unsigned __len, _Tp __val) noexcept
    58b0:	48 83 ec 60          	sub    rsp,0x60
    {
#if __cpp_variable_templates
      static_assert(__integer_to_chars_is_unsigned<_Tp>, "implementation bug");
#endif

      constexpr char __digits[201] =
    58b4:	66 0f 6f 05 e4 2e 01 	movdqa xmm0,XMMWORD PTR [rip+0x12ee4]        # 187a0 <std::__unicode::__v15_1_0::__width_edges+0x320>
    58bb:	00 
    __to_chars_10_impl(char* __first, unsigned __len, _Tp __val) noexcept
    58bc:	89 d1                	mov    ecx,edx
	"0001020304050607080910111213141516171819"
	"2021222324252627282930313233343536373839"
	"4041424344454647484950515253545556575859"
	"6061626364656667686970717273747576777879"
	"8081828384858687888990919293949596979899";
      unsigned __pos = __len - 1;
    58be:	83 ee 01             	sub    esi,0x1
      constexpr char __digits[201] =
    58c1:	0f 29 44 24 88       	movaps XMMWORD PTR [rsp-0x78],xmm0
    58c6:	66 0f 6f 05 e2 2e 01 	movdqa xmm0,XMMWORD PTR [rip+0x12ee2]        # 187b0 <std::__unicode::__v15_1_0::__width_edges+0x330>
    58cd:	00 
    58ce:	0f 29 44 24 98       	movaps XMMWORD PTR [rsp-0x68],xmm0
    58d3:	66 0f 6f 05 e5 2e 01 	movdqa xmm0,XMMWORD PTR [rip+0x12ee5]        # 187c0 <std::__unicode::__v15_1_0::__width_edges+0x340>
    58da:	00 
    58db:	0f 29 44 24 a8       	movaps XMMWORD PTR [rsp-0x58],xmm0
    58e0:	66 0f 6f 05 e8 2e 01 	movdqa xmm0,XMMWORD PTR [rip+0x12ee8]        # 187d0 <std::__unicode::__v15_1_0::__width_edges+0x350>
    58e7:	00 
    58e8:	0f 29 44 24 b8       	movaps XMMWORD PTR [rsp-0x48],xmm0
    58ed:	66 0f 6f 05 eb 2e 01 	movdqa xmm0,XMMWORD PTR [rip+0x12eeb]        # 187e0 <std::__unicode::__v15_1_0::__width_edges+0x360>
    58f4:	00 
    58f5:	0f 29 44 24 c8       	movaps XMMWORD PTR [rsp-0x38],xmm0
    58fa:	66 0f 6f 05 ee 2e 01 	movdqa xmm0,XMMWORD PTR [rip+0x12eee]        # 187f0 <std::__unicode::__v15_1_0::__width_edges+0x370>
    5901:	00 
    5902:	0f 29 44 24 d8       	movaps XMMWORD PTR [rsp-0x28],xmm0
    5907:	66 0f 6f 05 f1 2e 01 	movdqa xmm0,XMMWORD PTR [rip+0x12ef1]        # 18800 <std::__unicode::__v15_1_0::__width_edges+0x380>
    590e:	00 
    590f:	0f 29 44 24 e8       	movaps XMMWORD PTR [rsp-0x18],xmm0
    5914:	66 0f 6f 05 f4 2e 01 	movdqa xmm0,XMMWORD PTR [rip+0x12ef4]        # 18810 <std::__unicode::__v15_1_0::__width_edges+0x390>
    591b:	00 
    591c:	0f 29 44 24 f8       	movaps XMMWORD PTR [rsp-0x8],xmm0
    5921:	66 0f 6f 05 f7 2e 01 	movdqa xmm0,XMMWORD PTR [rip+0x12ef7]        # 18820 <std::__unicode::__v15_1_0::__width_edges+0x3a0>
    5928:	00 
    5929:	0f 29 44 24 08       	movaps XMMWORD PTR [rsp+0x8],xmm0
    592e:	66 0f 6f 05 fa 2e 01 	movdqa xmm0,XMMWORD PTR [rip+0x12efa]        # 18830 <std::__unicode::__v15_1_0::__width_edges+0x3b0>
    5935:	00 
    5936:	0f 29 44 24 18       	movaps XMMWORD PTR [rsp+0x18],xmm0
    593b:	66 0f 6f 05 fd 2e 01 	movdqa xmm0,XMMWORD PTR [rip+0x12efd]        # 18840 <std::__unicode::__v15_1_0::__width_edges+0x3c0>
    5942:	00 
    5943:	0f 29 44 24 28       	movaps XMMWORD PTR [rsp+0x28],xmm0
    5948:	66 0f 6f 05 00 2f 01 	movdqa xmm0,XMMWORD PTR [rip+0x12f00]        # 18850 <std::__unicode::__v15_1_0::__width_edges+0x3d0>
    594f:	00 
    5950:	0f 29 44 24 38       	movaps XMMWORD PTR [rsp+0x38],xmm0
    5955:	66 0f 6f 05 03 2f 01 	movdqa xmm0,XMMWORD PTR [rip+0x12f03]        # 18860 <std::__unicode::__v15_1_0::__width_edges+0x3e0>
    595c:	00 
    595d:	0f 11 44 24 41       	movups XMMWORD PTR [rsp+0x41],xmm0
      while (__val >= 100)
    5962:	83 fa 63             	cmp    edx,0x63
    5965:	76 4d                	jbe    59b4 <void std::__detail::__to_chars_10_impl<unsigned int>(char*, unsigned int, unsigned int)+0x104>
    5967:	66 0f 1f 84 00 00 00 	nop    WORD PTR [rax+rax*1+0x0]
    596e:	00 00 
	{
	  auto const __num = (__val % 100) * 2;
    5970:	89 ca                	mov    edx,ecx
    5972:	89 c8                	mov    eax,ecx
    5974:	48 69 d2 1f 85 eb 51 	imul   rdx,rdx,0x51eb851f
    597b:	48 c1 ea 25          	shr    rdx,0x25
    597f:	44 6b c2 64          	imul   r8d,edx,0x64
    5983:	44 29 c0             	sub    eax,r8d
    5986:	41 89 c8             	mov    r8d,ecx
	  __val /= 100;
    5989:	89 d1                	mov    ecx,edx
	  __first[__pos] = __digits[__num + 1];
    598b:	89 f2                	mov    edx,esi
	  auto const __num = (__val % 100) * 2;
    598d:	01 c0                	add    eax,eax
	  __first[__pos] = __digits[__num + 1];
    598f:	44 8d 48 01          	lea    r9d,[rax+0x1]
	  __first[__pos - 1] = __digits[__num];
    5993:	0f b6 44 04 88       	movzx  eax,BYTE PTR [rsp+rax*1-0x78]
	  __first[__pos] = __digits[__num + 1];
    5998:	46 0f b6 4c 0c 88    	movzx  r9d,BYTE PTR [rsp+r9*1-0x78]
    599e:	44 88 0c 17          	mov    BYTE PTR [rdi+rdx*1],r9b
	  __first[__pos - 1] = __digits[__num];
    59a2:	8d 56 ff             	lea    edx,[rsi-0x1]
	  __pos -= 2;
    59a5:	83 ee 02             	sub    esi,0x2
	  __first[__pos - 1] = __digits[__num];
    59a8:	88 04 17             	mov    BYTE PTR [rdi+rdx*1],al
      while (__val >= 100)
    59ab:	41 81 f8 0f 27 00 00 	cmp    r8d,0x270f
    59b2:	77 bc                	ja     5970 <void std::__detail::__to_chars_10_impl<unsigned int>(char*, unsigned int, unsigned int)+0xc0>
	  auto const __num = __val * 2;
	  __first[1] = __digits[__num + 1];
	  __first[0] = __digits[__num];
	}
      else
	__first[0] = '0' + __val;
    59b4:	8d 41 30             	lea    eax,[rcx+0x30]
      if (__val >= 10)
    59b7:	83 f9 09             	cmp    ecx,0x9
    59ba:	76 12                	jbe    59ce <void std::__detail::__to_chars_10_impl<unsigned int>(char*, unsigned int, unsigned int)+0x11e>
	  auto const __num = __val * 2;
    59bc:	01 c9                	add    ecx,ecx
	  __first[1] = __digits[__num + 1];
    59be:	8d 41 01             	lea    eax,[rcx+0x1]
    59c1:	0f b6 44 04 88       	movzx  eax,BYTE PTR [rsp+rax*1-0x78]
    59c6:	88 47 01             	mov    BYTE PTR [rdi+0x1],al
	  __first[0] = __digits[__num];
    59c9:	0f b6 44 0c 88       	movzx  eax,BYTE PTR [rsp+rcx*1-0x78]
    59ce:	88 07                	mov    BYTE PTR [rdi],al
    }
    59d0:	48 83 c4 60          	add    rsp,0x60
    59d4:	c3                   	ret
    59d5:	66 2e 0f 1f 84 00 00 	cs nop WORD PTR [rax+rax*1+0x0]
    59dc:	00 00 00 
    59df:	90                   	nop

00000000000059e0 <void std::__detail::__to_chars_10_impl<unsigned long long>(char*, unsigned int, unsigned long long)>:
    __to_chars_10_impl(char* __first, unsigned __len, _Tp __val) noexcept
    59e0:	48 83 ec 60          	sub    rsp,0x60
      constexpr char __digits[201] =
    59e4:	66 0f 6f 05 b4 2d 01 	movdqa xmm0,XMMWORD PTR [rip+0x12db4]        # 187a0 <std::__unicode::__v15_1_0::__width_edges+0x320>
    59eb:	00 
    __to_chars_10_impl(char* __first, unsigned __len, _Tp __val) noexcept
    59ec:	48 89 d1             	mov    rcx,rdx
      unsigned __pos = __len - 1;
    59ef:	83 ee 01             	sub    esi,0x1
      constexpr char __digits[201] =
    59f2:	0f 29 44 24 88       	movaps XMMWORD PTR [rsp-0x78],xmm0
    59f7:	66 0f 6f 05 b1 2d 01 	movdqa xmm0,XMMWORD PTR [rip+0x12db1]        # 187b0 <std::__unicode::__v15_1_0::__width_edges+0x330>
    59fe:	00 
    59ff:	0f 29 44 24 98       	movaps XMMWORD PTR [rsp-0x68],xmm0
    5a04:	66 0f 6f 05 b4 2d 01 	movdqa xmm0,XMMWORD PTR [rip+0x12db4]        # 187c0 <std::__unicode::__v15_1_0::__width_edges+0x340>
    5a0b:	00 
    5a0c:	0f 29 44 24 a8       	movaps XMMWORD PTR [rsp-0x58],xmm0
    5a11:	66 0f 6f 05 b7 2d 01 	movdqa xmm0,XMMWORD PTR [rip+0x12db7]        # 187d0 <std::__unicode::__v15_1_0::__width_edges+0x350>
    5a18:	00 
    5a19:	0f 29 44 24 b8       	movaps XMMWORD PTR [rsp-0x48],xmm0
    5a1e:	66 0f 6f 05 ba 2d 01 	movdqa xmm0,XMMWORD PTR [rip+0x12dba]        # 187e0 <std::__unicode::__v15_1_0::__width_edges+0x360>
    5a25:	00 
    5a26:	0f 29 44 24 c8       	movaps XMMWORD PTR [rsp-0x38],xmm0
    5a2b:	66 0f 6f 05 bd 2d 01 	movdqa xmm0,XMMWORD PTR [rip+0x12dbd]        # 187f0 <std::__unicode::__v15_1_0::__width_edges+0x370>
    5a32:	00 
    5a33:	0f 29 44 24 d8       	movaps XMMWORD PTR [rsp-0x28],xmm0
    5a38:	66 0f 6f 05 c0 2d 01 	movdqa xmm0,XMMWORD PTR [rip+0x12dc0]        # 18800 <std::__unicode::__v15_1_0::__width_edges+0x380>
    5a3f:	00 
    5a40:	0f 29 44 24 e8       	movaps XMMWORD PTR [rsp-0x18],xmm0
    5a45:	66 0f 6f 05 c3 2d 01 	movdqa xmm0,XMMWORD PTR [rip+0x12dc3]        # 18810 <std::__unicode::__v15_1_0::__width_edges+0x390>
    5a4c:	00 
    5a4d:	0f 29 44 24 f8       	movaps XMMWORD PTR [rsp-0x8],xmm0
    5a52:	66 0f 6f 05 c6 2d 01 	movdqa xmm0,XMMWORD PTR [rip+0x12dc6]        # 18820 <std::__unicode::__v15_1_0::__width_edges+0x3a0>
    5a59:	00 
    5a5a:	0f 29 44 24 08       	movaps XMMWORD PTR [rsp+0x8],xmm0
    5a5f:	66 0f 6f 05 c9 2d 01 	movdqa xmm0,XMMWORD PTR [rip+0x12dc9]        # 18830 <std::__unicode::__v15_1_0::__width_edges+0x3b0>
    5a66:	00 
    5a67:	0f 29 44 24 18       	movaps XMMWORD PTR [rsp+0x18],xmm0
    5a6c:	66 0f 6f 05 cc 2d 01 	movdqa xmm0,XMMWORD PTR [rip+0x12dcc]        # 18840 <std::__unicode::__v15_1_0::__width_edges+0x3c0>
    5a73:	00 
    5a74:	0f 29 44 24 28       	movaps XMMWORD PTR [rsp+0x28],xmm0
    5a79:	66 0f 6f 05 cf 2d 01 	movdqa xmm0,XMMWORD PTR [rip+0x12dcf]        # 18850 <std::__unicode::__v15_1_0::__width_edges+0x3d0>
    5a80:	00 
    5a81:	0f 29 44 24 38       	movaps XMMWORD PTR [rsp+0x38],xmm0
    5a86:	66 0f 6f 05 d2 2d 01 	movdqa xmm0,XMMWORD PTR [rip+0x12dd2]        # 18860 <std::__unicode::__v15_1_0::__width_edges+0x3e0>
    5a8d:	00 
    5a8e:	0f 11 44 24 41       	movups XMMWORD PTR [rsp+0x41],xmm0
      while (__val >= 100)
    5a93:	48 83 fa 63          	cmp    rdx,0x63
    5a97:	76 6f                	jbe    5b08 <void std::__detail::__to_chars_10_impl<unsigned long long>(char*, unsigned int, unsigned long long)+0x128>
	  auto const __num = (__val % 100) * 2;
    5a99:	49 b9 c3 f5 28 5c 8f 	movabs r9,0x28f5c28f5c28f5c3
    5aa0:	c2 f5 28 
    5aa3:	66 66 2e 0f 1f 84 00 	data16 cs nop WORD PTR [rax+rax*1+0x0]
    5aaa:	00 00 00 00 
    5aae:	66 90                	xchg   ax,ax
    5ab0:	48 89 ca             	mov    rdx,rcx
    5ab3:	48 c1 ea 02          	shr    rdx,0x2
    5ab7:	48 89 d0             	mov    rax,rdx
    5aba:	49 f7 e1             	mul    r9
    5abd:	48 89 c8             	mov    rax,rcx
    5ac0:	49 89 d0             	mov    r8,rdx
    5ac3:	48 83 e2 fc          	and    rdx,0xfffffffffffffffc
    5ac7:	49 c1 e8 02          	shr    r8,0x2
    5acb:	4c 01 c2             	add    rdx,r8
    5ace:	48 8d 14 92          	lea    rdx,[rdx+rdx*4]
    5ad2:	48 c1 e2 02          	shl    rdx,0x2
    5ad6:	48 29 d0             	sub    rax,rdx
    5ad9:	48 89 ca             	mov    rdx,rcx
	  __val /= 100;
    5adc:	4c 89 c1             	mov    rcx,r8
	  __first[__pos] = __digits[__num + 1];
    5adf:	41 89 f0             	mov    r8d,esi
	  auto const __num = (__val % 100) * 2;
    5ae2:	48 01 c0             	add    rax,rax
	  __first[__pos] = __digits[__num + 1];
    5ae5:	44 0f b6 54 04 89    	movzx  r10d,BYTE PTR [rsp+rax*1-0x77]
	  __first[__pos - 1] = __digits[__num];
    5aeb:	0f b6 44 04 88       	movzx  eax,BYTE PTR [rsp+rax*1-0x78]
	  __first[__pos] = __digits[__num + 1];
    5af0:	46 88 14 07          	mov    BYTE PTR [rdi+r8*1],r10b
	  __first[__pos - 1] = __digits[__num];
    5af4:	44 8d 46 ff          	lea    r8d,[rsi-0x1]
	  __pos -= 2;
    5af8:	83 ee 02             	sub    esi,0x2
	  __first[__pos - 1] = __digits[__num];
    5afb:	42 88 04 07          	mov    BYTE PTR [rdi+r8*1],al
      while (__val >= 100)
    5aff:	48 81 fa 0f 27 00 00 	cmp    rdx,0x270f
    5b06:	77 a8                	ja     5ab0 <void std::__detail::__to_chars_10_impl<unsigned long long>(char*, unsigned int, unsigned long long)+0xd0>
	__first[0] = '0' + __val;
    5b08:	8d 41 30             	lea    eax,[rcx+0x30]
      if (__val >= 10)
    5b0b:	48 83 f9 09          	cmp    rcx,0x9
    5b0f:	76 10                	jbe    5b21 <void std::__detail::__to_chars_10_impl<unsigned long long>(char*, unsigned int, unsigned long long)+0x141>
	  auto const __num = __val * 2;
    5b11:	48 01 c9             	add    rcx,rcx
	  __first[1] = __digits[__num + 1];
    5b14:	0f b6 44 0c 89       	movzx  eax,BYTE PTR [rsp+rcx*1-0x77]
    5b19:	88 47 01             	mov    BYTE PTR [rdi+0x1],al
	  __first[0] = __digits[__num];
    5b1c:	0f b6 44 0c 88       	movzx  eax,BYTE PTR [rsp+rcx*1-0x78]
    5b21:	88 07                	mov    BYTE PTR [rdi],al
    }
    5b23:	48 83 c4 60          	add    rsp,0x60
    5b27:	c3                   	ret
    5b28:	66 2e 0f 1f 84 00 00 	cs nop WORD PTR [rax+rax*1+0x0]
    5b2f:	00 00 00 
    5b32:	66 2e 0f 1f 84 00 00 	cs nop WORD PTR [rax+rax*1+0x0]
    5b39:	00 00 00 
    5b3c:	0f 1f 40 00          	nop    DWORD PTR [rax+0x0]

0000000000005b40 <std::to_chars_result std::__detail::__to_chars_16<unsigned long>(char*, char*, unsigned long)>:
      if (__builtin_expect((__last - __first) < __len, 0))
    5b40:	48 89 f1             	mov    rcx,rsi
    5b43:	48 29 f9             	sub    rcx,rdi
    __countl_zero(_Tp __x) noexcept
    {
      using __gnu_cxx::__int_traits;
      constexpr auto _Nd = __int_traits<_Tp>::__digits;

      if (__x == 0)
    5b46:	48 85 d2             	test   rdx,rdx
    5b49:	0f 84 c1 00 00 00    	je     5c10 <std::to_chars_result std::__detail::__to_chars_16<unsigned long>(char*, char*, unsigned long)+0xd0>
      const unsigned __len = (__to_chars_len_2(__val) + 3) / 4;
    5b4f:	48 0f bd c2          	bsr    rax,rdx
    5b53:	83 c0 04             	add    eax,0x4
    5b56:	c1 e8 02             	shr    eax,0x2
      if (__builtin_expect((__last - __first) < __len, 0))
    5b59:	41 89 c0             	mov    r8d,eax
    5b5c:	49 39 c8             	cmp    r8,rcx
