
./a.out:     file format elf64-littleaarch64


Disassembly of section .init:

00000000000019a8 <_init>:
    19a8:	d503201f 	nop
    19ac:	a9bf7bfd 	stp	x29, x30, [sp, #-16]!
    19b0:	910003fd 	mov	x29, sp
    19b4:	940000f0 	bl	1d74 <call_weak_fn>
    19b8:	a8c17bfd 	ldp	x29, x30, [sp], #16
    19bc:	d65f03c0 	ret

Disassembly of section .plt:

00000000000019c0 <.plt>:
    19c0:	a9bf7bf0 	stp	x16, x30, [sp, #-16]!
    19c4:	d0000170 	adrp	x16, 2f000 <__FRAME_END__+0x1c6fc>
    19c8:	f947fe11 	ldr	x17, [x16, #4088]
    19cc:	913fe210 	add	x16, x16, #0xff8
    19d0:	d61f0220 	br	x17
    19d4:	d503201f 	nop
    19d8:	d503201f 	nop
    19dc:	d503201f 	nop

00000000000019e0 <std::__1::basic_ios<char, std::__1::char_traits<char> >::~basic_ios()@plt>:
    19e0:	f0000170 	adrp	x16, 30000 <std::__1::basic_ios<char, std::__1::char_traits<char> >::~basic_ios()@Base>
    19e4:	f9400211 	ldr	x17, [x16]
    19e8:	91000210 	add	x16, x16, #0x0
    19ec:	d61f0220 	br	x17

00000000000019f0 <pthread_setspecific@plt>:
    19f0:	f0000170 	adrp	x16, 30000 <std::__1::basic_ios<char, std::__1::char_traits<char> >::~basic_ios()@Base>
    19f4:	f9400611 	ldr	x17, [x16, #8]
    19f8:	91002210 	add	x16, x16, #0x8
    19fc:	d61f0220 	br	x17

0000000000001a00 <std::__1::locale::locale()@plt>:
    1a00:	f0000170 	adrp	x16, 30000 <std::__1::basic_ios<char, std::__1::char_traits<char> >::~basic_ios()@Base>
    1a04:	f9400a11 	ldr	x17, [x16, #16]
    1a08:	91004210 	add	x16, x16, #0x10
    1a0c:	d61f0220 	br	x17

0000000000001a10 <operator new(unsigned long)@plt>:
    1a10:	f0000170 	adrp	x16, 30000 <std::__1::basic_ios<char, std::__1::char_traits<char> >::~basic_ios()@Base>
    1a14:	f9400e11 	ldr	x17, [x16, #24]
    1a18:	91006210 	add	x16, x16, #0x18
    1a1c:	d61f0220 	br	x17

0000000000001a20 <__gmon_start__@plt>:
    1a20:	f0000170 	adrp	x16, 30000 <std::__1::basic_ios<char, std::__1::char_traits<char> >::~basic_ios()@Base>
    1a24:	f9401211 	ldr	x17, [x16, #32]
    1a28:	91008210 	add	x16, x16, #0x20
    1a2c:	d61f0220 	br	x17

0000000000001a30 <std::__1::basic_streambuf<char, std::__1::char_traits<char> >::~basic_streambuf()@plt>:
    1a30:	f0000170 	adrp	x16, 30000 <std::__1::basic_ios<char, std::__1::char_traits<char> >::~basic_ios()@Base>
    1a34:	f9401611 	ldr	x17, [x16, #40]
    1a38:	9100a210 	add	x16, x16, #0x28
    1a3c:	d61f0220 	br	x17

0000000000001a40 <std::__1::to_chars(char*, char*, long double)@plt>:
    1a40:	f0000170 	adrp	x16, 30000 <std::__1::basic_ios<char, std::__1::char_traits<char> >::~basic_ios()@Base>
    1a44:	f9401a11 	ldr	x17, [x16, #48]
    1a48:	9100c210 	add	x16, x16, #0x30
    1a4c:	d61f0220 	br	x17

0000000000001a50 <std::__1::to_chars(char*, char*, float, std::__1::chars_format, int)@plt>:
    1a50:	f0000170 	adrp	x16, 30000 <std::__1::basic_ios<char, std::__1::char_traits<char> >::~basic_ios()@Base>
    1a54:	f9401e11 	ldr	x17, [x16, #56]
    1a58:	9100e210 	add	x16, x16, #0x38
    1a5c:	d61f0220 	br	x17

0000000000001a60 <std::__1::to_chars(char*, char*, long double, std::__1::chars_format, int)@plt>:
    1a60:	f0000170 	adrp	x16, 30000 <std::__1::basic_ios<char, std::__1::char_traits<char> >::~basic_ios()@Base>
    1a64:	f9402211 	ldr	x17, [x16, #64]
    1a68:	91010210 	add	x16, x16, #0x40
    1a6c:	d61f0220 	br	x17

0000000000001a70 <std::__1::__throw_system_error(int, char const*)@plt>:
    1a70:	f0000170 	adrp	x16, 30000 <std::__1::basic_ios<char, std::__1::char_traits<char> >::~basic_ios()@Base>
    1a74:	f9402611 	ldr	x17, [x16, #72]
    1a78:	91012210 	add	x16, x16, #0x48
    1a7c:	d61f0220 	br	x17

0000000000001a80 <std::__1::ios_base::clear(unsigned int)@plt>:
    1a80:	f0000170 	adrp	x16, 30000 <std::__1::basic_ios<char, std::__1::char_traits<char> >::~basic_ios()@Base>
    1a84:	f9402a11 	ldr	x17, [x16, #80]
    1a88:	91014210 	add	x16, x16, #0x50
    1a8c:	d61f0220 	br	x17

0000000000001a90 <std::__1::time_put<char, std::__1::ostreambuf_iterator<char, std::__1::char_traits<char> > >::put(std::__1::ostreambuf_iterator<char, std::__1::char_traits<char> >, std::__1::ios_base&, char, tm const*, char const*, char const*) const@plt>:
    1a90:	f0000170 	adrp	x16, 30000 <std::__1::basic_ios<char, std::__1::char_traits<char> >::~basic_ios()@Base>
    1a94:	f9402e11 	ldr	x17, [x16, #88]
    1a98:	91016210 	add	x16, x16, #0x58
    1a9c:	d61f0220 	br	x17

0000000000001aa0 <std::__1::ios_base::init(void*)@plt>:
    1aa0:	f0000170 	adrp	x16, 30000 <std::__1::basic_ios<char, std::__1::char_traits<char> >::~basic_ios()@Base>
    1aa4:	f9403211 	ldr	x17, [x16, #96]
    1aa8:	91018210 	add	x16, x16, #0x60
    1aac:	d61f0220 	br	x17

0000000000001ab0 <__cxa_finalize@plt>:
    1ab0:	f0000170 	adrp	x16, 30000 <std::__1::basic_ios<char, std::__1::char_traits<char> >::~basic_ios()@Base>
    1ab4:	f9403611 	ldr	x17, [x16, #104]
    1ab8:	9101a210 	add	x16, x16, #0x68
    1abc:	d61f0220 	br	x17

0000000000001ac0 <std::__1::thread::~thread()@plt>:
    1ac0:	f0000170 	adrp	x16, 30000 <std::__1::basic_ios<char, std::__1::char_traits<char> >::~basic_ios()@Base>
    1ac4:	f9403a11 	ldr	x17, [x16, #112]
    1ac8:	9101c210 	add	x16, x16, #0x70
    1acc:	d61f0220 	br	x17

0000000000001ad0 <std::__1::locale::operator=(std::__1::locale const&)@plt>:
    1ad0:	f0000170 	adrp	x16, 30000 <std::__1::basic_ios<char, std::__1::char_traits<char> >::~basic_ios()@Base>
    1ad4:	f9403e11 	ldr	x17, [x16, #120]
    1ad8:	9101e210 	add	x16, x16, #0x78
    1adc:	d61f0220 	br	x17

0000000000001ae0 <pthread_create@plt>:
    1ae0:	f0000170 	adrp	x16, 30000 <std::__1::basic_ios<char, std::__1::char_traits<char> >::~basic_ios()@Base>
    1ae4:	f9404211 	ldr	x17, [x16, #128]
    1ae8:	91020210 	add	x16, x16, #0x80
    1aec:	d61f0220 	br	x17

0000000000001af0 <std::__1::to_chars(char*, char*, long double, std::__1::chars_format)@plt>:
    1af0:	f0000170 	adrp	x16, 30000 <std::__1::basic_ios<char, std::__1::char_traits<char> >::~basic_ios()@Base>
    1af4:	f9404611 	ldr	x17, [x16, #136]
    1af8:	91022210 	add	x16, x16, #0x88
    1afc:	d61f0220 	br	x17

0000000000001b00 <std::__1::locale::classic()@plt>:
    1b00:	f0000170 	adrp	x16, 30000 <std::__1::basic_ios<char, std::__1::char_traits<char> >::~basic_ios()@Base>
    1b04:	f9404a11 	ldr	x17, [x16, #144]
    1b08:	91024210 	add	x16, x16, #0x90
    1b0c:	d61f0220 	br	x17

0000000000001b10 <abort@plt>:
    1b10:	f0000170 	adrp	x16, 30000 <std::__1::basic_ios<char, std::__1::char_traits<char> >::~basic_ios()@Base>
    1b14:	f9404e11 	ldr	x17, [x16, #152]
    1b18:	91026210 	add	x16, x16, #0x98
    1b1c:	d61f0220 	br	x17

0000000000001b20 <std::__1::to_chars(char*, char*, double)@plt>:
    1b20:	f0000170 	adrp	x16, 30000 <std::__1::basic_ios<char, std::__1::char_traits<char> >::~basic_ios()@Base>
    1b24:	f9405211 	ldr	x17, [x16, #160]
    1b28:	91028210 	add	x16, x16, #0xa0
    1b2c:	d61f0220 	br	x17

0000000000001b30 <std::__1::thread::join()@plt>:
    1b30:	f0000170 	adrp	x16, 30000 <std::__1::basic_ios<char, std::__1::char_traits<char> >::~basic_ios()@Base>
    1b34:	f9405611 	ldr	x17, [x16, #168]
    1b38:	9102a210 	add	x16, x16, #0xa8
    1b3c:	d61f0220 	br	x17

0000000000001b40 <std::__1::to_chars(char*, char*, double, std::__1::chars_format)@plt>:
    1b40:	f0000170 	adrp	x16, 30000 <std::__1::basic_ios<char, std::__1::char_traits<char> >::~basic_ios()@Base>
    1b44:	f9405a11 	ldr	x17, [x16, #176]
    1b48:	9102c210 	add	x16, x16, #0xb0
    1b4c:	d61f0220 	br	x17

0000000000001b50 <std::__1::basic_streambuf<char, std::__1::char_traits<char> >::basic_streambuf()@plt>:
    1b50:	f0000170 	adrp	x16, 30000 <std::__1::basic_ios<char, std::__1::char_traits<char> >::~basic_ios()@Base>
    1b54:	f9405e11 	ldr	x17, [x16, #184]
    1b58:	9102e210 	add	x16, x16, #0xb8
    1b5c:	d61f0220 	br	x17

0000000000001b60 <std::__1::basic_ostream<char, std::__1::char_traits<char> >::sentry::sentry(std::__1::basic_ostream<char, std::__1::char_traits<char> >&)@plt>:
    1b60:	f0000170 	adrp	x16, 30000 <std::__1::basic_ios<char, std::__1::char_traits<char> >::~basic_ios()@Base>
    1b64:	f9406211 	ldr	x17, [x16, #192]
    1b68:	91030210 	add	x16, x16, #0xc0
    1b6c:	d61f0220 	br	x17

0000000000001b70 <std::__1::basic_string<char, std::__1::char_traits<char>, std::__1::allocator<char> >::push_back(char)@plt>:
    1b70:	f0000170 	adrp	x16, 30000 <std::__1::basic_ios<char, std::__1::char_traits<char> >::~basic_ios()@Base>
    1b74:	f9406611 	ldr	x17, [x16, #200]
    1b78:	91032210 	add	x16, x16, #0xc8
    1b7c:	d61f0220 	br	x17

0000000000001b80 <std::__1::basic_ostream<char, std::__1::char_traits<char> >::operator<<(int)@plt>:
    1b80:	f0000170 	adrp	x16, 30000 <std::__1::basic_ios<char, std::__1::char_traits<char> >::~basic_ios()@Base>
    1b84:	f9406a11 	ldr	x17, [x16, #208]
    1b88:	91034210 	add	x16, x16, #0xd0
    1b8c:	d61f0220 	br	x17

0000000000001b90 <std::__1::__libcpp_verbose_abort(char const*, ...)@plt>:
    1b90:	f0000170 	adrp	x16, 30000 <std::__1::basic_ios<char, std::__1::char_traits<char> >::~basic_ios()@Base>
    1b94:	f9406e11 	ldr	x17, [x16, #216]
    1b98:	91036210 	add	x16, x16, #0xd8
    1b9c:	d61f0220 	br	x17

0000000000001ba0 <std::__1::__thread_struct::~__thread_struct()@plt>:
    1ba0:	f0000170 	adrp	x16, 30000 <std::__1::basic_ios<char, std::__1::char_traits<char> >::~basic_ios()@Base>
    1ba4:	f9407211 	ldr	x17, [x16, #224]
    1ba8:	91038210 	add	x16, x16, #0xe0
    1bac:	d61f0220 	br	x17

0000000000001bb0 <std::__1::ios_base::getloc() const@plt>:
    1bb0:	f0000170 	adrp	x16, 30000 <std::__1::basic_ios<char, std::__1::char_traits<char> >::~basic_ios()@Base>
    1bb4:	f9407611 	ldr	x17, [x16, #232]
    1bb8:	9103a210 	add	x16, x16, #0xe8
    1bbc:	d61f0220 	br	x17

0000000000001bc0 <std::__1::locale::locale(std::__1::locale const&)@plt>:
    1bc0:	f0000170 	adrp	x16, 30000 <std::__1::basic_ios<char, std::__1::char_traits<char> >::~basic_ios()@Base>
    1bc4:	f9407a11 	ldr	x17, [x16, #240]
    1bc8:	9103c210 	add	x16, x16, #0xf0
    1bcc:	d61f0220 	br	x17

0000000000001bd0 <std::__1::chrono::steady_clock::now()@plt>:
    1bd0:	f0000170 	adrp	x16, 30000 <std::__1::basic_ios<char, std::__1::char_traits<char> >::~basic_ios()@Base>
    1bd4:	f9407e11 	ldr	x17, [x16, #248]
    1bd8:	9103e210 	add	x16, x16, #0xf8
    1bdc:	d61f0220 	br	x17

0000000000001be0 <std::__1::basic_ostream<char, std::__1::char_traits<char> >::sentry::~sentry()@plt>:
    1be0:	f0000170 	adrp	x16, 30000 <std::__1::basic_ios<char, std::__1::char_traits<char> >::~basic_ios()@Base>
    1be4:	f9408211 	ldr	x17, [x16, #256]
    1be8:	91040210 	add	x16, x16, #0x100
    1bec:	d61f0220 	br	x17

0000000000001bf0 <std::__1::to_chars(char*, char*, double, std::__1::chars_format, int)@plt>:
    1bf0:	f0000170 	adrp	x16, 30000 <std::__1::basic_ios<char, std::__1::char_traits<char> >::~basic_ios()@Base>
    1bf4:	f9408611 	ldr	x17, [x16, #264]
    1bf8:	91042210 	add	x16, x16, #0x108
    1bfc:	d61f0220 	br	x17

0000000000001c00 <std::__1::locale::use_facet(std::__1::locale::id&) const@plt>:
    1c00:	f0000170 	adrp	x16, 30000 <std::__1::basic_ios<char, std::__1::char_traits<char> >::~basic_ios()@Base>
    1c04:	f9408a11 	ldr	x17, [x16, #272]
    1c08:	91044210 	add	x16, x16, #0x110
    1c0c:	d61f0220 	br	x17

0000000000001c10 <std::__1::to_chars(char*, char*, float, std::__1::chars_format)@plt>:
    1c10:	f0000170 	adrp	x16, 30000 <std::__1::basic_ios<char, std::__1::char_traits<char> >::~basic_ios()@Base>
    1c14:	f9408e11 	ldr	x17, [x16, #280]
    1c18:	91046210 	add	x16, x16, #0x118
    1c1c:	d61f0220 	br	x17

0000000000001c20 <memchr@plt>:
    1c20:	f0000170 	adrp	x16, 30000 <std::__1::basic_ios<char, std::__1::char_traits<char> >::~basic_ios()@Base>
    1c24:	f9409211 	ldr	x17, [x16, #288]
    1c28:	91048210 	add	x16, x16, #0x120
    1c2c:	d61f0220 	br	x17

0000000000001c30 <std::__1::locale::~locale()@plt>:
    1c30:	f0000170 	adrp	x16, 30000 <std::__1::basic_ios<char, std::__1::char_traits<char> >::~basic_ios()@Base>
    1c34:	f9409611 	ldr	x17, [x16, #296]
    1c38:	9104a210 	add	x16, x16, #0x128
    1c3c:	d61f0220 	br	x17

0000000000001c40 <std::__1::ios_base::imbue(std::__1::locale const&)@plt>:
    1c40:	f0000170 	adrp	x16, 30000 <std::__1::basic_ios<char, std::__1::char_traits<char> >::~basic_ios()@Base>
    1c44:	f9409a11 	ldr	x17, [x16, #304]
    1c48:	9104c210 	add	x16, x16, #0x130
    1c4c:	d61f0220 	br	x17

0000000000001c50 <std::__1::basic_ostream<char, std::__1::char_traits<char> >::operator<<(double)@plt>:
    1c50:	f0000170 	adrp	x16, 30000 <std::__1::basic_ios<char, std::__1::char_traits<char> >::~basic_ios()@Base>
    1c54:	f9409e11 	ldr	x17, [x16, #312]
    1c58:	9104e210 	add	x16, x16, #0x138
    1c5c:	d61f0220 	br	x17

0000000000001c60 <std::__1::__thread_local_data()@plt>:
    1c60:	f0000170 	adrp	x16, 30000 <std::__1::basic_ios<char, std::__1::char_traits<char> >::~basic_ios()@Base>
    1c64:	f940a211 	ldr	x17, [x16, #320]
    1c68:	91050210 	add	x16, x16, #0x140
    1c6c:	d61f0220 	br	x17

0000000000001c70 <std::__1::basic_ostream<char, std::__1::char_traits<char> >::~basic_ostream()@plt>:
    1c70:	f0000170 	adrp	x16, 30000 <std::__1::basic_ios<char, std::__1::char_traits<char> >::~basic_ios()@Base>
    1c74:	f940a611 	ldr	x17, [x16, #328]
    1c78:	91052210 	add	x16, x16, #0x148
    1c7c:	d61f0220 	br	x17

0000000000001c80 <std::__1::basic_string<char, std::__1::char_traits<char>, std::__1::allocator<char> >::append(char const*)@plt>:
    1c80:	f0000170 	adrp	x16, 30000 <std::__1::basic_ios<char, std::__1::char_traits<char> >::~basic_ios()@Base>
    1c84:	f940aa11 	ldr	x17, [x16, #336]
    1c88:	91054210 	add	x16, x16, #0x150
    1c8c:	d61f0220 	br	x17

0000000000001c90 <std::__1::to_chars(char*, char*, float)@plt>:
    1c90:	f0000170 	adrp	x16, 30000 <std::__1::basic_ios<char, std::__1::char_traits<char> >::~basic_ios()@Base>
    1c94:	f940ae11 	ldr	x17, [x16, #344]
    1c98:	91056210 	add	x16, x16, #0x158
    1c9c:	d61f0220 	br	x17

0000000000001ca0 <std::__1::__thread_struct::__thread_struct()@plt>:
    1ca0:	f0000170 	adrp	x16, 30000 <std::__1::basic_ios<char, std::__1::char_traits<char> >::~basic_ios()@Base>
    1ca4:	f940b211 	ldr	x17, [x16, #352]
    1ca8:	91058210 	add	x16, x16, #0x160
    1cac:	d61f0220 	br	x17

0000000000001cb0 <memmove@plt>:
    1cb0:	f0000170 	adrp	x16, 30000 <std::__1::basic_ios<char, std::__1::char_traits<char> >::~basic_ios()@Base>
    1cb4:	f940b611 	ldr	x17, [x16, #360]
    1cb8:	9105a210 	add	x16, x16, #0x168
    1cbc:	d61f0220 	br	x17

0000000000001cc0 <__libc_start_main@plt>:
    1cc0:	f0000170 	adrp	x16, 30000 <std::__1::basic_ios<char, std::__1::char_traits<char> >::~basic_ios()@Base>
    1cc4:	f940ba11 	ldr	x17, [x16, #368]
    1cc8:	9105c210 	add	x16, x16, #0x170
    1ccc:	d61f0220 	br	x17

0000000000001cd0 <operator delete(void*, unsigned long)@plt>:
    1cd0:	f0000170 	adrp	x16, 30000 <std::__1::basic_ios<char, std::__1::char_traits<char> >::~basic_ios()@Base>
    1cd4:	f940be11 	ldr	x17, [x16, #376]
    1cd8:	9105e210 	add	x16, x16, #0x178
    1cdc:	d61f0220 	br	x17

0000000000001ce0 <strlen@plt>:
    1ce0:	f0000170 	adrp	x16, 30000 <std::__1::basic_ios<char, std::__1::char_traits<char> >::~basic_ios()@Base>
    1ce4:	f940c211 	ldr	x17, [x16, #384]
    1ce8:	91060210 	add	x16, x16, #0x180
    1cec:	d61f0220 	br	x17

0000000000001cf0 <std::__1::basic_iostream<char, std::__1::char_traits<char> >::~basic_iostream()@plt>:
    1cf0:	f0000170 	adrp	x16, 30000 <std::__1::basic_ios<char, std::__1::char_traits<char> >::~basic_ios()@Base>
    1cf4:	f940c611 	ldr	x17, [x16, #392]
    1cf8:	91062210 	add	x16, x16, #0x188
    1cfc:	d61f0220 	br	x17

0000000000001d00 <memset@plt>:
    1d00:	f0000170 	adrp	x16, 30000 <std::__1::basic_ios<char, std::__1::char_traits<char> >::~basic_ios()@Base>
    1d04:	f940ca11 	ldr	x17, [x16, #400]
    1d08:	91064210 	add	x16, x16, #0x190
    1d0c:	d61f0220 	br	x17

Disassembly of section .text:

0000000000001d40 <_start>:
    1d40:	d503201f 	nop
    1d44:	d280001d 	mov	x29, #0x0                   	// #0
    1d48:	d280001e 	mov	x30, #0x0                   	// #0
    1d4c:	aa0003e5 	mov	x5, x0
    1d50:	f94003e1 	ldr	x1, [sp]
    1d54:	910023e2 	add	x2, sp, #0x8
    1d58:	910003e6 	mov	x6, sp
    1d5c:	d0000160 	adrp	x0, 2f000 <__FRAME_END__+0x1c6fc>
    1d60:	f947f000 	ldr	x0, [x0, #4064]
    1d64:	d2800003 	mov	x3, #0x0                   	// #0
    1d68:	d2800004 	mov	x4, #0x0                   	// #0
    1d6c:	97ffffd5 	bl	1cc0 <__libc_start_main@plt>
    1d70:	97ffff68 	bl	1b10 <abort@plt>

0000000000001d74 <call_weak_fn>:
    1d74:	d0000160 	adrp	x0, 2f000 <__FRAME_END__+0x1c6fc>
    1d78:	f947bc00 	ldr	x0, [x0, #3960]
    1d7c:	b4000040 	cbz	x0, 1d84 <call_weak_fn+0x10>
    1d80:	17ffff28 	b	1a20 <__gmon_start__@plt>
    1d84:	d65f03c0 	ret
    1d88:	d503201f 	nop
    1d8c:	d503201f 	nop

0000000000001d90 <deregister_tm_clones>:
    1d90:	f0000160 	adrp	x0, 30000 <std::__1::basic_ios<char, std::__1::char_traits<char> >::~basic_ios()@Base>
    1d94:	9106a000 	add	x0, x0, #0x1a8
    1d98:	f0000161 	adrp	x1, 30000 <std::__1::basic_ios<char, std::__1::char_traits<char> >::~basic_ios()@Base>
    1d9c:	9106a021 	add	x1, x1, #0x1a8
    1da0:	eb00003f 	cmp	x1, x0
    1da4:	540000c0 	b.eq	1dbc <deregister_tm_clones+0x2c>  // b.none
    1da8:	d0000161 	adrp	x1, 2f000 <__FRAME_END__+0x1c6fc>
    1dac:	f947cc21 	ldr	x1, [x1, #3992]
    1db0:	b4000061 	cbz	x1, 1dbc <deregister_tm_clones+0x2c>
    1db4:	aa0103f0 	mov	x16, x1
    1db8:	d61f0200 	br	x16
    1dbc:	d65f03c0 	ret

0000000000001dc0 <register_tm_clones>:
    1dc0:	f0000160 	adrp	x0, 30000 <std::__1::basic_ios<char, std::__1::char_traits<char> >::~basic_ios()@Base>
    1dc4:	9106a000 	add	x0, x0, #0x1a8
    1dc8:	f0000161 	adrp	x1, 30000 <std::__1::basic_ios<char, std::__1::char_traits<char> >::~basic_ios()@Base>
    1dcc:	9106a021 	add	x1, x1, #0x1a8
    1dd0:	cb000021 	sub	x1, x1, x0
    1dd4:	d37ffc22 	lsr	x2, x1, #63
    1dd8:	8b810c41 	add	x1, x2, x1, asr #3
    1ddc:	9341fc21 	asr	x1, x1, #1
    1de0:	b40000c1 	cbz	x1, 1df8 <register_tm_clones+0x38>
    1de4:	d0000162 	adrp	x2, 2f000 <__FRAME_END__+0x1c6fc>
    1de8:	f947d042 	ldr	x2, [x2, #4000]
    1dec:	b4000062 	cbz	x2, 1df8 <register_tm_clones+0x38>
    1df0:	aa0203f0 	mov	x16, x2
    1df4:	d61f0200 	br	x16
    1df8:	d65f03c0 	ret
    1dfc:	d503201f 	nop

0000000000001e00 <__do_global_dtors_aux>:
    1e00:	a9be7bfd 	stp	x29, x30, [sp, #-32]!
    1e04:	910003fd 	mov	x29, sp
    1e08:	f9000bf3 	str	x19, [sp, #16]
    1e0c:	f0000173 	adrp	x19, 30000 <std::__1::basic_ios<char, std::__1::char_traits<char> >::~basic_ios()@Base>
    1e10:	3946a260 	ldrb	w0, [x19, #424]
    1e14:	35000140 	cbnz	w0, 1e3c <__do_global_dtors_aux+0x3c>
    1e18:	d0000160 	adrp	x0, 2f000 <__FRAME_END__+0x1c6fc>
    1e1c:	f947c800 	ldr	x0, [x0, #3984]
    1e20:	b4000080 	cbz	x0, 1e30 <__do_global_dtors_aux+0x30>
    1e24:	f0000160 	adrp	x0, 30000 <std::__1::basic_ios<char, std::__1::char_traits<char> >::~basic_ios()@Base>
    1e28:	f940d000 	ldr	x0, [x0, #416]
    1e2c:	97ffff21 	bl	1ab0 <__cxa_finalize@plt>
    1e30:	97ffffd8 	bl	1d90 <deregister_tm_clones>
    1e34:	52800020 	mov	w0, #0x1                   	// #1
    1e38:	3906a260 	strb	w0, [x19, #424]
    1e3c:	f9400bf3 	ldr	x19, [sp, #16]
    1e40:	a8c27bfd 	ldp	x29, x30, [sp], #32
    1e44:	d65f03c0 	ret
    1e48:	d503201f 	nop
    1e4c:	d503201f 	nop

0000000000001e50 <frame_dummy>:
    1e50:	17ffffdc 	b	1dc0 <register_tm_clones>

0000000000001e54 <main>:
    1e54:	a9ba7bfd 	stp	x29, x30, [sp, #-96]!
    1e58:	a9016ffc 	stp	x28, x27, [sp, #16]
    1e5c:	a90267fa 	stp	x26, x25, [sp, #32]
    1e60:	a9035ff8 	stp	x24, x23, [sp, #48]
    1e64:	a90457f6 	stp	x22, x21, [sp, #64]
    1e68:	a9054ff4 	stp	x20, x19, [sp, #80]
    1e6c:	910003fd 	mov	x29, sp
    1e70:	d10883ff 	sub	sp, sp, #0x220
    1e74:	f90027ff 	str	xzr, [sp, #72]
    1e78:	97ffff56 	bl	1bd0 <std::__1::chrono::steady_clock::now()@plt>
    1e7c:	aa0003f3 	mov	x19, x0
    1e80:	52800100 	mov	w0, #0x8                   	// #8
    1e84:	97fffee3 	bl	1a10 <operator new(unsigned long)@plt>
    1e88:	aa0003f4 	mov	x20, x0
    1e8c:	97ffff85 	bl	1ca0 <std::__1::__thread_struct::__thread_struct()@plt>
    1e90:	52800400 	mov	w0, #0x20                  	// #32
    1e94:	97fffedf 	bl	1a10 <operator new(unsigned long)@plt>
    1e98:	910133f5 	add	x21, sp, #0x4c
    1e9c:	910123f6 	add	x22, sp, #0x48
    1ea0:	12800008 	mov	w8, #0xffffffff            	// #-1
    1ea4:	aa0003e3 	mov	x3, x0
    1ea8:	a9005414 	stp	x20, x21, [x0]
    1eac:	b0000002 	adrp	x2, 2000 <main+0x1ac>
    1eb0:	911b4042 	add	x2, x2, #0x6d0
    1eb4:	f9000816 	str	x22, [x0, #16]
    1eb8:	aa1f03e1 	mov	x1, xzr
    1ebc:	b9001808 	str	w8, [x0, #24]
    1ec0:	910103e0 	add	x0, sp, #0x40
    1ec4:	97ffff07 	bl	1ae0 <pthread_create@plt>
    1ec8:	35003fe0 	cbnz	w0, 26c4 <main+0x870>
    1ecc:	52800100 	mov	w0, #0x8                   	// #8
    1ed0:	97fffed0 	bl	1a10 <operator new(unsigned long)@plt>
    1ed4:	aa0003f4 	mov	x20, x0
    1ed8:	97ffff72 	bl	1ca0 <std::__1::__thread_struct::__thread_struct()@plt>
    1edc:	52800400 	mov	w0, #0x20                  	// #32
    1ee0:	97fffecc 	bl	1a10 <operator new(unsigned long)@plt>
    1ee4:	2f00e5e0 	movi	d0, #0xffffffff
    1ee8:	aa0003e3 	mov	x3, x0
    1eec:	a9005414 	stp	x20, x21, [x0]
    1ef0:	f9000816 	str	x22, [x0, #16]
    1ef4:	b0000002 	adrp	x2, 2000 <main+0x1ac>
    1ef8:	911d9042 	add	x2, x2, #0x764
    1efc:	aa1f03e1 	mov	x1, xzr
    1f00:	fd000c00 	str	d0, [x0, #24]
    1f04:	9100e3e0 	add	x0, sp, #0x38
    1f08:	97fffef6 	bl	1ae0 <pthread_create@plt>
    1f0c:	35003dc0 	cbnz	w0, 26c4 <main+0x870>
    1f10:	910103e0 	add	x0, sp, #0x40
    1f14:	97ffff07 	bl	1b30 <std::__1::thread::join()@plt>
    1f18:	9100e3e0 	add	x0, sp, #0x38
    1f1c:	97ffff05 	bl	1b30 <std::__1::thread::join()@plt>
    1f20:	97ffff2c 	bl	1bd0 <std::__1::chrono::steady_clock::now()@plt>
    1f24:	cb130008 	sub	x8, x0, x19
    1f28:	528018c9 	mov	w9, #0xc6                  	// #198
    1f2c:	910383f8 	add	x24, sp, #0xe0
    1f30:	9e620100 	scvtf	d0, x8
    1f34:	d2d9aca8 	mov	x8, #0xcd6500000000        	// #225833675390976
    1f38:	b0000015 	adrp	x21, 2000 <main+0x1ac>
    1f3c:	912462b5 	add	x21, x21, #0x918
    1f40:	f2e839a8 	movk	x8, #0x41cd, lsl #48
    1f44:	a9067fff 	stp	xzr, xzr, [sp, #96]
    1f48:	9e670101 	fmov	d1, x8
    1f4c:	12800008 	mov	w8, #0xffffffff            	// #-1
    1f50:	f9010bff 	str	xzr, [sp, #528]
    1f54:	a9057fe8 	stp	x8, xzr, [sp, #80]
    1f58:	90000068 	adrp	x8, d000 <void* std::__1::__thread_proxy[abi:nn190104]<std::__1::tuple<std::__1::unique_ptr<std::__1::__thread_struct, std::__1::default_delete<std::__1::__thread_struct> >, relaxed_relaxed_write> >(void*)+0x40>
    1f5c:	91325108 	add	x8, x8, #0xc94
    1f60:	9100e50a 	add	x10, x8, #0x39
    1f64:	b90093ff 	str	wzr, [sp, #144]
    1f68:	d0000176 	adrp	x22, 2f000 <__FRAME_END__+0x1c6fc>
    1f6c:	1e611800 	fdiv	d0, d0, d1
    1f70:	a9082be8 	stp	x8, x10, [sp, #128]
    1f74:	910143e8 	add	x8, sp, #0x50
    1f78:	390343ff 	strb	wzr, [sp, #208]
    1f7c:	5280004a 	mov	w10, #0x2                   	// #2
    1f80:	91040314 	add	x20, x24, #0x100
    1f84:	f9003be9 	str	x9, [sp, #112]
    1f88:	9104231a 	add	x26, x24, #0x108
    1f8c:	910203e0 	add	x0, sp, #0x80
    1f90:	f900f3f8 	str	x24, [sp, #480]
    1f94:	9102c3e1 	add	x1, sp, #0xb0
    1f98:	9102c3f3 	add	x19, sp, #0xb0
    1f9c:	f900fff5 	str	x21, [sp, #504]
    1fa0:	910203f9 	add	x25, sp, #0x80
    1fa4:	f90063e8 	str	x8, [sp, #192]
    1fa8:	90000068 	adrp	x8, d000 <void* std::__1::__thread_proxy[abi:nn190104]<std::__1::tuple<std::__1::unique_ptr<std::__1::__thread_struct, std::__1::default_delete<std::__1::__thread_struct> >, relaxed_relaxed_write> >(void*)+0x40>
    1fac:	f947ead6 	ldr	x22, [x22, #4048]
    1fb0:	f90067e9 	str	x9, [sp, #200]
    1fb4:	90000069 	adrp	x9, d000 <void* std::__1::__thread_proxy[abi:nn190104]<std::__1::tuple<std::__1::unique_ptr<std::__1::__thread_struct, std::__1::default_delete<std::__1::__thread_struct> >, relaxed_relaxed_write> >(void*)+0x40>
    1fb8:	3dc2dd21 	ldr	q1, [x9, #2928]
    1fbc:	f90103f8 	str	x24, [sp, #512]
    1fc0:	f90107f6 	str	x22, [sp, #520]
    1fc4:	a90b2bf4 	stp	x20, x10, [sp, #176]
    1fc8:	3d8003e1 	str	q1, [sp]
    1fcc:	3c8983e1 	stur	q1, [sp, #152]
    1fd0:	390363ff 	strb	wzr, [sp, #216]
    1fd4:	fd001be0 	str	d0, [sp, #48]
    1fd8:	3dc2d900 	ldr	q0, [x8, #2912]
    1fdc:	3d800be0 	str	q0, [sp, #32]
    1fe0:	3d800340 	str	q0, [x26]
    1fe4:	94000209 	bl	2808 <std::__1::basic_format_context<std::__1::back_insert_iterator<std::__1::__format::__output_buffer<char> >, char>::iterator std::__1::__format::__vformat_to[abi:nn190104]<std::__1::basic_format_parse_context<char>, std::__1::basic_format_context<std::__1::back_insert_iterator<std::__1::__format::__output_buffer<char> >, char> >(std::__1::basic_format_parse_context<char>&&, std::__1::basic_format_context<std::__1::back_insert_iterator<std::__1::__format::__output_buffer<char> >, char>&&)>
    1fe8:	394363e8 	ldrb	w8, [sp, #216]
    1fec:	7100051f 	cmp	w8, #0x1
    1ff0:	54000061 	b.ne	1ffc <main+0x1a8>  // b.any
    1ff4:	91008260 	add	x0, x19, #0x20
    1ff8:	97ffff0e 	bl	1c30 <std::__1::locale::~locale()@plt>
    1ffc:	a95f23e1 	ldp	x1, x8, [sp, #496]
    2000:	f940f3e0 	ldr	x0, [sp, #480]
    2004:	f94103e2 	ldr	x2, [sp, #512]
    2008:	d63f0100 	blr	x8
    200c:	9100c3e9 	add	x9, sp, #0x30
    2010:	f900f3f8 	str	x24, [sp, #480]
    2014:	3dc00be0 	ldr	q0, [sp, #32]
    2018:	a91fe3f5 	stp	x21, x24, [sp, #504]
    201c:	f0000058 	adrp	x24, d000 <void* std::__1::__thread_proxy[abi:nn190104]<std::__1::tuple<std::__1::unique_ptr<std::__1::__thread_struct, std::__1::default_delete<std::__1::__thread_struct> >, relaxed_relaxed_write> >(void*)+0x40>
    2020:	91333b18 	add	x24, x24, #0xcce
    2024:	f90043e9 	str	x9, [sp, #128]
    2028:	91007309 	add	x9, x24, #0x1c
    202c:	528001e8 	mov	w8, #0xf                   	// #15
    2030:	a90527f8 	stp	x24, x9, [sp, #80]
    2034:	f0000049 	adrp	x9, d000 <void* std::__1::__thread_proxy[abi:nn190104]<std::__1::tuple<std::__1::unique_ptr<std::__1::__thread_struct, std::__1::default_delete<std::__1::__thread_struct> >, relaxed_relaxed_write> >(void*)+0x40>
    2038:	b0000057 	adrp	x23, b000 <_ZNSt3__111__formatter14__write_stringB8nn190104IcTkNS_15output_iteratorIRKT_EENS_20back_insert_iteratorINS_8__format15__output_bufferIcEEEEEEDtfp0_ENS_17basic_string_viewIS3_NS_11char_traitsIS3_EEEET0_NS_13__format_spec23__parsed_specificationsIS3_EE+0x20>
    203c:	910802f7 	add	x23, x23, #0x200
    2040:	3d800340 	str	q0, [x26]
    2044:	3dc2e120 	ldr	q0, [x9, #2944]
    2048:	52800029 	mov	w9, #0x1                   	// #1
    204c:	910143e0 	add	x0, sp, #0x50
    2050:	9102c3e1 	add	x1, sp, #0xb0
    2054:	a908a3f7 	stp	x23, x8, [sp, #136]
    2058:	f90107f6 	str	x22, [sp, #520]
    205c:	f9010bff 	str	xzr, [sp, #528]
    2060:	b90063ff 	str	wzr, [sp, #96]
    2064:	3d8007e0 	str	q0, [sp, #16]
    2068:	3c8683e0 	stur	q0, [sp, #104]
    206c:	a90c23f9 	stp	x25, x8, [sp, #192]
    2070:	a90b27f4 	stp	x20, x9, [sp, #176]
    2074:	390343ff 	strb	wzr, [sp, #208]
    2078:	390363ff 	strb	wzr, [sp, #216]
    207c:	940001e3 	bl	2808 <std::__1::basic_format_context<std::__1::back_insert_iterator<std::__1::__format::__output_buffer<char> >, char>::iterator std::__1::__format::__vformat_to[abi:nn190104]<std::__1::basic_format_parse_context<char>, std::__1::basic_format_context<std::__1::back_insert_iterator<std::__1::__format::__output_buffer<char> >, char> >(std::__1::basic_format_parse_context<char>&&, std::__1::basic_format_context<std::__1::back_insert_iterator<std::__1::__format::__output_buffer<char> >, char>&&)>
    2080:	394363e8 	ldrb	w8, [sp, #216]
    2084:	7100051f 	cmp	w8, #0x1
    2088:	54000061 	b.ne	2094 <main+0x240>  // b.any
    208c:	91008260 	add	x0, x19, #0x20
    2090:	97fffee8 	bl	1c30 <std::__1::locale::~locale()@plt>
    2094:	a95f23e1 	ldp	x1, x8, [sp, #496]
    2098:	f940f3e0 	ldr	x0, [sp, #480]
    209c:	f94103e2 	ldr	x2, [sp, #512]
    20a0:	d63f0100 	blr	x8
    20a4:	9100e3e0 	add	x0, sp, #0x38
    20a8:	97fffe86 	bl	1ac0 <std::__1::thread::~thread()@plt>
    20ac:	910103e0 	add	x0, sp, #0x40
    20b0:	97fffe84 	bl	1ac0 <std::__1::thread::~thread()@plt>
    20b4:	f90027ff 	str	xzr, [sp, #72]
    20b8:	97fffec6 	bl	1bd0 <std::__1::chrono::steady_clock::now()@plt>
    20bc:	aa0003f3 	mov	x19, x0
    20c0:	52800100 	mov	w0, #0x8                   	// #8
    20c4:	97fffe53 	bl	1a10 <operator new(unsigned long)@plt>
    20c8:	aa0003f4 	mov	x20, x0
    20cc:	97fffef5 	bl	1ca0 <std::__1::__thread_struct::__thread_struct()@plt>
    20d0:	52800400 	mov	w0, #0x20                  	// #32
    20d4:	97fffe4f 	bl	1a10 <operator new(unsigned long)@plt>
    20d8:	910133f9 	add	x25, sp, #0x4c
    20dc:	910123fa 	add	x26, sp, #0x48
    20e0:	12800008 	mov	w8, #0xffffffff            	// #-1
    20e4:	aa0003e3 	mov	x3, x0
    20e8:	a9006414 	stp	x20, x25, [x0]
    20ec:	d0000042 	adrp	x2, c000 <void std::__1::__formatter::__format_chrono_using_chrono_specs[abi:nn190104]<char, std::__1::chrono::duration<double, std::__1::ratio<1l, 1l> > >(std::__1::basic_stringstream<char, std::__1::char_traits<char>, std::__1::allocator<char> >&, std::__1::chrono::duration<double, std::__1::ratio<1l, 1l> > const&, std::__1::basic_string_view<char, std::__1::char_traits<char> >)+0x14>
    20f0:	913f0042 	add	x2, x2, #0xfc0
    20f4:	f900081a 	str	x26, [x0, #16]
    20f8:	aa1f03e1 	mov	x1, xzr
    20fc:	b9001808 	str	w8, [x0, #24]
    2100:	910103e0 	add	x0, sp, #0x40
    2104:	97fffe77 	bl	1ae0 <pthread_create@plt>
    2108:	35002de0 	cbnz	w0, 26c4 <main+0x870>
    210c:	52800100 	mov	w0, #0x8                   	// #8
    2110:	97fffe40 	bl	1a10 <operator new(unsigned long)@plt>
    2114:	aa0003f4 	mov	x20, x0
    2118:	97fffee2 	bl	1ca0 <std::__1::__thread_struct::__thread_struct()@plt>
    211c:	52800400 	mov	w0, #0x20                  	// #32
    2120:	97fffe3c 	bl	1a10 <operator new(unsigned long)@plt>
    2124:	2f00e5e0 	movi	d0, #0xffffffff
    2128:	aa0003e3 	mov	x3, x0
    212c:	a9006414 	stp	x20, x25, [x0]
    2130:	f900081a 	str	x26, [x0, #16]
    2134:	f0000042 	adrp	x2, d000 <void* std::__1::__thread_proxy[abi:nn190104]<std::__1::tuple<std::__1::unique_ptr<std::__1::__thread_struct, std::__1::default_delete<std::__1::__thread_struct> >, relaxed_relaxed_write> >(void*)+0x40>
    2138:	91016042 	add	x2, x2, #0x58
    213c:	aa1f03e1 	mov	x1, xzr
    2140:	fd000c00 	str	d0, [x0, #24]
    2144:	9100e3e0 	add	x0, sp, #0x38
    2148:	97fffe66 	bl	1ae0 <pthread_create@plt>
    214c:	35002bc0 	cbnz	w0, 26c4 <main+0x870>
    2150:	910103e0 	add	x0, sp, #0x40
    2154:	97fffe77 	bl	1b30 <std::__1::thread::join()@plt>
    2158:	9100e3e0 	add	x0, sp, #0x38
    215c:	97fffe75 	bl	1b30 <std::__1::thread::join()@plt>
    2160:	97fffe9c 	bl	1bd0 <std::__1::chrono::steady_clock::now()@plt>
    2164:	cb130008 	sub	x8, x0, x19
    2168:	f0000049 	adrp	x9, d000 <void* std::__1::__thread_proxy[abi:nn190104]<std::__1::tuple<std::__1::unique_ptr<std::__1::__thread_struct, std::__1::default_delete<std::__1::__thread_struct> >, relaxed_relaxed_write> >(void*)+0x40>
    216c:	9133ad29 	add	x9, x9, #0xceb
    2170:	9e620100 	scvtf	d0, x8
    2174:	d2d9aca8 	mov	x8, #0xcd6500000000        	// #225833675390976
    2178:	91010d2a 	add	x10, x9, #0x43
    217c:	f2e839a8 	movk	x8, #0x41cd, lsl #48
    2180:	910383f4 	add	x20, sp, #0xe0
    2184:	a9082be9 	stp	x9, x10, [sp, #128]
    2188:	9e670101 	fmov	d1, x8
    218c:	12800008 	mov	w8, #0xffffffff            	// #-1
    2190:	910143e9 	add	x9, sp, #0x50
    2194:	a9057fe8 	stp	x8, xzr, [sp, #80]
    2198:	528018c8 	mov	w8, #0xc6                  	// #198
    219c:	9104229b 	add	x27, x20, #0x108
    21a0:	a906a3ff 	stp	xzr, x8, [sp, #104]
    21a4:	91040299 	add	x25, x20, #0x100
    21a8:	910203e0 	add	x0, sp, #0x80
    21ac:	1e611800 	fdiv	d0, d0, d1
    21b0:	3dc003e1 	ldr	q1, [sp]
    21b4:	a90c23e9 	stp	x9, x8, [sp, #192]
    21b8:	52800048 	mov	w8, #0x2                   	// #2
    21bc:	9102c3e1 	add	x1, sp, #0xb0
    21c0:	f90033ff 	str	xzr, [sp, #96]
    21c4:	3c8983e1 	stur	q1, [sp, #152]
    21c8:	3dc00be1 	ldr	q1, [sp, #32]
    21cc:	9102c3f3 	add	x19, sp, #0xb0
    21d0:	f9010bff 	str	xzr, [sp, #528]
    21d4:	910203fa 	add	x26, sp, #0x80
    21d8:	b90093ff 	str	wzr, [sp, #144]
    21dc:	390343ff 	strb	wzr, [sp, #208]
    21e0:	f900f3f4 	str	x20, [sp, #480]
    21e4:	a91fd3f5 	stp	x21, x20, [sp, #504]
    21e8:	f90107f6 	str	x22, [sp, #520]
    21ec:	3d800361 	str	q1, [x27]
    21f0:	a90b23f9 	stp	x25, x8, [sp, #176]
    21f4:	390363ff 	strb	wzr, [sp, #216]
    21f8:	fd001be0 	str	d0, [sp, #48]
    21fc:	94000183 	bl	2808 <std::__1::basic_format_context<std::__1::back_insert_iterator<std::__1::__format::__output_buffer<char> >, char>::iterator std::__1::__format::__vformat_to[abi:nn190104]<std::__1::basic_format_parse_context<char>, std::__1::basic_format_context<std::__1::back_insert_iterator<std::__1::__format::__output_buffer<char> >, char> >(std::__1::basic_format_parse_context<char>&&, std::__1::basic_format_context<std::__1::back_insert_iterator<std::__1::__format::__output_buffer<char> >, char>&&)>
    2200:	394363e8 	ldrb	w8, [sp, #216]
    2204:	7100051f 	cmp	w8, #0x1
    2208:	54000061 	b.ne	2214 <main+0x3c0>  // b.any
    220c:	91008260 	add	x0, x19, #0x20
    2210:	97fffe88 	bl	1c30 <std::__1::locale::~locale()@plt>
    2214:	a95f23e1 	ldp	x1, x8, [sp, #496]
    2218:	f940f3e0 	ldr	x0, [sp, #480]
    221c:	f94103e2 	ldr	x2, [sp, #512]
    2220:	d63f0100 	blr	x8
    2224:	9100c3e9 	add	x9, sp, #0x30
    2228:	ad4087e0 	ldp	q0, q1, [sp, #16]
    222c:	f90043e9 	str	x9, [sp, #128]
    2230:	91007309 	add	x9, x24, #0x1c
    2234:	528001e8 	mov	w8, #0xf                   	// #15
    2238:	a90527f8 	stp	x24, x9, [sp, #80]
    223c:	52800029 	mov	w9, #0x1                   	// #1
    2240:	910143e0 	add	x0, sp, #0x50
    2244:	9102c3e1 	add	x1, sp, #0xb0
    2248:	a908a3f7 	stp	x23, x8, [sp, #136]
    224c:	3d800361 	str	q1, [x27]
    2250:	f900f3f4 	str	x20, [sp, #480]
    2254:	a91fd3f5 	stp	x21, x20, [sp, #504]
    2258:	f90107f6 	str	x22, [sp, #520]
    225c:	f9010bff 	str	xzr, [sp, #528]
    2260:	b90063ff 	str	wzr, [sp, #96]
    2264:	3c8683e0 	stur	q0, [sp, #104]
    2268:	a90c23fa 	stp	x26, x8, [sp, #192]
    226c:	a90b27f9 	stp	x25, x9, [sp, #176]
    2270:	390343ff 	strb	wzr, [sp, #208]
    2274:	390363ff 	strb	wzr, [sp, #216]
    2278:	94000164 	bl	2808 <std::__1::basic_format_context<std::__1::back_insert_iterator<std::__1::__format::__output_buffer<char> >, char>::iterator std::__1::__format::__vformat_to[abi:nn190104]<std::__1::basic_format_parse_context<char>, std::__1::basic_format_context<std::__1::back_insert_iterator<std::__1::__format::__output_buffer<char> >, char> >(std::__1::basic_format_parse_context<char>&&, std::__1::basic_format_context<std::__1::back_insert_iterator<std::__1::__format::__output_buffer<char> >, char>&&)>
    227c:	394363e8 	ldrb	w8, [sp, #216]
    2280:	7100051f 	cmp	w8, #0x1
    2284:	54000061 	b.ne	2290 <main+0x43c>  // b.any
    2288:	91008260 	add	x0, x19, #0x20
    228c:	97fffe69 	bl	1c30 <std::__1::locale::~locale()@plt>
    2290:	a95f23e1 	ldp	x1, x8, [sp, #496]
    2294:	f940f3e0 	ldr	x0, [sp, #480]
    2298:	f94103e2 	ldr	x2, [sp, #512]
    229c:	d63f0100 	blr	x8
    22a0:	9100e3e0 	add	x0, sp, #0x38
    22a4:	97fffe07 	bl	1ac0 <std::__1::thread::~thread()@plt>
    22a8:	910103e0 	add	x0, sp, #0x40
    22ac:	97fffe05 	bl	1ac0 <std::__1::thread::~thread()@plt>
    22b0:	f90027ff 	str	xzr, [sp, #72]
    22b4:	97fffe47 	bl	1bd0 <std::__1::chrono::steady_clock::now()@plt>
    22b8:	aa0003f3 	mov	x19, x0
    22bc:	52800100 	mov	w0, #0x8                   	// #8
    22c0:	97fffdd4 	bl	1a10 <operator new(unsigned long)@plt>
    22c4:	aa0003f4 	mov	x20, x0
    22c8:	97fffe76 	bl	1ca0 <std::__1::__thread_struct::__thread_struct()@plt>
    22cc:	52800400 	mov	w0, #0x20                  	// #32
    22d0:	97fffdd0 	bl	1a10 <operator new(unsigned long)@plt>
    22d4:	910133f9 	add	x25, sp, #0x4c
    22d8:	910123fa 	add	x26, sp, #0x48
    22dc:	12800008 	mov	w8, #0xffffffff            	// #-1
    22e0:	aa0003e3 	mov	x3, x0
    22e4:	a9006414 	stp	x20, x25, [x0]
    22e8:	f0000042 	adrp	x2, d000 <void* std::__1::__thread_proxy[abi:nn190104]<std::__1::tuple<std::__1::unique_ptr<std::__1::__thread_struct, std::__1::default_delete<std::__1::__thread_struct> >, relaxed_relaxed_write> >(void*)+0x40>
    22ec:	9103f042 	add	x2, x2, #0xfc
    22f0:	f900081a 	str	x26, [x0, #16]
    22f4:	aa1f03e1 	mov	x1, xzr
    22f8:	b9001808 	str	w8, [x0, #24]
    22fc:	910103e0 	add	x0, sp, #0x40
    2300:	97fffdf8 	bl	1ae0 <pthread_create@plt>
    2304:	35001e00 	cbnz	w0, 26c4 <main+0x870>
    2308:	52800100 	mov	w0, #0x8                   	// #8
    230c:	97fffdc1 	bl	1a10 <operator new(unsigned long)@plt>
    2310:	aa0003f4 	mov	x20, x0
    2314:	97fffe63 	bl	1ca0 <std::__1::__thread_struct::__thread_struct()@plt>
    2318:	52800400 	mov	w0, #0x20                  	// #32
    231c:	97fffdbd 	bl	1a10 <operator new(unsigned long)@plt>
    2320:	2f00e5e0 	movi	d0, #0xffffffff
    2324:	aa0003e3 	mov	x3, x0
    2328:	a9006414 	stp	x20, x25, [x0]
    232c:	f900081a 	str	x26, [x0, #16]
    2330:	f0000042 	adrp	x2, d000 <void* std::__1::__thread_proxy[abi:nn190104]<std::__1::tuple<std::__1::unique_ptr<std::__1::__thread_struct, std::__1::default_delete<std::__1::__thread_struct> >, relaxed_relaxed_write> >(void*)+0x40>
    2334:	91065042 	add	x2, x2, #0x194
    2338:	aa1f03e1 	mov	x1, xzr
    233c:	fd000c00 	str	d0, [x0, #24]
    2340:	9100e3e0 	add	x0, sp, #0x38
    2344:	97fffde7 	bl	1ae0 <pthread_create@plt>
    2348:	35001be0 	cbnz	w0, 26c4 <main+0x870>
    234c:	910103e0 	add	x0, sp, #0x40
    2350:	97fffdf8 	bl	1b30 <std::__1::thread::join()@plt>
    2354:	9100e3e0 	add	x0, sp, #0x38
    2358:	97fffdf6 	bl	1b30 <std::__1::thread::join()@plt>
    235c:	97fffe1d 	bl	1bd0 <std::__1::chrono::steady_clock::now()@plt>
    2360:	cb130008 	sub	x8, x0, x19
    2364:	910383f4 	add	x20, sp, #0xe0
    2368:	f0000059 	adrp	x25, d000 <void* std::__1::__thread_proxy[abi:nn190104]<std::__1::tuple<std::__1::unique_ptr<std::__1::__thread_struct, std::__1::default_delete<std::__1::__thread_struct> >, relaxed_relaxed_write> >(void*)+0x40>
    236c:	9134bf39 	add	x25, x25, #0xd2f
    2370:	9e620100 	scvtf	d0, x8
    2374:	d2d9aca8 	mov	x8, #0xcd6500000000        	// #225833675390976
    2378:	f2e839a8 	movk	x8, #0x41cd, lsl #48
    237c:	910143ea 	add	x10, sp, #0x50
    2380:	91012b29 	add	x9, x25, #0x4a
    2384:	9e670101 	fmov	d1, x8
    2388:	12800008 	mov	w8, #0xffffffff            	// #-1
    238c:	9104229c 	add	x28, x20, #0x108
    2390:	a9057fe8 	stp	x8, xzr, [sp, #80]
    2394:	528018c8 	mov	w8, #0xc6                  	// #198
    2398:	9104029a 	add	x26, x20, #0x100
    239c:	a906a3ff 	stp	xzr, x8, [sp, #104]
    23a0:	910203e0 	add	x0, sp, #0x80
    23a4:	9102c3e1 	add	x1, sp, #0xb0
    23a8:	1e611800 	fdiv	d0, d0, d1
    23ac:	3dc003e1 	ldr	q1, [sp]
    23b0:	a90c23ea 	stp	x10, x8, [sp, #192]
    23b4:	52800048 	mov	w8, #0x2                   	// #2
    23b8:	f90033ff 	str	xzr, [sp, #96]
    23bc:	9102c3f3 	add	x19, sp, #0xb0
    23c0:	3c8983e1 	stur	q1, [sp, #152]
    23c4:	3dc00be1 	ldr	q1, [sp, #32]
    23c8:	910203fb 	add	x27, sp, #0x80
    23cc:	f9010bff 	str	xzr, [sp, #528]
    23d0:	b90093ff 	str	wzr, [sp, #144]
    23d4:	390343ff 	strb	wzr, [sp, #208]
    23d8:	f900f3f4 	str	x20, [sp, #480]
    23dc:	a91fd3f5 	stp	x21, x20, [sp, #504]
    23e0:	f90107f6 	str	x22, [sp, #520]
    23e4:	a90827f9 	stp	x25, x9, [sp, #128]
    23e8:	3d800381 	str	q1, [x28]
    23ec:	a90b23fa 	stp	x26, x8, [sp, #176]
    23f0:	390363ff 	strb	wzr, [sp, #216]
    23f4:	fd001be0 	str	d0, [sp, #48]
    23f8:	94000104 	bl	2808 <std::__1::basic_format_context<std::__1::back_insert_iterator<std::__1::__format::__output_buffer<char> >, char>::iterator std::__1::__format::__vformat_to[abi:nn190104]<std::__1::basic_format_parse_context<char>, std::__1::basic_format_context<std::__1::back_insert_iterator<std::__1::__format::__output_buffer<char> >, char> >(std::__1::basic_format_parse_context<char>&&, std::__1::basic_format_context<std::__1::back_insert_iterator<std::__1::__format::__output_buffer<char> >, char>&&)>
    23fc:	394363e8 	ldrb	w8, [sp, #216]
    2400:	7100051f 	cmp	w8, #0x1
    2404:	54000061 	b.ne	2410 <main+0x5bc>  // b.any
    2408:	91008260 	add	x0, x19, #0x20
    240c:	97fffe09 	bl	1c30 <std::__1::locale::~locale()@plt>
    2410:	a95f23e1 	ldp	x1, x8, [sp, #496]
    2414:	f940f3e0 	ldr	x0, [sp, #480]
    2418:	f94103e2 	ldr	x2, [sp, #512]
    241c:	d63f0100 	blr	x8
    2420:	9100c3e9 	add	x9, sp, #0x30
    2424:	ad4087e0 	ldp	q0, q1, [sp, #16]
    2428:	f90043e9 	str	x9, [sp, #128]
    242c:	91007309 	add	x9, x24, #0x1c
    2430:	528001e8 	mov	w8, #0xf                   	// #15
    2434:	a90527f8 	stp	x24, x9, [sp, #80]
    2438:	52800029 	mov	w9, #0x1                   	// #1
    243c:	910143e0 	add	x0, sp, #0x50
    2440:	9102c3e1 	add	x1, sp, #0xb0
    2444:	a908a3f7 	stp	x23, x8, [sp, #136]
    2448:	3d800381 	str	q1, [x28]
    244c:	f900f3f4 	str	x20, [sp, #480]
    2450:	a91fd3f5 	stp	x21, x20, [sp, #504]
    2454:	f90107f6 	str	x22, [sp, #520]
    2458:	f9010bff 	str	xzr, [sp, #528]
    245c:	b90063ff 	str	wzr, [sp, #96]
    2460:	3c8683e0 	stur	q0, [sp, #104]
    2464:	a90c23fb 	stp	x27, x8, [sp, #192]
    2468:	a90b27fa 	stp	x26, x9, [sp, #176]
    246c:	390343ff 	strb	wzr, [sp, #208]
    2470:	390363ff 	strb	wzr, [sp, #216]
    2474:	940000e5 	bl	2808 <std::__1::basic_format_context<std::__1::back_insert_iterator<std::__1::__format::__output_buffer<char> >, char>::iterator std::__1::__format::__vformat_to[abi:nn190104]<std::__1::basic_format_parse_context<char>, std::__1::basic_format_context<std::__1::back_insert_iterator<std::__1::__format::__output_buffer<char> >, char> >(std::__1::basic_format_parse_context<char>&&, std::__1::basic_format_context<std::__1::back_insert_iterator<std::__1::__format::__output_buffer<char> >, char>&&)>
    2478:	394363e8 	ldrb	w8, [sp, #216]
    247c:	7100051f 	cmp	w8, #0x1
    2480:	54000061 	b.ne	248c <main+0x638>  // b.any
    2484:	91008260 	add	x0, x19, #0x20
    2488:	97fffdea 	bl	1c30 <std::__1::locale::~locale()@plt>
    248c:	a95f23e1 	ldp	x1, x8, [sp, #496]
    2490:	f940f3e0 	ldr	x0, [sp, #480]
    2494:	f94103e2 	ldr	x2, [sp, #512]
    2498:	d63f0100 	blr	x8
    249c:	9100e3e0 	add	x0, sp, #0x38
    24a0:	97fffd88 	bl	1ac0 <std::__1::thread::~thread()@plt>
    24a4:	910103e0 	add	x0, sp, #0x40
    24a8:	97fffd86 	bl	1ac0 <std::__1::thread::~thread()@plt>
    24ac:	f90027ff 	str	xzr, [sp, #72]
    24b0:	97fffdc8 	bl	1bd0 <std::__1::chrono::steady_clock::now()@plt>
    24b4:	aa0003f3 	mov	x19, x0
    24b8:	52800100 	mov	w0, #0x8                   	// #8
    24bc:	97fffd55 	bl	1a10 <operator new(unsigned long)@plt>
    24c0:	aa0003f4 	mov	x20, x0
    24c4:	97fffdf7 	bl	1ca0 <std::__1::__thread_struct::__thread_struct()@plt>
    24c8:	52800400 	mov	w0, #0x20                  	// #32
    24cc:	97fffd51 	bl	1a10 <operator new(unsigned long)@plt>
    24d0:	910133fa 	add	x26, sp, #0x4c
    24d4:	910123fb 	add	x27, sp, #0x48
    24d8:	12800008 	mov	w8, #0xffffffff            	// #-1
    24dc:	aa0003e3 	mov	x3, x0
    24e0:	a9006814 	stp	x20, x26, [x0]
    24e4:	f0000042 	adrp	x2, d000 <void* std::__1::__thread_proxy[abi:nn190104]<std::__1::tuple<std::__1::unique_ptr<std::__1::__thread_struct, std::__1::default_delete<std::__1::__thread_struct> >, relaxed_relaxed_write> >(void*)+0x40>
    24e8:	91091042 	add	x2, x2, #0x244
    24ec:	f900081b 	str	x27, [x0, #16]
    24f0:	aa1f03e1 	mov	x1, xzr
    24f4:	b9001808 	str	w8, [x0, #24]
    24f8:	910103e0 	add	x0, sp, #0x40
    24fc:	97fffd79 	bl	1ae0 <pthread_create@plt>
    2500:	35000e20 	cbnz	w0, 26c4 <main+0x870>
    2504:	52800100 	mov	w0, #0x8                   	// #8
    2508:	97fffd42 	bl	1a10 <operator new(unsigned long)@plt>
    250c:	aa0003f4 	mov	x20, x0
    2510:	97fffde4 	bl	1ca0 <std::__1::__thread_struct::__thread_struct()@plt>
    2514:	52800400 	mov	w0, #0x20                  	// #32
    2518:	97fffd3e 	bl	1a10 <operator new(unsigned long)@plt>
    251c:	2f00e5e0 	movi	d0, #0xffffffff
    2520:	aa0003e3 	mov	x3, x0
    2524:	a9006814 	stp	x20, x26, [x0]
    2528:	f900081b 	str	x27, [x0, #16]
    252c:	f0000042 	adrp	x2, d000 <void* std::__1::__thread_proxy[abi:nn190104]<std::__1::tuple<std::__1::unique_ptr<std::__1::__thread_struct, std::__1::default_delete<std::__1::__thread_struct> >, relaxed_relaxed_write> >(void*)+0x40>
    2530:	910b7042 	add	x2, x2, #0x2dc
    2534:	aa1f03e1 	mov	x1, xzr
    2538:	fd000c00 	str	d0, [x0, #24]
    253c:	9100e3e0 	add	x0, sp, #0x38
    2540:	97fffd68 	bl	1ae0 <pthread_create@plt>
    2544:	35000c00 	cbnz	w0, 26c4 <main+0x870>
    2548:	910103e0 	add	x0, sp, #0x40
    254c:	97fffd79 	bl	1b30 <std::__1::thread::join()@plt>
    2550:	9100e3e0 	add	x0, sp, #0x38
    2554:	97fffd77 	bl	1b30 <std::__1::thread::join()@plt>
    2558:	97fffd9e 	bl	1bd0 <std::__1::chrono::steady_clock::now()@plt>
    255c:	cb130008 	sub	x8, x0, x19
    2560:	910383f4 	add	x20, sp, #0xe0
    2564:	91012b29 	add	x9, x25, #0x4a
    2568:	9e620100 	scvtf	d0, x8
    256c:	d2d9aca8 	mov	x8, #0xcd6500000000        	// #225833675390976
    2570:	910143ea 	add	x10, sp, #0x50
    2574:	f2e839a8 	movk	x8, #0x41cd, lsl #48
    2578:	a90827f9 	stp	x25, x9, [sp, #128]
    257c:	9104229b 	add	x27, x20, #0x108
    2580:	9e670101 	fmov	d1, x8
    2584:	12800008 	mov	w8, #0xffffffff            	// #-1
    2588:	91040299 	add	x25, x20, #0x100
    258c:	a9057fe8 	stp	x8, xzr, [sp, #80]
    2590:	528018c8 	mov	w8, #0xc6                  	// #198
    2594:	910203e0 	add	x0, sp, #0x80
    2598:	a906a3ff 	stp	xzr, x8, [sp, #104]
    259c:	9102c3e1 	add	x1, sp, #0xb0
    25a0:	9102c3f3 	add	x19, sp, #0xb0
    25a4:	1e611800 	fdiv	d0, d0, d1
    25a8:	3dc003e1 	ldr	q1, [sp]
    25ac:	a90c23ea 	stp	x10, x8, [sp, #192]
    25b0:	52800048 	mov	w8, #0x2                   	// #2
    25b4:	f90033ff 	str	xzr, [sp, #96]
    25b8:	910203fa 	add	x26, sp, #0x80
    25bc:	3c8983e1 	stur	q1, [sp, #152]
    25c0:	3dc00be1 	ldr	q1, [sp, #32]
    25c4:	f9010bff 	str	xzr, [sp, #528]
    25c8:	b90093ff 	str	wzr, [sp, #144]
    25cc:	390343ff 	strb	wzr, [sp, #208]
    25d0:	f900f3f4 	str	x20, [sp, #480]
    25d4:	a91fd3f5 	stp	x21, x20, [sp, #504]
    25d8:	f90107f6 	str	x22, [sp, #520]
    25dc:	3d800361 	str	q1, [x27]
    25e0:	a90b23f9 	stp	x25, x8, [sp, #176]
    25e4:	390363ff 	strb	wzr, [sp, #216]
    25e8:	fd001be0 	str	d0, [sp, #48]
    25ec:	94000087 	bl	2808 <std::__1::basic_format_context<std::__1::back_insert_iterator<std::__1::__format::__output_buffer<char> >, char>::iterator std::__1::__format::__vformat_to[abi:nn190104]<std::__1::basic_format_parse_context<char>, std::__1::basic_format_context<std::__1::back_insert_iterator<std::__1::__format::__output_buffer<char> >, char> >(std::__1::basic_format_parse_context<char>&&, std::__1::basic_format_context<std::__1::back_insert_iterator<std::__1::__format::__output_buffer<char> >, char>&&)>
    25f0:	394363e8 	ldrb	w8, [sp, #216]
    25f4:	7100051f 	cmp	w8, #0x1
    25f8:	54000061 	b.ne	2604 <main+0x7b0>  // b.any
    25fc:	91008260 	add	x0, x19, #0x20
    2600:	97fffd8c 	bl	1c30 <std::__1::locale::~locale()@plt>
    2604:	a95f23e1 	ldp	x1, x8, [sp, #496]
    2608:	f940f3e0 	ldr	x0, [sp, #480]
    260c:	f94103e2 	ldr	x2, [sp, #512]
    2610:	d63f0100 	blr	x8
    2614:	9100c3e9 	add	x9, sp, #0x30
    2618:	ad4087e0 	ldp	q0, q1, [sp, #16]
    261c:	f90043e9 	str	x9, [sp, #128]
    2620:	91007309 	add	x9, x24, #0x1c
    2624:	528001e8 	mov	w8, #0xf                   	// #15
    2628:	a90527f8 	stp	x24, x9, [sp, #80]
    262c:	52800029 	mov	w9, #0x1                   	// #1
    2630:	910143e0 	add	x0, sp, #0x50
    2634:	9102c3e1 	add	x1, sp, #0xb0
    2638:	a908a3f7 	stp	x23, x8, [sp, #136]
    263c:	3d800361 	str	q1, [x27]
    2640:	f900f3f4 	str	x20, [sp, #480]
    2644:	a91fd3f5 	stp	x21, x20, [sp, #504]
    2648:	f90107f6 	str	x22, [sp, #520]
    264c:	f9010bff 	str	xzr, [sp, #528]
    2650:	b90063ff 	str	wzr, [sp, #96]
    2654:	3c8683e0 	stur	q0, [sp, #104]
    2658:	a90c23fa 	stp	x26, x8, [sp, #192]
    265c:	a90b27f9 	stp	x25, x9, [sp, #176]
    2660:	390343ff 	strb	wzr, [sp, #208]
    2664:	390363ff 	strb	wzr, [sp, #216]
    2668:	94000068 	bl	2808 <std::__1::basic_format_context<std::__1::back_insert_iterator<std::__1::__format::__output_buffer<char> >, char>::iterator std::__1::__format::__vformat_to[abi:nn190104]<std::__1::basic_format_parse_context<char>, std::__1::basic_format_context<std::__1::back_insert_iterator<std::__1::__format::__output_buffer<char> >, char> >(std::__1::basic_format_parse_context<char>&&, std::__1::basic_format_context<std::__1::back_insert_iterator<std::__1::__format::__output_buffer<char> >, char>&&)>
    266c:	394363e8 	ldrb	w8, [sp, #216]
    2670:	7100051f 	cmp	w8, #0x1
    2674:	54000061 	b.ne	2680 <main+0x82c>  // b.any
    2678:	91008260 	add	x0, x19, #0x20
    267c:	97fffd6d 	bl	1c30 <std::__1::locale::~locale()@plt>
    2680:	a95f23e1 	ldp	x1, x8, [sp, #496]
    2684:	f940f3e0 	ldr	x0, [sp, #480]
    2688:	f94103e2 	ldr	x2, [sp, #512]
    268c:	d63f0100 	blr	x8
    2690:	9100e3e0 	add	x0, sp, #0x38
    2694:	97fffd0b 	bl	1ac0 <std::__1::thread::~thread()@plt>
    2698:	910103e0 	add	x0, sp, #0x40
    269c:	97fffd09 	bl	1ac0 <std::__1::thread::~thread()@plt>
    26a0:	2a1f03e0 	mov	w0, wzr
    26a4:	910883ff 	add	sp, sp, #0x220
    26a8:	a9454ff4 	ldp	x20, x19, [sp, #80]
    26ac:	a94457f6 	ldp	x22, x21, [sp, #64]
    26b0:	a9435ff8 	ldp	x24, x23, [sp, #48]
    26b4:	a94267fa 	ldp	x26, x25, [sp, #32]
    26b8:	a9416ffc 	ldp	x28, x27, [sp, #16]
    26bc:	a8c67bfd 	ldp	x29, x30, [sp], #96
    26c0:	d65f03c0 	ret
    26c4:	f0000041 	adrp	x1, d000 <void* std::__1::__thread_proxy[abi:nn190104]<std::__1::tuple<std::__1::unique_ptr<std::__1::__thread_struct, std::__1::default_delete<std::__1::__thread_struct> >, relaxed_relaxed_write> >(void*)+0x40>
    26c8:	9135e821 	add	x1, x1, #0xd7a
    26cc:	97fffce9 	bl	1a70 <std::__1::__throw_system_error(int, char const*)@plt>

00000000000026d0 <void* std::__1::__thread_proxy[abi:nn190104]<std::__1::tuple<std::__1::unique_ptr<std::__1::__thread_struct, std::__1::default_delete<std::__1::__thread_struct> >, non_atomic_write> >(void*)>:
    26d0:	a9be7bfd 	stp	x29, x30, [sp, #-32]!
    26d4:	a9014ff4 	stp	x20, x19, [sp, #16]
    26d8:	910003fd 	mov	x29, sp
    26dc:	aa0003f3 	mov	x19, x0
    26e0:	97fffd60 	bl	1c60 <std::__1::__thread_local_data()@plt>
    26e4:	f9400261 	ldr	x1, [x19]
    26e8:	b9400000 	ldr	w0, [x0]
    26ec:	f900027f 	str	xzr, [x19]
    26f0:	97fffcc0 	bl	19f0 <pthread_setspecific@plt>
    26f4:	91002260 	add	x0, x19, #0x8
    26f8:	94000010 	bl	2738 <non_atomic_write::operator()()>
    26fc:	f9400274 	ldr	x20, [x19]
    2700:	f900027f 	str	xzr, [x19]
    2704:	b40000d4 	cbz	x20, 271c <void* std::__1::__thread_proxy[abi:nn190104]<std::__1::tuple<std::__1::unique_ptr<std::__1::__thread_struct, std::__1::default_delete<std::__1::__thread_struct> >, non_atomic_write> >(void*)+0x4c>
    2708:	aa1403e0 	mov	x0, x20
    270c:	97fffd25 	bl	1ba0 <std::__1::__thread_struct::~__thread_struct()@plt>
    2710:	aa1403e0 	mov	x0, x20
    2714:	52800101 	mov	w1, #0x8                   	// #8
    2718:	97fffd6e 	bl	1cd0 <operator delete(void*, unsigned long)@plt>
    271c:	aa1303e0 	mov	x0, x19
    2720:	52800401 	mov	w1, #0x20                  	// #32
    2724:	97fffd6b 	bl	1cd0 <operator delete(void*, unsigned long)@plt>
    2728:	aa1f03e0 	mov	x0, xzr
    272c:	a9414ff4 	ldp	x20, x19, [sp, #16]
    2730:	a8c27bfd 	ldp	x29, x30, [sp], #32
    2734:	d65f03c0 	ret

0000000000002738 <non_atomic_write::operator()()>:
    2738:	b9401008 	ldr	w8, [x0, #16]
    273c:	34000128 	cbz	w8, 2760 <non_atomic_write::operator()()+0x28>
    2740:	a9402408 	ldp	x8, x9, [x0]
    2744:	2a1f03ea 	mov	w10, wzr
    2748:	b900010a 	str	w10, [x8]
    274c:	b900012a 	str	w10, [x9]
    2750:	1100054a 	add	w10, w10, #0x1
    2754:	b940100b 	ldr	w11, [x0, #16]
    2758:	6b0b015f 	cmp	w10, w11
    275c:	54ffff63 	b.cc	2748 <non_atomic_write::operator()()+0x10>  // b.lo, b.ul, b.last
    2760:	d65f03c0 	ret

0000000000002764 <void* std::__1::__thread_proxy[abi:nn190104]<std::__1::tuple<std::__1::unique_ptr<std::__1::__thread_struct, std::__1::default_delete<std::__1::__thread_struct> >, non_atomic_read> >(void*)>:
    2764:	a9be7bfd 	stp	x29, x30, [sp, #-32]!
    2768:	a9014ff4 	stp	x20, x19, [sp, #16]
    276c:	910003fd 	mov	x29, sp
    2770:	aa0003f3 	mov	x19, x0
    2774:	97fffd3b 	bl	1c60 <std::__1::__thread_local_data()@plt>
    2778:	f9400261 	ldr	x1, [x19]
    277c:	b9400000 	ldr	w0, [x0]
    2780:	f900027f 	str	xzr, [x19]
    2784:	97fffc9b 	bl	19f0 <pthread_setspecific@plt>
    2788:	91002260 	add	x0, x19, #0x8
    278c:	94000010 	bl	27cc <non_atomic_read::operator()()>
    2790:	f9400274 	ldr	x20, [x19]
    2794:	f900027f 	str	xzr, [x19]
    2798:	b40000d4 	cbz	x20, 27b0 <void* std::__1::__thread_proxy[abi:nn190104]<std::__1::tuple<std::__1::unique_ptr<std::__1::__thread_struct, std::__1::default_delete<std::__1::__thread_struct> >, non_atomic_read> >(void*)+0x4c>
    279c:	aa1403e0 	mov	x0, x20
    27a0:	97fffd00 	bl	1ba0 <std::__1::__thread_struct::~__thread_struct()@plt>
    27a4:	aa1403e0 	mov	x0, x20
    27a8:	52800101 	mov	w1, #0x8                   	// #8
    27ac:	97fffd49 	bl	1cd0 <operator delete(void*, unsigned long)@plt>
    27b0:	aa1303e0 	mov	x0, x19
    27b4:	52800401 	mov	w1, #0x20                  	// #32
    27b8:	97fffd46 	bl	1cd0 <operator delete(void*, unsigned long)@plt>
    27bc:	aa1f03e0 	mov	x0, xzr
    27c0:	a9414ff4 	ldp	x20, x19, [sp, #16]
    27c4:	a8c27bfd 	ldp	x29, x30, [sp], #32
    27c8:	d65f03c0 	ret

00000000000027cc <non_atomic_read::operator()()>:
    27cc:	b9401008 	ldr	w8, [x0, #16]
    27d0:	340001a8 	cbz	w8, 2804 <non_atomic_read::operator()()+0x38>
    27d4:	a940240a 	ldp	x10, x9, [x0]
    27d8:	14000003 	b	27e4 <non_atomic_read::operator()()+0x18>
    27dc:	71000508 	subs	w8, w8, #0x1
    27e0:	54000120 	b.eq	2804 <non_atomic_read::operator()()+0x38>  // b.none
    27e4:	b940012b 	ldr	w11, [x9]
    27e8:	b940014c 	ldr	w12, [x10]
    27ec:	6b0b019f 	cmp	w12, w11
    27f0:	54ffff62 	b.cs	27dc <non_atomic_read::operator()()+0x10>  // b.hs, b.nlast
    27f4:	b940140b 	ldr	w11, [x0, #20]
    27f8:	1100056b 	add	w11, w11, #0x1
    27fc:	b900140b 	str	w11, [x0, #20]
    2800:	17fffff7 	b	27dc <non_atomic_read::operator()()+0x10>
    2804:	d65f03c0 	ret

0000000000002808 <std::__1::basic_format_context<std::__1::back_insert_iterator<std::__1::__format::__output_buffer<char> >, char>::iterator std::__1::__format::__vformat_to[abi:nn190104]<std::__1::basic_format_parse_context<char>, std::__1::basic_format_context<std::__1::back_insert_iterator<std::__1::__format::__output_buffer<char> >, char> >(std::__1::basic_format_parse_context<char>&&, std::__1::basic_format_context<std::__1::back_insert_iterator<std::__1::__format::__output_buffer<char> >, char>&&)>:
    2808:	a9bc7bfd 	stp	x29, x30, [sp, #-64]!
    280c:	f9000bf7 	str	x23, [sp, #16]
    2810:	a90257f6 	stp	x22, x21, [sp, #32]
    2814:	a9034ff4 	stp	x20, x19, [sp, #48]
    2818:	910003fd 	mov	x29, sp
    281c:	a9405417 	ldp	x23, x21, [x0]
    2820:	f9400036 	ldr	x22, [x1]
    2824:	eb1502ff 	cmp	x23, x21
    2828:	54000600 	b.eq	28e8 <std::__1::basic_format_context<std::__1::back_insert_iterator<std::__1::__format::__output_buffer<char> >, char>::iterator std::__1::__format::__vformat_to[abi:nn190104]<std::__1::basic_format_parse_context<char>, std::__1::basic_format_context<std::__1::back_insert_iterator<std::__1::__format::__output_buffer<char> >, char> >(std::__1::basic_format_parse_context<char>&&, std::__1::basic_format_context<std::__1::back_insert_iterator<std::__1::__format::__output_buffer<char> >, char>&&)+0xe0>  // b.none
    282c:	aa0103f3 	mov	x19, x1
    2830:	aa0003f4 	mov	x20, x0
    2834:	14000004 	b	2844 <std::__1::basic_format_context<std::__1::back_insert_iterator<std::__1::__format::__output_buffer<char> >, char>::iterator std::__1::__format::__vformat_to[abi:nn190104]<std::__1::basic_format_parse_context<char>, std::__1::basic_format_context<std::__1::back_insert_iterator<std::__1::__format::__output_buffer<char> >, char> >(std::__1::basic_format_parse_context<char>&&, std::__1::basic_format_context<std::__1::back_insert_iterator<std::__1::__format::__output_buffer<char> >, char>&&)+0x3c>
    2838:	910006f7 	add	x23, x23, #0x1
    283c:	eb1502ff 	cmp	x23, x21
    2840:	54000540 	b.eq	28e8 <std::__1::basic_format_context<std::__1::back_insert_iterator<std::__1::__format::__output_buffer<char> >, char>::iterator std::__1::__format::__vformat_to[abi:nn190104]<std::__1::basic_format_parse_context<char>, std::__1::basic_format_context<std::__1::back_insert_iterator<std::__1::__format::__output_buffer<char> >, char> >(std::__1::basic_format_parse_context<char>&&, std::__1::basic_format_context<std::__1::back_insert_iterator<std::__1::__format::__output_buffer<char> >, char>&&)+0xe0>  // b.none
    2844:	394002e8 	ldrb	w8, [x23]
    2848:	7101f51f 	cmp	w8, #0x7d
    284c:	54000280 	b.eq	289c <std::__1::basic_format_context<std::__1::back_insert_iterator<std::__1::__format::__output_buffer<char> >, char>::iterator std::__1::__format::__vformat_to[abi:nn190104]<std::__1::basic_format_parse_context<char>, std::__1::basic_format_context<std::__1::back_insert_iterator<std::__1::__format::__output_buffer<char> >, char> >(std::__1::basic_format_parse_context<char>&&, std::__1::basic_format_context<std::__1::back_insert_iterator<std::__1::__format::__output_buffer<char> >, char>&&)+0x94>  // b.none
    2850:	7101ed1f 	cmp	w8, #0x7b
    2854:	54000301 	b.ne	28b4 <std::__1::basic_format_context<std::__1::back_insert_iterator<std::__1::__format::__output_buffer<char> >, char>::iterator std::__1::__format::__vformat_to[abi:nn190104]<std::__1::basic_format_parse_context<char>, std::__1::basic_format_context<std::__1::back_insert_iterator<std::__1::__format::__output_buffer<char> >, char> >(std::__1::basic_format_parse_context<char>&&, std::__1::basic_format_context<std::__1::back_insert_iterator<std::__1::__format::__output_buffer<char> >, char>&&)+0xac>  // b.any
    2858:	910006f7 	add	x23, x23, #0x1
    285c:	eb1502ff 	cmp	x23, x21
    2860:	54000560 	b.eq	290c <std::__1::basic_format_context<std::__1::back_insert_iterator<std::__1::__format::__output_buffer<char> >, char>::iterator std::__1::__format::__vformat_to[abi:nn190104]<std::__1::basic_format_parse_context<char>, std::__1::basic_format_context<std::__1::back_insert_iterator<std::__1::__format::__output_buffer<char> >, char> >(std::__1::basic_format_parse_context<char>&&, std::__1::basic_format_context<std::__1::back_insert_iterator<std::__1::__format::__output_buffer<char> >, char>&&)+0x104>  // b.none
    2864:	394002e9 	ldrb	w9, [x23]
    2868:	7101ed3f 	cmp	w9, #0x7b
    286c:	54000240 	b.eq	28b4 <std::__1::basic_format_context<std::__1::back_insert_iterator<std::__1::__format::__output_buffer<char> >, char>::iterator std::__1::__format::__vformat_to[abi:nn190104]<std::__1::basic_format_parse_context<char>, std::__1::basic_format_context<std::__1::back_insert_iterator<std::__1::__format::__output_buffer<char> >, char> >(std::__1::basic_format_parse_context<char>&&, std::__1::basic_format_context<std::__1::back_insert_iterator<std::__1::__format::__output_buffer<char> >, char>&&)+0xac>  // b.none
    2870:	aa1703e0 	mov	x0, x23
    2874:	aa1503e1 	mov	x1, x21
    2878:	aa1403e2 	mov	x2, x20
    287c:	aa1303e3 	mov	x3, x19
    2880:	f9000276 	str	x22, [x19]
    2884:	940000f9 	bl	2c68 <_ZNSt3__18__format26__handle_replacement_fieldB8nn190104ITkNS_19contiguous_iteratorEPKcNS_26basic_format_parse_contextIcEENS_20basic_format_contextINS_20back_insert_iteratorINS0_15__output_bufferIcEEEEcEEEET_SC_SC_RT0_RT1_>
    2888:	f9400276 	ldr	x22, [x19]
    288c:	aa0003f7 	mov	x23, x0
    2890:	eb15001f 	cmp	x0, x21
    2894:	54fffd81 	b.ne	2844 <std::__1::basic_format_context<std::__1::back_insert_iterator<std::__1::__format::__output_buffer<char> >, char>::iterator std::__1::__format::__vformat_to[abi:nn190104]<std::__1::basic_format_parse_context<char>, std::__1::basic_format_context<std::__1::back_insert_iterator<std::__1::__format::__output_buffer<char> >, char> >(std::__1::basic_format_parse_context<char>&&, std::__1::basic_format_context<std::__1::back_insert_iterator<std::__1::__format::__output_buffer<char> >, char>&&)+0x3c>  // b.any
    2898:	14000014 	b	28e8 <std::__1::basic_format_context<std::__1::back_insert_iterator<std::__1::__format::__output_buffer<char> >, char>::iterator std::__1::__format::__vformat_to[abi:nn190104]<std::__1::basic_format_parse_context<char>, std::__1::basic_format_context<std::__1::back_insert_iterator<std::__1::__format::__output_buffer<char> >, char> >(std::__1::basic_format_parse_context<char>&&, std::__1::basic_format_context<std::__1::back_insert_iterator<std::__1::__format::__output_buffer<char> >, char>&&)+0xe0>
    289c:	910006f7 	add	x23, x23, #0x1
    28a0:	eb1502ff 	cmp	x23, x21
    28a4:	540002e0 	b.eq	2900 <std::__1::basic_format_context<std::__1::back_insert_iterator<std::__1::__format::__output_buffer<char> >, char>::iterator std::__1::__format::__vformat_to[abi:nn190104]<std::__1::basic_format_parse_context<char>, std::__1::basic_format_context<std::__1::back_insert_iterator<std::__1::__format::__output_buffer<char> >, char> >(std::__1::basic_format_parse_context<char>&&, std::__1::basic_format_context<std::__1::back_insert_iterator<std::__1::__format::__output_buffer<char> >, char>&&)+0xf8>  // b.none
    28a8:	394002e9 	ldrb	w9, [x23]
    28ac:	7101f53f 	cmp	w9, #0x7d
    28b0:	54000281 	b.ne	2900 <std::__1::basic_format_context<std::__1::back_insert_iterator<std::__1::__format::__output_buffer<char> >, char>::iterator std::__1::__format::__vformat_to[abi:nn190104]<std::__1::basic_format_parse_context<char>, std::__1::basic_format_context<std::__1::back_insert_iterator<std::__1::__format::__output_buffer<char> >, char> >(std::__1::basic_format_parse_context<char>&&, std::__1::basic_format_context<std::__1::back_insert_iterator<std::__1::__format::__output_buffer<char> >, char>&&)+0xf8>  // b.any
    28b4:	f9400ac9 	ldr	x9, [x22, #16]
    28b8:	f94002ca 	ldr	x10, [x22]
    28bc:	9100052b 	add	x11, x9, #0x1
    28c0:	f9000acb 	str	x11, [x22, #16]
    28c4:	38296948 	strb	w8, [x10, x9]
    28c8:	a94086c8 	ldp	x8, x1, [x22, #8]
    28cc:	eb08003f 	cmp	x1, x8
    28d0:	54fffb41 	b.ne	2838 <std::__1::basic_format_context<std::__1::back_insert_iterator<std::__1::__format::__output_buffer<char> >, char>::iterator std::__1::__format::__vformat_to[abi:nn190104]<std::__1::basic_format_parse_context<char>, std::__1::basic_format_context<std::__1::back_insert_iterator<std::__1::__format::__output_buffer<char> >, char> >(std::__1::basic_format_parse_context<char>&&, std::__1::basic_format_context<std::__1::back_insert_iterator<std::__1::__format::__output_buffer<char> >, char>&&)+0x30>  // b.any
    28d4:	a9418ac8 	ldp	x8, x2, [x22, #24]
    28d8:	f94002c0 	ldr	x0, [x22]
    28dc:	d63f0100 	blr	x8
    28e0:	f9000adf 	str	xzr, [x22, #16]
    28e4:	17ffffd5 	b	2838 <std::__1::basic_format_context<std::__1::back_insert_iterator<std::__1::__format::__output_buffer<char> >, char>::iterator std::__1::__format::__vformat_to[abi:nn190104]<std::__1::basic_format_parse_context<char>, std::__1::basic_format_context<std::__1::back_insert_iterator<std::__1::__format::__output_buffer<char> >, char> >(std::__1::basic_format_parse_context<char>&&, std::__1::basic_format_context<std::__1::back_insert_iterator<std::__1::__format::__output_buffer<char> >, char>&&)+0x30>
    28e8:	aa1603e0 	mov	x0, x22
    28ec:	a9434ff4 	ldp	x20, x19, [sp, #48]
    28f0:	f9400bf7 	ldr	x23, [sp, #16]
    28f4:	a94257f6 	ldp	x22, x21, [sp, #32]
    28f8:	a8c47bfd 	ldp	x29, x30, [sp], #64
    28fc:	d65f03c0 	ret
    2900:	f0000040 	adrp	x0, d000 <void* std::__1::__thread_proxy[abi:nn190104]<std::__1::tuple<std::__1::unique_ptr<std::__1::__thread_struct, std::__1::default_delete<std::__1::__thread_struct> >, relaxed_relaxed_write> >(void*)+0x40>
    2904:	91382400 	add	x0, x0, #0xe09
    2908:	940000d2 	bl	2c50 <std::__1::__throw_format_error[abi:nn190104](char const*)>
    290c:	f0000040 	adrp	x0, d000 <void* std::__1::__thread_proxy[abi:nn190104]<std::__1::tuple<std::__1::unique_ptr<std::__1::__thread_struct, std::__1::default_delete<std::__1::__thread_struct> >, relaxed_relaxed_write> >(void*)+0x40>
    2910:	91378c00 	add	x0, x0, #0xde3
    2914:	940000cf 	bl	2c50 <std::__1::__throw_format_error[abi:nn190104](char const*)>

0000000000002918 <std::__1::__format::__output_buffer<char>::__output_buffer[abi:nn190104]<std::__1::__format::__format_buffer<std::__1::ostream_iterator<char, char, std::__1::char_traits<char> >, char> >(unsigned long, std::__1::__format::__format_buffer<std::__1::ostream_iterator<char, char, std::__1::char_traits<char> >, char>*)::{lambda(char*, unsigned long, void*)#1}::__invoke(char*, unsigned long, void*)>:
    2918:	a9bc7bfd 	stp	x29, x30, [sp, #-64]!
    291c:	f9000bf7 	str	x23, [sp, #16]
    2920:	a90257f6 	stp	x22, x21, [sp, #32]
    2924:	a9034ff4 	stp	x20, x19, [sp, #48]
    2928:	910003fd 	mov	x29, sp
    292c:	a952d855 	ldp	x21, x22, [x2, #296]
    2930:	aa0203f3 	mov	x19, x2
    2934:	b40002a1 	cbz	x1, 2988 <std::__1::__format::__output_buffer<char>::__output_buffer[abi:nn190104]<std::__1::__format::__format_buffer<std::__1::ostream_iterator<char, char, std::__1::char_traits<char> >, char> >(unsigned long, std::__1::__format::__format_buffer<std::__1::ostream_iterator<char, char, std::__1::char_traits<char> >, char>*)::{lambda(char*, unsigned long, void*)#1}::__invoke(char*, unsigned long, void*)+0x70>
    2938:	aa0103f4 	mov	x20, x1
    293c:	aa0003f7 	mov	x23, x0
    2940:	14000004 	b	2950 <std::__1::__format::__output_buffer<char>::__output_buffer[abi:nn190104]<std::__1::__format::__format_buffer<std::__1::ostream_iterator<char, char, std::__1::char_traits<char> >, char> >(unsigned long, std::__1::__format::__format_buffer<std::__1::ostream_iterator<char, char, std::__1::char_traits<char> >, char>*)::{lambda(char*, unsigned long, void*)#1}::__invoke(char*, unsigned long, void*)+0x38>
    2944:	f1000694 	subs	x20, x20, #0x1
    2948:	910006f7 	add	x23, x23, #0x1
    294c:	540001e0 	b.eq	2988 <std::__1::__format::__output_buffer<char>::__output_buffer[abi:nn190104]<std::__1::__format::__format_buffer<std::__1::ostream_iterator<char, char, std::__1::char_traits<char> >, char> >(unsigned long, std::__1::__format::__format_buffer<std::__1::ostream_iterator<char, char, std::__1::char_traits<char> >, char>*)::{lambda(char*, unsigned long, void*)#1}::__invoke(char*, unsigned long, void*)+0x70>  // b.none
    2950:	394002e8 	ldrb	w8, [x23]
    2954:	910073a1 	add	x1, x29, #0x1c
    2958:	aa1503e0 	mov	x0, x21
    295c:	52800022 	mov	w2, #0x1                   	// #1
    2960:	390073a8 	strb	w8, [x29, #28]
    2964:	9400000f 	bl	29a0 <std::__1::basic_ostream<char, std::__1::char_traits<char> >& std::__1::__put_character_sequence[abi:nn190104]<char, std::__1::char_traits<char> >(std::__1::basic_ostream<char, std::__1::char_traits<char> >&, char const*, unsigned long)>
    2968:	b4fffef6 	cbz	x22, 2944 <std::__1::__format::__output_buffer<char>::__output_buffer[abi:nn190104]<std::__1::__format::__format_buffer<std::__1::ostream_iterator<char, char, std::__1::char_traits<char> >, char> >(unsigned long, std::__1::__format::__format_buffer<std::__1::ostream_iterator<char, char, std::__1::char_traits<char> >, char>*)::{lambda(char*, unsigned long, void*)#1}::__invoke(char*, unsigned long, void*)+0x2c>
    296c:	aa1603e0 	mov	x0, x22
    2970:	97fffcdc 	bl	1ce0 <strlen@plt>
    2974:	aa0003e2 	mov	x2, x0
    2978:	aa1503e0 	mov	x0, x21
    297c:	aa1603e1 	mov	x1, x22
    2980:	94000008 	bl	29a0 <std::__1::basic_ostream<char, std::__1::char_traits<char> >& std::__1::__put_character_sequence[abi:nn190104]<char, std::__1::char_traits<char> >(std::__1::basic_ostream<char, std::__1::char_traits<char> >&, char const*, unsigned long)>
    2984:	17fffff0 	b	2944 <std::__1::__format::__output_buffer<char>::__output_buffer[abi:nn190104]<std::__1::__format::__format_buffer<std::__1::ostream_iterator<char, char, std::__1::char_traits<char> >, char> >(unsigned long, std::__1::__format::__format_buffer<std::__1::ostream_iterator<char, char, std::__1::char_traits<char> >, char>*)::{lambda(char*, unsigned long, void*)#1}::__invoke(char*, unsigned long, void*)+0x2c>
    2988:	a912da75 	stp	x21, x22, [x19, #296]
    298c:	a9434ff4 	ldp	x20, x19, [sp, #48]
    2990:	f9400bf7 	ldr	x23, [sp, #16]
    2994:	a94257f6 	ldp	x22, x21, [sp, #32]
    2998:	a8c47bfd 	ldp	x29, x30, [sp], #64
    299c:	d65f03c0 	ret

00000000000029a0 <std::__1::basic_ostream<char, std::__1::char_traits<char> >& std::__1::__put_character_sequence[abi:nn190104]<char, std::__1::char_traits<char> >(std::__1::basic_ostream<char, std::__1::char_traits<char> >&, char const*, unsigned long)>:
    29a0:	d10183ff 	sub	sp, sp, #0x60
    29a4:	a9017bfd 	stp	x29, x30, [sp, #16]
    29a8:	f90013f9 	str	x25, [sp, #32]
    29ac:	a9035ff8 	stp	x24, x23, [sp, #48]
    29b0:	a90457f6 	stp	x22, x21, [sp, #64]
    29b4:	a9054ff4 	stp	x20, x19, [sp, #80]
    29b8:	910043fd 	add	x29, sp, #0x10
    29bc:	aa0003f3 	mov	x19, x0
    29c0:	aa0103f4 	mov	x20, x1
    29c4:	910003e0 	mov	x0, sp
    29c8:	aa1303e1 	mov	x1, x19
    29cc:	aa0203f6 	mov	x22, x2
    29d0:	97fffc64 	bl	1b60 <std::__1::basic_ostream<char, std::__1::char_traits<char> >::sentry::sentry(std::__1::basic_ostream<char, std::__1::char_traits<char> >&)@plt>
    29d4:	394003e8 	ldrb	w8, [sp]
    29d8:	7100051f 	cmp	w8, #0x1
    29dc:	54000581 	b.ne	2a8c <std::__1::basic_ostream<char, std::__1::char_traits<char> >& std::__1::__put_character_sequence[abi:nn190104]<char, std::__1::char_traits<char> >(std::__1::basic_ostream<char, std::__1::char_traits<char> >&, char const*, unsigned long)+0xec>  // b.any
    29e0:	f9400268 	ldr	x8, [x19]
    29e4:	52801609 	mov	w9, #0xb0                  	// #176
    29e8:	8b160296 	add	x22, x20, x22
    29ec:	f85e8108 	ldur	x8, [x8, #-24]
    29f0:	8b080275 	add	x21, x19, x8
    29f4:	b9400aa8 	ldr	w8, [x21, #8]
    29f8:	b94092a5 	ldr	w5, [x21, #144]
    29fc:	f94016b8 	ldr	x24, [x21, #40]
    2a00:	0a090108 	and	w8, w8, w9
    2a04:	7100811f 	cmp	w8, #0x20
    2a08:	9a9402d7 	csel	x23, x22, x20, eq	// eq = none
    2a0c:	310004bf 	cmn	w5, #0x1
    2a10:	54000221 	b.ne	2a54 <std::__1::basic_ostream<char, std::__1::char_traits<char> >& std::__1::__put_character_sequence[abi:nn190104]<char, std::__1::char_traits<char> >(std::__1::basic_ostream<char, std::__1::char_traits<char> >&, char const*, unsigned long)+0xb4>  // b.any
    2a14:	910063a8 	add	x8, x29, #0x18
    2a18:	aa1503e0 	mov	x0, x21
    2a1c:	97fffc65 	bl	1bb0 <std::__1::ios_base::getloc() const@plt>
    2a20:	b0000161 	adrp	x1, 2f000 <__FRAME_END__+0x1c6fc>
    2a24:	910063a0 	add	x0, x29, #0x18
    2a28:	f947d421 	ldr	x1, [x1, #4008]
    2a2c:	97fffc75 	bl	1c00 <std::__1::locale::use_facet(std::__1::locale::id&) const@plt>
    2a30:	f9400008 	ldr	x8, [x0]
    2a34:	52800401 	mov	w1, #0x20                  	// #32
    2a38:	f9401d08 	ldr	x8, [x8, #56]
    2a3c:	d63f0100 	blr	x8
    2a40:	2a0003f9 	mov	w25, w0
    2a44:	910063a0 	add	x0, x29, #0x18
    2a48:	97fffc7a 	bl	1c30 <std::__1::locale::~locale()@plt>
    2a4c:	12001f25 	and	w5, w25, #0xff
    2a50:	b90092a5 	str	w5, [x21, #144]
    2a54:	aa1803e0 	mov	x0, x24
    2a58:	aa1403e1 	mov	x1, x20
    2a5c:	aa1703e2 	mov	x2, x23
    2a60:	aa1603e3 	mov	x3, x22
    2a64:	aa1503e4 	mov	x4, x21
    2a68:	94000013 	bl	2ab4 <std::__1::ostreambuf_iterator<char, std::__1::char_traits<char> > std::__1::__pad_and_output[abi:nn190104]<char, std::__1::char_traits<char> >(std::__1::ostreambuf_iterator<char, std::__1::char_traits<char> >, char const*, char const*, char const*, std::__1::ios_base&, char)>
    2a6c:	b5000100 	cbnz	x0, 2a8c <std::__1::basic_ostream<char, std::__1::char_traits<char> >& std::__1::__put_character_sequence[abi:nn190104]<char, std::__1::char_traits<char> >(std::__1::basic_ostream<char, std::__1::char_traits<char> >&, char const*, unsigned long)+0xec>
    2a70:	f9400268 	ldr	x8, [x19]
    2a74:	528000a9 	mov	w9, #0x5                   	// #5
    2a78:	f85e8108 	ldur	x8, [x8, #-24]
    2a7c:	8b080260 	add	x0, x19, x8
    2a80:	b9402008 	ldr	w8, [x0, #32]
    2a84:	2a090101 	orr	w1, w8, w9
    2a88:	97fffbfe 	bl	1a80 <std::__1::ios_base::clear(unsigned int)@plt>
    2a8c:	910003e0 	mov	x0, sp
    2a90:	97fffc54 	bl	1be0 <std::__1::basic_ostream<char, std::__1::char_traits<char> >::sentry::~sentry()@plt>
    2a94:	aa1303e0 	mov	x0, x19
    2a98:	a9454ff4 	ldp	x20, x19, [sp, #80]
    2a9c:	f94013f9 	ldr	x25, [sp, #32]
    2aa0:	a94457f6 	ldp	x22, x21, [sp, #64]
    2aa4:	a9435ff8 	ldp	x24, x23, [sp, #48]
    2aa8:	a9417bfd 	ldp	x29, x30, [sp, #16]
    2aac:	910183ff 	add	sp, sp, #0x60
    2ab0:	d65f03c0 	ret

0000000000002ab4 <std::__1::ostreambuf_iterator<char, std::__1::char_traits<char> > std::__1::__pad_and_output[abi:nn190104]<char, std::__1::char_traits<char> >(std::__1::ostreambuf_iterator<char, std::__1::char_traits<char> >, char const*, char const*, char const*, std::__1::ios_base&, char)>:
    2ab4:	d101c3ff 	sub	sp, sp, #0x70
    2ab8:	a9027bfd 	stp	x29, x30, [sp, #32]
    2abc:	a90367fa 	stp	x26, x25, [sp, #48]
    2ac0:	a9045ff8 	stp	x24, x23, [sp, #64]
    2ac4:	a90557f6 	stp	x22, x21, [sp, #80]
    2ac8:	a9064ff4 	stp	x20, x19, [sp, #96]
    2acc:	910083fd 	add	x29, sp, #0x20
    2ad0:	aa0003f3 	mov	x19, x0
    2ad4:	b4000980 	cbz	x0, 2c04 <std::__1::ostreambuf_iterator<char, std::__1::char_traits<char> > std::__1::__pad_and_output[abi:nn190104]<char, std::__1::char_traits<char> >(std::__1::ostreambuf_iterator<char, std::__1::char_traits<char> >, char const*, char const*, char const*, std::__1::ios_base&, char)+0x150>
    2ad8:	f9400c88 	ldr	x8, [x4, #24]
    2adc:	cb010069 	sub	x9, x3, x1
    2ae0:	cb010059 	sub	x25, x2, x1
    2ae4:	2a0503f8 	mov	w24, w5
    2ae8:	aa0403f4 	mov	x20, x4
    2aec:	aa0303f6 	mov	x22, x3
    2af0:	eb090108 	subs	x8, x8, x9
    2af4:	aa0203f5 	mov	x21, x2
    2af8:	9a9fc117 	csel	x23, x8, xzr, gt
    2afc:	f100073f 	cmp	x25, #0x1
    2b00:	5400010b 	b.lt	2b20 <std::__1::ostreambuf_iterator<char, std::__1::char_traits<char> > std::__1::__pad_and_output[abi:nn190104]<char, std::__1::char_traits<char> >(std::__1::ostreambuf_iterator<char, std::__1::char_traits<char> >, char const*, char const*, char const*, std::__1::ios_base&, char)+0x6c>  // b.tstop
    2b04:	f9400268 	ldr	x8, [x19]
    2b08:	aa1303e0 	mov	x0, x19
    2b0c:	aa1903e2 	mov	x2, x25
    2b10:	f9403108 	ldr	x8, [x8, #96]
    2b14:	d63f0100 	blr	x8
    2b18:	eb19001f 	cmp	x0, x25
    2b1c:	54000721 	b.ne	2c00 <std::__1::ostreambuf_iterator<char, std::__1::char_traits<char> > std::__1::__pad_and_output[abi:nn190104]<char, std::__1::char_traits<char> >(std::__1::ostreambuf_iterator<char, std::__1::char_traits<char> >, char const*, char const*, char const*, std::__1::ios_base&, char)+0x14c>  // b.any
    2b20:	f10006ff 	cmp	x23, #0x1
    2b24:	5400054b 	b.lt	2bcc <std::__1::ostreambuf_iterator<char, std::__1::char_traits<char> > std::__1::__pad_and_output[abi:nn190104]<char, std::__1::char_traits<char> >(std::__1::ostreambuf_iterator<char, std::__1::char_traits<char> >, char const*, char const*, char const*, std::__1::ios_base&, char)+0x118>  // b.tstop
    2b28:	f1005eff 	cmp	x23, #0x17
    2b2c:	540000c2 	b.cs	2b44 <std::__1::ostreambuf_iterator<char, std::__1::char_traits<char> > std::__1::__pad_and_output[abi:nn190104]<char, std::__1::char_traits<char> >(std::__1::ostreambuf_iterator<char, std::__1::char_traits<char> >, char const*, char const*, char const*, std::__1::ios_base&, char)+0x90>  // b.hs, b.nlast
    2b30:	531f7ae8 	lsl	w8, w23, #1
    2b34:	910023e9 	add	x9, sp, #0x8
    2b38:	b2400139 	orr	x25, x9, #0x1
    2b3c:	390023e8 	strb	w8, [sp, #8]
    2b40:	1400000b 	b	2b6c <std::__1::ostreambuf_iterator<char, std::__1::char_traits<char> > std::__1::__pad_and_output[abi:nn190104]<char, std::__1::char_traits<char> >(std::__1::ostreambuf_iterator<char, std::__1::char_traits<char> >, char const*, char const*, char const*, std::__1::ios_base&, char)+0xb8>
    2b44:	b2400ae8 	orr	x8, x23, #0x7
    2b48:	52800349 	mov	w9, #0x1a                  	// #26
    2b4c:	f1005d1f 	cmp	x8, #0x17
    2b50:	9a88053a 	csinc	x26, x9, x8, eq	// eq = none
    2b54:	aa1a03e0 	mov	x0, x26
    2b58:	97fffbae 	bl	1a10 <operator new(unsigned long)@plt>
    2b5c:	b2400348 	orr	x8, x26, #0x1
    2b60:	aa0003f9 	mov	x25, x0
    2b64:	a90103f7 	stp	x23, x0, [sp, #16]
    2b68:	f90007e8 	str	x8, [sp, #8]
    2b6c:	aa1903e0 	mov	x0, x25
    2b70:	2a1803e1 	mov	w1, w24
    2b74:	aa1703e2 	mov	x2, x23
    2b78:	97fffc62 	bl	1d00 <memset@plt>
    2b7c:	38376b3f 	strb	wzr, [x25, x23]
    2b80:	f9400269 	ldr	x9, [x19]
    2b84:	aa1303e0 	mov	x0, x19
    2b88:	394023e8 	ldrb	w8, [sp, #8]
    2b8c:	f9400fea 	ldr	x10, [sp, #24]
    2b90:	aa1703e2 	mov	x2, x23
    2b94:	f9403129 	ldr	x9, [x9, #96]
    2b98:	7200011f 	tst	w8, #0x1
    2b9c:	910023e8 	add	x8, sp, #0x8
    2ba0:	9a881541 	csinc	x1, x10, x8, ne	// ne = any
    2ba4:	d63f0120 	blr	x9
    2ba8:	394023e8 	ldrb	w8, [sp, #8]
    2bac:	aa0003f8 	mov	x24, x0
    2bb0:	360000a8 	tbz	w8, #0, 2bc4 <std::__1::ostreambuf_iterator<char, std::__1::char_traits<char> > std::__1::__pad_and_output[abi:nn190104]<char, std::__1::char_traits<char> >(std::__1::ostreambuf_iterator<char, std::__1::char_traits<char> >, char const*, char const*, char const*, std::__1::ios_base&, char)+0x110>
    2bb4:	f94007e8 	ldr	x8, [sp, #8]
    2bb8:	f9400fe0 	ldr	x0, [sp, #24]
    2bbc:	927ff901 	and	x1, x8, #0xfffffffffffffffe
    2bc0:	97fffc44 	bl	1cd0 <operator delete(void*, unsigned long)@plt>
    2bc4:	eb17031f 	cmp	x24, x23
    2bc8:	540001c1 	b.ne	2c00 <std::__1::ostreambuf_iterator<char, std::__1::char_traits<char> > std::__1::__pad_and_output[abi:nn190104]<char, std::__1::char_traits<char> >(std::__1::ostreambuf_iterator<char, std::__1::char_traits<char> >, char const*, char const*, char const*, std::__1::ios_base&, char)+0x14c>  // b.any
    2bcc:	cb1502d6 	sub	x22, x22, x21
    2bd0:	f10006df 	cmp	x22, #0x1
    2bd4:	5400012b 	b.lt	2bf8 <std::__1::ostreambuf_iterator<char, std::__1::char_traits<char> > std::__1::__pad_and_output[abi:nn190104]<char, std::__1::char_traits<char> >(std::__1::ostreambuf_iterator<char, std::__1::char_traits<char> >, char const*, char const*, char const*, std::__1::ios_base&, char)+0x144>  // b.tstop
    2bd8:	f9400268 	ldr	x8, [x19]
    2bdc:	aa1303e0 	mov	x0, x19
    2be0:	aa1503e1 	mov	x1, x21
    2be4:	aa1603e2 	mov	x2, x22
    2be8:	f9403108 	ldr	x8, [x8, #96]
    2bec:	d63f0100 	blr	x8
    2bf0:	eb16001f 	cmp	x0, x22
    2bf4:	54000061 	b.ne	2c00 <std::__1::ostreambuf_iterator<char, std::__1::char_traits<char> > std::__1::__pad_and_output[abi:nn190104]<char, std::__1::char_traits<char> >(std::__1::ostreambuf_iterator<char, std::__1::char_traits<char> >, char const*, char const*, char const*, std::__1::ios_base&, char)+0x14c>  // b.any
    2bf8:	f9000e9f 	str	xzr, [x20, #24]
    2bfc:	14000002 	b	2c04 <std::__1::ostreambuf_iterator<char, std::__1::char_traits<char> > std::__1::__pad_and_output[abi:nn190104]<char, std::__1::char_traits<char> >(std::__1::ostreambuf_iterator<char, std::__1::char_traits<char> >, char const*, char const*, char const*, std::__1::ios_base&, char)+0x150>
    2c00:	aa1f03f3 	mov	x19, xzr
    2c04:	aa1303e0 	mov	x0, x19
    2c08:	a9464ff4 	ldp	x20, x19, [sp, #96]
    2c0c:	a94557f6 	ldp	x22, x21, [sp, #80]
    2c10:	a9445ff8 	ldp	x24, x23, [sp, #64]
    2c14:	a94367fa 	ldp	x26, x25, [sp, #48]
    2c18:	a9427bfd 	ldp	x29, x30, [sp, #32]
    2c1c:	9101c3ff 	add	sp, sp, #0x70
    2c20:	d65f03c0 	ret

0000000000002c24 <std::__1::basic_string<char, std::__1::char_traits<char>, std::__1::allocator<char> >::__throw_length_error[abi:nn190104]() const>:
    2c24:	a9bf7bfd 	stp	x29, x30, [sp, #-16]!
    2c28:	910003fd 	mov	x29, sp
    2c2c:	f0000040 	adrp	x0, d000 <void* std::__1::__thread_proxy[abi:nn190104]<std::__1::tuple<std::__1::unique_ptr<std::__1::__thread_struct, std::__1::default_delete<std::__1::__thread_struct> >, relaxed_relaxed_write> >(void*)+0x40>
    2c30:	91365000 	add	x0, x0, #0xd94
    2c34:	94000001 	bl	2c38 <std::__1::__throw_length_error[abi:nn190104](char const*)>

0000000000002c38 <std::__1::__throw_length_error[abi:nn190104](char const*)>:
    2c38:	a9bf7bfd 	stp	x29, x30, [sp, #-16]!
    2c3c:	910003fd 	mov	x29, sp
    2c40:	aa0003e1 	mov	x1, x0
    2c44:	f0000040 	adrp	x0, d000 <void* std::__1::__thread_proxy[abi:nn190104]<std::__1::tuple<std::__1::unique_ptr<std::__1::__thread_struct, std::__1::default_delete<std::__1::__thread_struct> >, relaxed_relaxed_write> >(void*)+0x40>
    2c48:	91368400 	add	x0, x0, #0xda1
    2c4c:	97fffbd1 	bl	1b90 <std::__1::__libcpp_verbose_abort(char const*, ...)@plt>

0000000000002c50 <std::__1::__throw_format_error[abi:nn190104](char const*)>:
    2c50:	a9bf7bfd 	stp	x29, x30, [sp, #-16]!
    2c54:	910003fd 	mov	x29, sp
    2c58:	aa0003e1 	mov	x1, x0
    2c5c:	f0000040 	adrp	x0, d000 <void* std::__1::__thread_proxy[abi:nn190104]<std::__1::tuple<std::__1::unique_ptr<std::__1::__thread_struct, std::__1::default_delete<std::__1::__thread_struct> >, relaxed_relaxed_write> >(void*)+0x40>
    2c60:	9138fc00 	add	x0, x0, #0xe3f
    2c64:	97fffbcb 	bl	1b90 <std::__1::__libcpp_verbose_abort(char const*, ...)@plt>

0000000000002c68 <_ZNSt3__18__format26__handle_replacement_fieldB8nn190104ITkNS_19contiguous_iteratorEPKcNS_26basic_format_parse_contextIcEENS_20basic_format_contextINS_20back_insert_iteratorINS0_15__output_bufferIcEEEEcEEEET_SC_SC_RT0_RT1_>:
    2c68:	d101c3ff 	sub	sp, sp, #0x70
    2c6c:	a9047bfd 	stp	x29, x30, [sp, #64]
    2c70:	f9002bf5 	str	x21, [sp, #80]
    2c74:	a9064ff4 	stp	x20, x19, [sp, #96]
    2c78:	910103fd 	add	x29, sp, #0x40
    2c7c:	aa0303f5 	mov	x21, x3
    2c80:	aa0203f4 	mov	x20, x2
    2c84:	aa0103f3 	mov	x19, x1
    2c88:	9400003a 	bl	2d70 <_ZNSt3__18__format14__parse_arg_idB8nn190104ITkNS_19contiguous_iteratorEPKcNS_26basic_format_parse_contextIcEEEENS0_21__parse_number_resultIT_EES7_S7_RT0_>
    2c8c:	eb13001f 	cmp	x0, x19
    2c90:	540006a0 	b.eq	2d64 <_ZNSt3__18__format26__handle_replacement_fieldB8nn190104ITkNS_19contiguous_iteratorEPKcNS_26basic_format_parse_contextIcEENS_20basic_format_contextINS_20back_insert_iteratorINS0_15__output_bufferIcEEEEcEEEET_SC_SC_RT0_RT1_+0xfc>  // b.none
    2c94:	39400008 	ldrb	w8, [x0]
    2c98:	7100e91f 	cmp	w8, #0x3a
    2c9c:	1a9f17e9 	cset	w9, eq	// eq = none
    2ca0:	7101f51f 	cmp	w8, #0x7d
    2ca4:	390073a9 	strb	w9, [x29, #28]
    2ca8:	54000080 	b.eq	2cb8 <_ZNSt3__18__format26__handle_replacement_fieldB8nn190104ITkNS_19contiguous_iteratorEPKcNS_26basic_format_parse_contextIcEENS_20basic_format_contextINS_20back_insert_iteratorINS0_15__output_bufferIcEEEEcEEEET_SC_SC_RT0_RT1_+0x50>  // b.none
    2cac:	7100e91f 	cmp	w8, #0x3a
    2cb0:	540005a1 	b.ne	2d64 <_ZNSt3__18__format26__handle_replacement_fieldB8nn190104ITkNS_19contiguous_iteratorEPKcNS_26basic_format_parse_contextIcEENS_20basic_format_contextINS_20back_insert_iteratorINS0_15__output_bufferIcEEEEcEEEET_SC_SC_RT0_RT1_+0xfc>  // b.any
    2cb4:	91000400 	add	x0, x0, #0x1
    2cb8:	f94006a9 	ldr	x9, [x21, #8]
    2cbc:	2a0103e8 	mov	w8, w1
    2cc0:	910073aa 	add	x10, x29, #0x1c
    2cc4:	f9000280 	str	x0, [x20]
    2cc8:	eb08013f 	cmp	x9, x8
    2ccc:	a93ed7b4 	stp	x20, x21, [x29, #-24]
    2cd0:	f81f83aa 	stur	x10, [x29, #-8]
    2cd4:	54000189 	b.ls	2d04 <_ZNSt3__18__format26__handle_replacement_fieldB8nn190104ITkNS_19contiguous_iteratorEPKcNS_26basic_format_parse_contextIcEENS_20basic_format_contextINS_20back_insert_iteratorINS0_15__output_bufferIcEEEEcEEEET_SC_SC_RT0_RT1_+0x9c>  // b.plast
    2cd8:	f100313f 	cmp	x9, #0xc
    2cdc:	54000188 	b.hi	2d0c <_ZNSt3__18__format26__handle_replacement_fieldB8nn190104ITkNS_19contiguous_iteratorEPKcNS_26basic_format_parse_contextIcEENS_20basic_format_contextINS_20back_insert_iteratorINS0_15__output_bufferIcEEEEcEEEET_SC_SC_RT0_RT1_+0xa4>  // b.pmore
    2ce0:	a9412aa9 	ldp	x9, x10, [x21, #16]
    2ce4:	8b081129 	add	x9, x9, x8, lsl #4
    2ce8:	8b080908 	add	x8, x8, x8, lsl #2
    2cec:	a9402d29 	ldp	x9, x11, [x9]
    2cf0:	9ac82548 	lsr	x8, x10, x8
    2cf4:	12001108 	and	w8, w8, #0x1f
    2cf8:	a9002fe9 	stp	x9, x11, [sp]
    2cfc:	390043e8 	strb	w8, [sp, #16]
    2d00:	14000007 	b	2d1c <_ZNSt3__18__format26__handle_replacement_fieldB8nn190104ITkNS_19contiguous_iteratorEPKcNS_26basic_format_parse_contextIcEENS_20basic_format_contextINS_20back_insert_iteratorINS0_15__output_bufferIcEEEEcEEEET_SC_SC_RT0_RT1_+0xb4>
    2d04:	390043ff 	strb	wzr, [sp, #16]
    2d08:	14000005 	b	2d1c <_ZNSt3__18__format26__handle_replacement_fieldB8nn190104ITkNS_19contiguous_iteratorEPKcNS_26basic_format_parse_contextIcEENS_20basic_format_contextINS_20back_insert_iteratorINS0_15__output_bufferIcEEEEcEEEET_SC_SC_RT0_RT1_+0xb4>
    2d0c:	f9400aa9 	ldr	x9, [x21, #16]
    2d10:	8b081528 	add	x8, x9, x8, lsl #5
    2d14:	ad400500 	ldp	q0, q1, [x8]
    2d18:	ad0007e0 	stp	q0, q1, [sp]
    2d1c:	d10063a0 	sub	x0, x29, #0x18
    2d20:	910003e1 	mov	x1, sp
    2d24:	9400003f 	bl	2e20 <_ZNSt3__118__visit_format_argB8nn190104IZNS_8__format26__handle_replacement_fieldB8nn190104ITkNS_19contiguous_iteratorEPKcNS_26basic_format_parse_contextIcEENS_20basic_format_contextINS_20back_insert_iteratorINS1_15__output_bufferIcEEEEcEEEET_SD_SD_RT0_RT1_EUlSD_E_SC_EEDcOSD_NS_16basic_format_argISE_EE>
    2d28:	f9400288 	ldr	x8, [x20]
    2d2c:	eb13011f 	cmp	x8, x19
    2d30:	54000140 	b.eq	2d58 <_ZNSt3__18__format26__handle_replacement_fieldB8nn190104ITkNS_19contiguous_iteratorEPKcNS_26basic_format_parse_contextIcEENS_20basic_format_contextINS_20back_insert_iteratorINS0_15__output_bufferIcEEEEcEEEET_SC_SC_RT0_RT1_+0xf0>  // b.none
    2d34:	39400109 	ldrb	w9, [x8]
    2d38:	7101f53f 	cmp	w9, #0x7d
    2d3c:	540000e1 	b.ne	2d58 <_ZNSt3__18__format26__handle_replacement_fieldB8nn190104ITkNS_19contiguous_iteratorEPKcNS_26basic_format_parse_contextIcEENS_20basic_format_contextINS_20back_insert_iteratorINS0_15__output_bufferIcEEEEcEEEET_SC_SC_RT0_RT1_+0xf0>  // b.any
    2d40:	91000500 	add	x0, x8, #0x1
    2d44:	a9464ff4 	ldp	x20, x19, [sp, #96]
    2d48:	f9402bf5 	ldr	x21, [sp, #80]
    2d4c:	a9447bfd 	ldp	x29, x30, [sp, #64]
    2d50:	9101c3ff 	add	sp, sp, #0x70
    2d54:	d65f03c0 	ret
    2d58:	f0000040 	adrp	x0, d000 <void* std::__1::__thread_proxy[abi:nn190104]<std::__1::tuple<std::__1::unique_ptr<std::__1::__thread_struct, std::__1::default_delete<std::__1::__thread_struct> >, relaxed_relaxed_write> >(void*)+0x40>
    2d5c:	913acc00 	add	x0, x0, #0xeb3
    2d60:	97ffffbc 	bl	2c50 <std::__1::__throw_format_error[abi:nn190104](char const*)>
    2d64:	f0000040 	adrp	x0, d000 <void* std::__1::__thread_proxy[abi:nn190104]<std::__1::tuple<std::__1::unique_ptr<std::__1::__thread_struct, std::__1::default_delete<std::__1::__thread_struct> >, relaxed_relaxed_write> >(void*)+0x40>
    2d68:	913a0400 	add	x0, x0, #0xe81
    2d6c:	97ffffb9 	bl	2c50 <std::__1::__throw_format_error[abi:nn190104](char const*)>

0000000000002d70 <_ZNSt3__18__format14__parse_arg_idB8nn190104ITkNS_19contiguous_iteratorEPKcNS_26basic_format_parse_contextIcEEEENS0_21__parse_number_resultIT_EES7_S7_RT0_>:
    2d70:	a9bf7bfd 	stp	x29, x30, [sp, #-16]!
    2d74:	910003fd 	mov	x29, sp
    2d78:	39400008 	ldrb	w8, [x0]
    2d7c:	7101f51f 	cmp	w8, #0x7d
    2d80:	54000180 	b.eq	2db0 <_ZNSt3__18__format14__parse_arg_idB8nn190104ITkNS_19contiguous_iteratorEPKcNS_26basic_format_parse_contextIcEEEENS0_21__parse_number_resultIT_EES7_S7_RT0_+0x40>  // b.none
    2d84:	7100e909 	subs	w9, w8, #0x3a
    2d88:	54000140 	b.eq	2db0 <_ZNSt3__18__format14__parse_arg_idB8nn190104ITkNS_19contiguous_iteratorEPKcNS_26basic_format_parse_contextIcEEEENS0_21__parse_number_resultIT_EES7_S7_RT0_+0x40>  // b.none
    2d8c:	7100c11f 	cmp	w8, #0x30
    2d90:	540001e1 	b.ne	2dcc <_ZNSt3__18__format14__parse_arg_idB8nn190104ITkNS_19contiguous_iteratorEPKcNS_26basic_format_parse_contextIcEEEENS0_21__parse_number_resultIT_EES7_S7_RT0_+0x5c>  // b.any
    2d94:	b9401048 	ldr	w8, [x2, #16]
    2d98:	34000328 	cbz	w8, 2dfc <_ZNSt3__18__format14__parse_arg_idB8nn190104ITkNS_19contiguous_iteratorEPKcNS_26basic_format_parse_contextIcEEEENS0_21__parse_number_resultIT_EES7_S7_RT0_+0x8c>
    2d9c:	7100091f 	cmp	w8, #0x2
    2da0:	54000321 	b.ne	2e04 <_ZNSt3__18__format14__parse_arg_idB8nn190104ITkNS_19contiguous_iteratorEPKcNS_26basic_format_parse_contextIcEEEENS0_21__parse_number_resultIT_EES7_S7_RT0_+0x94>  // b.any
    2da4:	f0000040 	adrp	x0, d000 <void* std::__1::__thread_proxy[abi:nn190104]<std::__1::tuple<std::__1::unique_ptr<std::__1::__thread_struct, std::__1::default_delete<std::__1::__thread_struct> >, relaxed_relaxed_write> >(void*)+0x40>
    2da8:	913c5800 	add	x0, x0, #0xf16
    2dac:	97ffffa9 	bl	2c50 <std::__1::__throw_format_error[abi:nn190104](char const*)>
    2db0:	b9401048 	ldr	w8, [x2, #16]
    2db4:	34000148 	cbz	w8, 2ddc <_ZNSt3__18__format14__parse_arg_idB8nn190104ITkNS_19contiguous_iteratorEPKcNS_26basic_format_parse_contextIcEEEENS0_21__parse_number_resultIT_EES7_S7_RT0_+0x6c>
    2db8:	7100051f 	cmp	w8, #0x1
    2dbc:	54000141 	b.ne	2de4 <_ZNSt3__18__format14__parse_arg_idB8nn190104ITkNS_19contiguous_iteratorEPKcNS_26basic_format_parse_contextIcEEEENS0_21__parse_number_resultIT_EES7_S7_RT0_+0x74>  // b.any
    2dc0:	f0000040 	adrp	x0, d000 <void* std::__1::__thread_proxy[abi:nn190104]<std::__1::tuple<std::__1::unique_ptr<std::__1::__thread_struct, std::__1::default_delete<std::__1::__thread_struct> >, relaxed_relaxed_write> >(void*)+0x40>
    2dc4:	913d6c00 	add	x0, x0, #0xf5b
    2dc8:	97ffffa2 	bl	2c50 <std::__1::__throw_format_error[abi:nn190104](char const*)>
    2dcc:	31002d3f 	cmn	w9, #0xb
    2dd0:	54000229 	b.ls	2e14 <_ZNSt3__18__format14__parse_arg_idB8nn190104ITkNS_19contiguous_iteratorEPKcNS_26basic_format_parse_contextIcEEEENS0_21__parse_number_resultIT_EES7_S7_RT0_+0xa4>  // b.plast
    2dd4:	a8c17bfd 	ldp	x29, x30, [sp], #16
    2dd8:	1400009b 	b	3044 <_ZNSt3__18__format8__detail14__parse_manualB8nn190104ITkNS_19contiguous_iteratorEPKcNS_26basic_format_parse_contextIcEEEENS0_21__parse_number_resultIT_EES8_S8_RT0_>
    2ddc:	52800048 	mov	w8, #0x2                   	// #2
    2de0:	b9001048 	str	w8, [x2, #16]
    2de4:	f9400c48 	ldr	x8, [x2, #24]
    2de8:	91000509 	add	x9, x8, #0x1
    2dec:	f9000c49 	str	x9, [x2, #24]
    2df0:	2a0803e1 	mov	w1, w8
    2df4:	a8c17bfd 	ldp	x29, x30, [sp], #16
    2df8:	d65f03c0 	ret
    2dfc:	52800028 	mov	w8, #0x1                   	// #1
    2e00:	b9001048 	str	w8, [x2, #16]
    2e04:	aa1f03e1 	mov	x1, xzr
    2e08:	91000400 	add	x0, x0, #0x1
    2e0c:	a8c17bfd 	ldp	x29, x30, [sp], #16
    2e10:	d65f03c0 	ret
    2e14:	f0000040 	adrp	x0, d000 <void* std::__1::__thread_proxy[abi:nn190104]<std::__1::tuple<std::__1::unique_ptr<std::__1::__thread_struct, std::__1::default_delete<std::__1::__thread_struct> >, relaxed_relaxed_write> >(void*)+0x40>
    2e18:	913b8800 	add	x0, x0, #0xee2
    2e1c:	97ffff8d 	bl	2c50 <std::__1::__throw_format_error[abi:nn190104](char const*)>

0000000000002e20 <_ZNSt3__118__visit_format_argB8nn190104IZNS_8__format26__handle_replacement_fieldB8nn190104ITkNS_19contiguous_iteratorEPKcNS_26basic_format_parse_contextIcEENS_20basic_format_contextINS_20back_insert_iteratorINS1_15__output_bufferIcEEEEcEEEET_SD_SD_RT0_RT1_EUlSD_E_SC_EEDcOSD_NS_16basic_format_argISE_EE>:
    2e20:	d10103ff 	sub	sp, sp, #0x40
    2e24:	a9017bfd 	stp	x29, x30, [sp, #16]
    2e28:	f90013f5 	str	x21, [sp, #32]
    2e2c:	a9034ff4 	stp	x20, x19, [sp, #48]
    2e30:	910043fd 	add	x29, sp, #0x10
    2e34:	39404028 	ldrb	w8, [x1, #16]
    2e38:	f0000049 	adrp	x9, d000 <void* std::__1::__thread_proxy[abi:nn190104]<std::__1::tuple<std::__1::unique_ptr<std::__1::__thread_struct, std::__1::default_delete<std::__1::__thread_struct> >, relaxed_relaxed_write> >(void*)+0x40>
    2e3c:	912e4129 	add	x9, x9, #0xb90
    2e40:	1000008a 	adr	x10, 2e50 <_ZNSt3__118__visit_format_argB8nn190104IZNS_8__format26__handle_replacement_fieldB8nn190104ITkNS_19contiguous_iteratorEPKcNS_26basic_format_parse_contextIcEENS_20basic_format_contextINS_20back_insert_iteratorINS1_15__output_bufferIcEEEEcEEEET_SD_SD_RT0_RT1_EUlSD_E_SC_EEDcOSD_NS_16basic_format_argISE_EE+0x30>
    2e44:	3868692b 	ldrb	w11, [x9, x8]
    2e48:	8b0b094a 	add	x10, x10, x11, lsl #2
    2e4c:	d61f0140 	br	x10
    2e50:	39400021 	ldrb	w1, [x1]
    2e54:	a9434ff4 	ldp	x20, x19, [sp, #48]
    2e58:	f94013f5 	ldr	x21, [sp, #32]
    2e5c:	a9417bfd 	ldp	x29, x30, [sp, #16]
    2e60:	910103ff 	add	sp, sp, #0x40
    2e64:	140001db 	b	35d0 <_ZZNSt3__18__format26__handle_replacement_fieldB8nn190104ITkNS_19contiguous_iteratorEPKcNS_26basic_format_parse_contextIcEENS_20basic_format_contextINS_20back_insert_iteratorINS0_15__output_bufferIcEEEEcEEEET_SC_SC_RT0_RT1_ENKUlSC_E_clIbEEDaSC_>
    2e68:	a9434ff4 	ldp	x20, x19, [sp, #48]
    2e6c:	f94013f5 	ldr	x21, [sp, #32]
    2e70:	a9417bfd 	ldp	x29, x30, [sp, #16]
    2e74:	910103ff 	add	sp, sp, #0x40
    2e78:	1400019f 	b	34f4 <_ZNSt3__16invokeB8nn190104IZNS_8__format26__handle_replacement_fieldB8nn190104ITkNS_19contiguous_iteratorEPKcNS_26basic_format_parse_contextIcEENS_20basic_format_contextINS_20back_insert_iteratorINS1_15__output_bufferIcEEEEcEEEET_SD_SD_RT0_RT1_EUlSD_E_JRPKvEEENS_13invoke_resultISD_JDpT0_EE4typeEOSD_DpOSN_>
    2e7c:	a9434ff4 	ldp	x20, x19, [sp, #48]
    2e80:	f94013f5 	ldr	x21, [sp, #32]
    2e84:	a9417bfd 	ldp	x29, x30, [sp, #16]
    2e88:	910103ff 	add	sp, sp, #0x40
    2e8c:	14000168 	b	342c <_ZNSt3__16invokeB8nn190104IZNS_8__format26__handle_replacement_fieldB8nn190104ITkNS_19contiguous_iteratorEPKcNS_26basic_format_parse_contextIcEENS_20basic_format_contextINS_20back_insert_iteratorINS1_15__output_bufferIcEEEEcEEEET_SD_SD_RT0_RT1_EUlSD_E_JRNS_17basic_string_viewIcNS_11char_traitsIcEEEEEEENS_13invoke_resultISD_JDpT0_EE4typeEOSD_DpOSP_>
    2e90:	f9400021 	ldr	x1, [x1]
    2e94:	a9434ff4 	ldp	x20, x19, [sp, #48]
    2e98:	f94013f5 	ldr	x21, [sp, #32]
    2e9c:	a9417bfd 	ldp	x29, x30, [sp, #16]
    2ea0:	910103ff 	add	sp, sp, #0x40
    2ea4:	14000df3 	b	6670 <_ZZNSt3__18__format26__handle_replacement_fieldB8nn190104ITkNS_19contiguous_iteratorEPKcNS_26basic_format_parse_contextIcEENS_20basic_format_contextINS_20back_insert_iteratorINS0_15__output_bufferIcEEEEcEEEET_SC_SC_RT0_RT1_ENKUlSC_E_clIxEEDaSC_>
    2ea8:	a9434ff4 	ldp	x20, x19, [sp, #48]
    2eac:	f94013f5 	ldr	x21, [sp, #32]
    2eb0:	a9417bfd 	ldp	x29, x30, [sp, #16]
    2eb4:	910103ff 	add	sp, sp, #0x40
    2eb8:	140000a1 	b	313c <_ZNSt3__16invokeB8nn190104IZNS_8__format26__handle_replacement_fieldB8nn190104ITkNS_19contiguous_iteratorEPKcNS_26basic_format_parse_contextIcEENS_20basic_format_contextINS_20back_insert_iteratorINS1_15__output_bufferIcEEEEcEEEET_SD_SD_RT0_RT1_EUlSD_E_JRfEEENS_13invoke_resultISD_JDpT0_EE4typeEOSD_DpOSL_>
    2ebc:	a9400c22 	ldp	x2, x3, [x1]
    2ec0:	a9434ff4 	ldp	x20, x19, [sp, #48]
    2ec4:	f94013f5 	ldr	x21, [sp, #32]
    2ec8:	a9417bfd 	ldp	x29, x30, [sp, #16]
    2ecc:	910103ff 	add	sp, sp, #0x40
    2ed0:	14001559 	b	8434 <_ZZNSt3__18__format26__handle_replacement_fieldB8nn190104ITkNS_19contiguous_iteratorEPKcNS_26basic_format_parse_contextIcEENS_20basic_format_contextINS_20back_insert_iteratorINS0_15__output_bufferIcEEEEcEEEET_SC_SC_RT0_RT1_ENKUlSC_E_clIoEEDaSC_>
    2ed4:	39400021 	ldrb	w1, [x1]
    2ed8:	a9434ff4 	ldp	x20, x19, [sp, #48]
    2edc:	f94013f5 	ldr	x21, [sp, #32]
    2ee0:	a9417bfd 	ldp	x29, x30, [sp, #16]
    2ee4:	910103ff 	add	sp, sp, #0x40
    2ee8:	14000d3a 	b	63d0 <_ZZNSt3__18__format26__handle_replacement_fieldB8nn190104ITkNS_19contiguous_iteratorEPKcNS_26basic_format_parse_contextIcEENS_20basic_format_contextINS_20back_insert_iteratorINS0_15__output_bufferIcEEEEcEEEET_SC_SC_RT0_RT1_ENKUlSC_E_clIcEEDaSC_>
    2eec:	b9400021 	ldr	w1, [x1]
    2ef0:	a9434ff4 	ldp	x20, x19, [sp, #48]
    2ef4:	f94013f5 	ldr	x21, [sp, #32]
    2ef8:	a9417bfd 	ldp	x29, x30, [sp, #16]
    2efc:	910103ff 	add	sp, sp, #0x40
    2f00:	14000d89 	b	6524 <_ZZNSt3__18__format26__handle_replacement_fieldB8nn190104ITkNS_19contiguous_iteratorEPKcNS_26basic_format_parse_contextIcEENS_20basic_format_contextINS_20back_insert_iteratorINS0_15__output_bufferIcEEEEcEEEET_SC_SC_RT0_RT1_ENKUlSC_E_clIiEEDaSC_>
    2f04:	b9400021 	ldr	w1, [x1]
    2f08:	a9434ff4 	ldp	x20, x19, [sp, #48]
    2f0c:	f94013f5 	ldr	x21, [sp, #32]
    2f10:	a9417bfd 	ldp	x29, x30, [sp, #16]
    2f14:	910103ff 	add	sp, sp, #0x40
    2f18:	140014a5 	b	81ac <_ZZNSt3__18__format26__handle_replacement_fieldB8nn190104ITkNS_19contiguous_iteratorEPKcNS_26basic_format_parse_contextIcEENS_20basic_format_contextINS_20back_insert_iteratorINS0_15__output_bufferIcEEEEcEEEET_SC_SC_RT0_RT1_ENKUlSC_E_clIjEEDaSC_>
    2f1c:	a9400c22 	ldp	x2, x3, [x1]
    2f20:	a9434ff4 	ldp	x20, x19, [sp, #48]
    2f24:	f94013f5 	ldr	x21, [sp, #32]
    2f28:	a9417bfd 	ldp	x29, x30, [sp, #16]
    2f2c:	910103ff 	add	sp, sp, #0x40
    2f30:	1400106d 	b	70e4 <_ZZNSt3__18__format26__handle_replacement_fieldB8nn190104ITkNS_19contiguous_iteratorEPKcNS_26basic_format_parse_contextIcEENS_20basic_format_contextINS_20back_insert_iteratorINS0_15__output_bufferIcEEEEcEEEET_SC_SC_RT0_RT1_ENKUlSC_E_clInEEDaSC_>
    2f34:	a9434ff4 	ldp	x20, x19, [sp, #48]
    2f38:	f94013f5 	ldr	x21, [sp, #32]
    2f3c:	a9417bfd 	ldp	x29, x30, [sp, #16]
    2f40:	910103ff 	add	sp, sp, #0x40
    2f44:	140000fc 	b	3334 <_ZNSt3__16invokeB8nn190104IZNS_8__format26__handle_replacement_fieldB8nn190104ITkNS_19contiguous_iteratorEPKcNS_26basic_format_parse_contextIcEENS_20basic_format_contextINS_20back_insert_iteratorINS1_15__output_bufferIcEEEEcEEEET_SD_SD_RT0_RT1_EUlSD_E_JReEEENS_13invoke_resultISD_JDpT0_EE4typeEOSD_DpOSL_>
    2f48:	f9400021 	ldr	x1, [x1]
    2f4c:	a9434ff4 	ldp	x20, x19, [sp, #48]
    2f50:	f94013f5 	ldr	x21, [sp, #32]
    2f54:	a9417bfd 	ldp	x29, x30, [sp, #16]
    2f58:	910103ff 	add	sp, sp, #0x40
    2f5c:	140014e5 	b	82f0 <_ZZNSt3__18__format26__handle_replacement_fieldB8nn190104ITkNS_19contiguous_iteratorEPKcNS_26basic_format_parse_contextIcEENS_20basic_format_contextINS_20back_insert_iteratorINS0_15__output_bufferIcEEEEcEEEET_SC_SC_RT0_RT1_ENKUlSC_E_clIyEEDaSC_>
    2f60:	a9434ff4 	ldp	x20, x19, [sp, #48]
    2f64:	f94013f5 	ldr	x21, [sp, #32]
    2f68:	a9417bfd 	ldp	x29, x30, [sp, #16]
    2f6c:	910103ff 	add	sp, sp, #0x40
    2f70:	140000b2 	b	3238 <_ZNSt3__16invokeB8nn190104IZNS_8__format26__handle_replacement_fieldB8nn190104ITkNS_19contiguous_iteratorEPKcNS_26basic_format_parse_contextIcEENS_20basic_format_contextINS_20back_insert_iteratorINS1_15__output_bufferIcEEEEcEEEET_SD_SD_RT0_RT1_EUlSD_E_JRdEEENS_13invoke_resultISD_JDpT0_EE4typeEOSD_DpOSL_>
    2f74:	52800028 	mov	w8, #0x1                   	// #1
    2f78:	52800409 	mov	w9, #0x20                  	// #32
    2f7c:	7800d3ff 	sturh	wzr, [sp, #13]
    2f80:	b90003e8 	str	w8, [sp]
    2f84:	f9400808 	ldr	x8, [x0, #16]
    2f88:	2f07e600 	movi	d0, #0xffffffff00000000
    2f8c:	390033e9 	strb	w9, [sp, #12]
    2f90:	f9400033 	ldr	x19, [x1]
    2f94:	39003fff 	strb	wzr, [sp, #15]
    2f98:	39400108 	ldrb	w8, [x8]
    2f9c:	fc0043e0 	stur	d0, [sp, #4]
    2fa0:	7100051f 	cmp	w8, #0x1
    2fa4:	540001c1 	b.ne	2fdc <_ZNSt3__118__visit_format_argB8nn190104IZNS_8__format26__handle_replacement_fieldB8nn190104ITkNS_19contiguous_iteratorEPKcNS_26basic_format_parse_contextIcEENS_20basic_format_contextINS_20back_insert_iteratorINS1_15__output_bufferIcEEEEcEEEET_SD_SD_RT0_RT1_EUlSD_E_SC_EEDcOSD_NS_16basic_format_argISE_EE+0x1bc>  // b.any
    2fa8:	f9400014 	ldr	x20, [x0]
    2fac:	aa0003f5 	mov	x21, x0
    2fb0:	910003e0 	mov	x0, sp
    2fb4:	52802502 	mov	w2, #0x128                 	// #296
    2fb8:	aa1403e1 	mov	x1, x20
    2fbc:	940001d1 	bl	3700 <std::__1::basic_format_parse_context<char>::iterator std::__1::__format_spec::__parser<char>::__parse[abi:nn190104]<std::__1::basic_format_parse_context<char> >(std::__1::basic_format_parse_context<char>&, std::__1::__format_spec::__fields[abi:nn190104])>
    2fc0:	394007e8 	ldrb	w8, [sp, #1]
    2fc4:	7100091f 	cmp	w8, #0x2
    2fc8:	54000063 	b.cc	2fd4 <_ZNSt3__118__visit_format_argB8nn190104IZNS_8__format26__handle_replacement_fieldB8nn190104ITkNS_19contiguous_iteratorEPKcNS_26basic_format_parse_contextIcEENS_20basic_format_contextINS_20back_insert_iteratorINS1_15__output_bufferIcEEEEcEEEET_SD_SD_RT0_RT1_EUlSD_E_SC_EEDcOSD_NS_16basic_format_argISE_EE+0x1b4>  // b.lo, b.ul, b.last
    2fcc:	71004d1f 	cmp	w8, #0x13
    2fd0:	54000341 	b.ne	3038 <_ZNSt3__118__visit_format_argB8nn190104IZNS_8__format26__handle_replacement_fieldB8nn190104ITkNS_19contiguous_iteratorEPKcNS_26basic_format_parse_contextIcEENS_20basic_format_contextINS_20back_insert_iteratorINS1_15__output_bufferIcEEEEcEEEET_SD_SD_RT0_RT1_EUlSD_E_SC_EEDcOSD_NS_16basic_format_argISE_EE+0x218>  // b.any
    2fd4:	f9000280 	str	x0, [x20]
    2fd8:	aa1503e0 	mov	x0, x21
    2fdc:	f9400414 	ldr	x20, [x0, #8]
    2fe0:	910003e0 	mov	x0, sp
    2fe4:	aa1303e1 	mov	x1, x19
    2fe8:	aa1403e2 	mov	x2, x20
    2fec:	94001fcc 	bl	af1c <std::__1::basic_format_context<std::__1::back_insert_iterator<std::__1::__format::__output_buffer<char> >, char>::iterator std::__1::formatter<char const*, char>::format[abi:nn190104]<std::__1::basic_format_context<std::__1::back_insert_iterator<std::__1::__format::__output_buffer<char> >, char> >(char const*, std::__1::basic_format_context<std::__1::back_insert_iterator<std::__1::__format::__output_buffer<char> >, char>&) const>
    2ff0:	f9000280 	str	x0, [x20]
    2ff4:	a9434ff4 	ldp	x20, x19, [sp, #48]
    2ff8:	f94013f5 	ldr	x21, [sp, #32]
    2ffc:	a9417bfd 	ldp	x29, x30, [sp, #16]
    3000:	910103ff 	add	sp, sp, #0x40
    3004:	d65f03c0 	ret
    3008:	a9402408 	ldp	x8, x9, [x0]
    300c:	a9400c22 	ldp	x2, x3, [x1]
    3010:	aa0803e0 	mov	x0, x8
    3014:	aa0903e1 	mov	x1, x9
    3018:	a9434ff4 	ldp	x20, x19, [sp, #48]
    301c:	f94013f5 	ldr	x21, [sp, #32]
    3020:	a9417bfd 	ldp	x29, x30, [sp, #16]
    3024:	910103ff 	add	sp, sp, #0x40
    3028:	d61f0060 	br	x3
    302c:	d0000040 	adrp	x0, d000 <void* std::__1::__thread_proxy[abi:nn190104]<std::__1::tuple<std::__1::unique_ptr<std::__1::__thread_struct, std::__1::default_delete<std::__1::__thread_struct> >, relaxed_relaxed_write> >(void*)+0x40>
    3030:	913f5c00 	add	x0, x0, #0xfd7
    3034:	97ffff07 	bl	2c50 <std::__1::__throw_format_error[abi:nn190104](char const*)>
    3038:	f0000040 	adrp	x0, e000 <_IO_stdin_used+0x4b0>
    303c:	910fc800 	add	x0, x0, #0x3f2
    3040:	97ffff04 	bl	2c50 <std::__1::__throw_format_error[abi:nn190104](char const*)>

0000000000003044 <_ZNSt3__18__format8__detail14__parse_manualB8nn190104ITkNS_19contiguous_iteratorEPKcNS_26basic_format_parse_contextIcEEEENS0_21__parse_number_resultIT_EES8_S8_RT0_>:
    3044:	a9bf7bfd 	stp	x29, x30, [sp, #-16]!
    3048:	910003fd 	mov	x29, sp
    304c:	cb000029 	sub	x9, x1, x0
    3050:	aa0003e8 	mov	x8, x0
    3054:	9100240a 	add	x10, x0, #0x9
    3058:	f100253f 	cmp	x9, #0x9
    305c:	38401409 	ldrb	w9, [x0], #1
    3060:	9a81c14a 	csel	x10, x10, x1, gt
    3064:	eb0a001f 	cmp	x0, x10
    3068:	5100c129 	sub	w9, w9, #0x30
    306c:	54000420 	b.eq	30f0 <_ZNSt3__18__format8__detail14__parse_manualB8nn190104ITkNS_19contiguous_iteratorEPKcNS_26basic_format_parse_contextIcEEEENS0_21__parse_number_resultIT_EES8_S8_RT0_+0xac>  // b.none
    3070:	d1000548 	sub	x8, x10, #0x1
    3074:	5280014b 	mov	w11, #0xa                   	// #10
    3078:	3940000c 	ldrb	w12, [x0]
    307c:	5100e98d 	sub	w13, w12, #0x3a
    3080:	310029bf 	cmn	w13, #0xa
    3084:	540003e3 	b.cc	3100 <_ZNSt3__18__format8__detail14__parse_manualB8nn190104ITkNS_19contiguous_iteratorEPKcNS_26basic_format_parse_contextIcEEEENS0_21__parse_number_resultIT_EES8_S8_RT0_+0xbc>  // b.lo, b.ul, b.last
    3088:	1b0b3129 	madd	w9, w9, w11, w12
    308c:	91000400 	add	x0, x0, #0x1
    3090:	eb0a001f 	cmp	x0, x10
    3094:	5100c129 	sub	w9, w9, #0x30
    3098:	54ffff01 	b.ne	3078 <_ZNSt3__18__format8__detail14__parse_manualB8nn190104ITkNS_19contiguous_iteratorEPKcNS_26basic_format_parse_contextIcEEEENS0_21__parse_number_resultIT_EES8_S8_RT0_+0x34>  // b.any
    309c:	eb01015f 	cmp	x10, x1
    30a0:	540002e0 	b.eq	30fc <_ZNSt3__18__format8__detail14__parse_manualB8nn190104ITkNS_19contiguous_iteratorEPKcNS_26basic_format_parse_contextIcEEEENS0_21__parse_number_resultIT_EES8_S8_RT0_+0xb8>  // b.none
    30a4:	3940014b 	ldrb	w11, [x10]
    30a8:	5100c16c 	sub	w12, w11, #0x30
    30ac:	7100259f 	cmp	w12, #0x9
    30b0:	54000368 	b.hi	311c <_ZNSt3__18__format8__detail14__parse_manualB8nn190104ITkNS_19contiguous_iteratorEPKcNS_26basic_format_parse_contextIcEEEENS0_21__parse_number_resultIT_EES8_S8_RT0_+0xd8>  // b.pmore
    30b4:	5280014a 	mov	w10, #0xa                   	// #10
    30b8:	9baa2d29 	umaddl	x9, w9, w10, x11
    30bc:	d100c129 	sub	x9, x9, #0x30
    30c0:	d35ffd2a 	lsr	x10, x9, #31
    30c4:	b500010a 	cbnz	x10, 30e4 <_ZNSt3__18__format8__detail14__parse_manualB8nn190104ITkNS_19contiguous_iteratorEPKcNS_26basic_format_parse_contextIcEEEENS0_21__parse_number_resultIT_EES8_S8_RT0_+0xa0>
    30c8:	91000900 	add	x0, x8, #0x2
    30cc:	eb01001f 	cmp	x0, x1
    30d0:	54000180 	b.eq	3100 <_ZNSt3__18__format8__detail14__parse_manualB8nn190104ITkNS_19contiguous_iteratorEPKcNS_26basic_format_parse_contextIcEEEENS0_21__parse_number_resultIT_EES8_S8_RT0_+0xbc>  // b.none
    30d4:	39400008 	ldrb	w8, [x0]
    30d8:	5100c108 	sub	w8, w8, #0x30
    30dc:	7100251f 	cmp	w8, #0x9
    30e0:	54000108 	b.hi	3100 <_ZNSt3__18__format8__detail14__parse_manualB8nn190104ITkNS_19contiguous_iteratorEPKcNS_26basic_format_parse_contextIcEEEENS0_21__parse_number_resultIT_EES8_S8_RT0_+0xbc>  // b.pmore
    30e4:	d0000040 	adrp	x0, d000 <void* std::__1::__thread_proxy[abi:nn190104]<std::__1::tuple<std::__1::unique_ptr<std::__1::__thread_struct, std::__1::default_delete<std::__1::__thread_struct> >, relaxed_relaxed_write> >(void*)+0x40>
    30e8:	913e8000 	add	x0, x0, #0xfa0
    30ec:	97fffed9 	bl	2c50 <std::__1::__throw_format_error[abi:nn190104](char const*)>
    30f0:	aa0003ea 	mov	x10, x0
    30f4:	eb01015f 	cmp	x10, x1
    30f8:	54fffd61 	b.ne	30a4 <_ZNSt3__18__format8__detail14__parse_manualB8nn190104ITkNS_19contiguous_iteratorEPKcNS_26basic_format_parse_contextIcEEEENS0_21__parse_number_resultIT_EES8_S8_RT0_+0x60>  // b.any
    30fc:	aa0103e0 	mov	x0, x1
    3100:	b9401048 	ldr	w8, [x2, #16]
    3104:	34000128 	cbz	w8, 3128 <_ZNSt3__18__format8__detail14__parse_manualB8nn190104ITkNS_19contiguous_iteratorEPKcNS_26basic_format_parse_contextIcEEEENS0_21__parse_number_resultIT_EES8_S8_RT0_+0xe4>
    3108:	7100091f 	cmp	w8, #0x2
    310c:	54000121 	b.ne	3130 <_ZNSt3__18__format8__detail14__parse_manualB8nn190104ITkNS_19contiguous_iteratorEPKcNS_26basic_format_parse_contextIcEEEENS0_21__parse_number_resultIT_EES8_S8_RT0_+0xec>  // b.any
    3110:	d0000040 	adrp	x0, d000 <void* std::__1::__thread_proxy[abi:nn190104]<std::__1::tuple<std::__1::unique_ptr<std::__1::__thread_struct, std::__1::default_delete<std::__1::__thread_struct> >, relaxed_relaxed_write> >(void*)+0x40>
    3114:	913c5800 	add	x0, x0, #0xf16
    3118:	97fffece 	bl	2c50 <std::__1::__throw_format_error[abi:nn190104](char const*)>
    311c:	aa0a03e0 	mov	x0, x10
    3120:	b9401048 	ldr	w8, [x2, #16]
    3124:	35ffff28 	cbnz	w8, 3108 <_ZNSt3__18__format8__detail14__parse_manualB8nn190104ITkNS_19contiguous_iteratorEPKcNS_26basic_format_parse_contextIcEEEENS0_21__parse_number_resultIT_EES8_S8_RT0_+0xc4>
    3128:	52800028 	mov	w8, #0x1                   	// #1
    312c:	b9001048 	str	w8, [x2, #16]
    3130:	2a0903e1 	mov	w1, w9
    3134:	a8c17bfd 	ldp	x29, x30, [sp], #16
    3138:	d65f03c0 	ret

000000000000313c <_ZNSt3__16invokeB8nn190104IZNS_8__format26__handle_replacement_fieldB8nn190104ITkNS_19contiguous_iteratorEPKcNS_26basic_format_parse_contextIcEENS_20basic_format_contextINS_20back_insert_iteratorINS1_15__output_bufferIcEEEEcEEEET_SD_SD_RT0_RT1_EUlSD_E_JRfEEENS_13invoke_resultISD_JDpT0_EE4typeEOSD_DpOSL_>:
    313c:	d10103ff 	sub	sp, sp, #0x40
    3140:	fd000be8 	str	d8, [sp, #16]
    3144:	a9027bfd 	stp	x29, x30, [sp, #32]
    3148:	a9034ff4 	stp	x20, x19, [sp, #48]
    314c:	910083fd 	add	x29, sp, #0x20
    3150:	52800408 	mov	w8, #0x20                  	// #32
    3154:	f90003ff 	str	xzr, [sp]
    3158:	bd400028 	ldr	s8, [x1]
    315c:	390033e8 	strb	w8, [sp, #12]
    3160:	f9400808 	ldr	x8, [x0, #16]
    3164:	aa0003f3 	mov	x19, x0
    3168:	7800d3ff 	sturh	wzr, [sp, #13]
    316c:	12800009 	mov	w9, #0xffffffff            	// #-1
    3170:	39003fff 	strb	wzr, [sp, #15]
    3174:	39400108 	ldrb	w8, [x8]
    3178:	b9000be9 	str	w9, [sp, #8]
    317c:	7100051f 	cmp	w8, #0x1
    3180:	54000341 	b.ne	31e8 <_ZNSt3__16invokeB8nn190104IZNS_8__format26__handle_replacement_fieldB8nn190104ITkNS_19contiguous_iteratorEPKcNS_26basic_format_parse_contextIcEENS_20basic_format_contextINS_20back_insert_iteratorINS1_15__output_bufferIcEEEEcEEEET_SD_SD_RT0_RT1_EUlSD_E_JRfEEENS_13invoke_resultISD_JDpT0_EE4typeEOSD_DpOSL_+0xac>  // b.any
    3184:	f9400274 	ldr	x20, [x19]
    3188:	910003e0 	mov	x0, sp
    318c:	528027e2 	mov	w2, #0x13f                 	// #319
    3190:	aa1403e1 	mov	x1, x20
    3194:	9400015b 	bl	3700 <std::__1::basic_format_parse_context<char>::iterator std::__1::__format_spec::__parser<char>::__parse[abi:nn190104]<std::__1::basic_format_parse_context<char> >(std::__1::basic_format_parse_context<char>&, std::__1::__format_spec::__fields[abi:nn190104])>
    3198:	394007e8 	ldrb	w8, [sp, #1]
    319c:	51003509 	sub	w9, w8, #0xd
    31a0:	7100193f 	cmp	w9, #0x6
    31a4:	54000122 	b.cs	31c8 <_ZNSt3__16invokeB8nn190104IZNS_8__format26__handle_replacement_fieldB8nn190104ITkNS_19contiguous_iteratorEPKcNS_26basic_format_parse_contextIcEENS_20basic_format_contextINS_20back_insert_iteratorINS1_15__output_bufferIcEEEEcEEEET_SD_SD_RT0_RT1_EUlSD_E_JRfEEENS_13invoke_resultISD_JDpT0_EE4typeEOSD_DpOSL_+0x8c>  // b.hs, b.nlast
    31a8:	79c007e8 	ldrsh	w8, [sp, #2]
    31ac:	37f801c8 	tbnz	w8, #31, 31e4 <_ZNSt3__16invokeB8nn190104IZNS_8__format26__handle_replacement_fieldB8nn190104ITkNS_19contiguous_iteratorEPKcNS_26basic_format_parse_contextIcEENS_20basic_format_contextINS_20back_insert_iteratorINS1_15__output_bufferIcEEEEcEEEET_SD_SD_RT0_RT1_EUlSD_E_JRfEEENS_13invoke_resultISD_JDpT0_EE4typeEOSD_DpOSL_+0xa8>
    31b0:	b9400be8 	ldr	w8, [sp, #8]
    31b4:	3100051f 	cmn	w8, #0x1
    31b8:	54000161 	b.ne	31e4 <_ZNSt3__16invokeB8nn190104IZNS_8__format26__handle_replacement_fieldB8nn190104ITkNS_19contiguous_iteratorEPKcNS_26basic_format_parse_contextIcEENS_20basic_format_contextINS_20back_insert_iteratorINS1_15__output_bufferIcEEEEcEEEET_SD_SD_RT0_RT1_EUlSD_E_JRfEEENS_13invoke_resultISD_JDpT0_EE4typeEOSD_DpOSL_+0xa8>  // b.any
    31bc:	528000c8 	mov	w8, #0x6                   	// #6
    31c0:	b9000be8 	str	w8, [sp, #8]
    31c4:	14000008 	b	31e4 <_ZNSt3__16invokeB8nn190104IZNS_8__format26__handle_replacement_fieldB8nn190104ITkNS_19contiguous_iteratorEPKcNS_26basic_format_parse_contextIcEENS_20basic_format_contextINS_20back_insert_iteratorINS1_15__output_bufferIcEEEEcEEEET_SD_SD_RT0_RT1_EUlSD_E_JRfEEENS_13invoke_resultISD_JDpT0_EE4typeEOSD_DpOSL_+0xa8>
    31c8:	7100311f 	cmp	w8, #0xc
    31cc:	54000308 	b.hi	322c <_ZNSt3__16invokeB8nn190104IZNS_8__format26__handle_replacement_fieldB8nn190104ITkNS_19contiguous_iteratorEPKcNS_26basic_format_parse_contextIcEENS_20basic_format_contextINS_20back_insert_iteratorINS1_15__output_bufferIcEEEEcEEEET_SD_SD_RT0_RT1_EUlSD_E_JRfEEENS_13invoke_resultISD_JDpT0_EE4typeEOSD_DpOSL_+0xf0>  // b.pmore
    31d0:	52800029 	mov	w9, #0x1                   	// #1
    31d4:	1ac82128 	lsl	w8, w9, w8
    31d8:	52830029 	mov	w9, #0x1801                	// #6145
    31dc:	6a09011f 	tst	w8, w9
    31e0:	54000260 	b.eq	322c <_ZNSt3__16invokeB8nn190104IZNS_8__format26__handle_replacement_fieldB8nn190104ITkNS_19contiguous_iteratorEPKcNS_26basic_format_parse_contextIcEENS_20basic_format_contextINS_20back_insert_iteratorINS1_15__output_bufferIcEEEEcEEEET_SD_SD_RT0_RT1_EUlSD_E_JRfEEENS_13invoke_resultISD_JDpT0_EE4typeEOSD_DpOSL_+0xf0>  // b.none
    31e4:	f9000280 	str	x0, [x20]
    31e8:	f9400673 	ldr	x19, [x19, #8]
    31ec:	910003e0 	mov	x0, sp
    31f0:	aa1303e1 	mov	x1, x19
    31f4:	940004db 	bl	4560 <std::__1::__format_spec::__parsed_specifications<char> std::__1::__format_spec::__parser<char>::__get_parsed_std_specifications[abi:nn190104]<std::__1::basic_format_context<std::__1::back_insert_iterator<std::__1::__format::__output_buffer<char> >, char> >(std::__1::basic_format_context<std::__1::back_insert_iterator<std::__1::__format::__output_buffer<char> >, char>&) const>
    31f8:	1e204100 	fmov	s0, s8
    31fc:	aa0003e2 	mov	x2, x0
    3200:	aa0103e3 	mov	x3, x1
    3204:	aa1303e0 	mov	x0, x19
    3208:	aa0203e1 	mov	x1, x2
    320c:	aa0303e2 	mov	x2, x3
    3210:	940014dd 	bl	8584 <_ZNSt3__111__formatter23__format_floating_pointB8nn190104ITkNS_14floating_pointEfcNS_20basic_format_contextINS_20back_insert_iteratorINS_8__format15__output_bufferIcEEEEcEEEENT1_8iteratorET_RS9_NS_13__format_spec23__parsed_specificationsIT0_EE>
    3214:	f9000260 	str	x0, [x19]
    3218:	a9434ff4 	ldp	x20, x19, [sp, #48]
    321c:	fd400be8 	ldr	d8, [sp, #16]
    3220:	a9427bfd 	ldp	x29, x30, [sp, #32]
    3224:	910103ff 	add	sp, sp, #0x40
    3228:	d65f03c0 	ret
    322c:	f0000040 	adrp	x0, e000 <_IO_stdin_used+0x4b0>
    3230:	910f5000 	add	x0, x0, #0x3d4
    3234:	94000391 	bl	4078 <std::__1::__format_spec::__throw_invalid_type_format_error[abi:nn190104](char const*)>

0000000000003238 <_ZNSt3__16invokeB8nn190104IZNS_8__format26__handle_replacement_fieldB8nn190104ITkNS_19contiguous_iteratorEPKcNS_26basic_format_parse_contextIcEENS_20basic_format_contextINS_20back_insert_iteratorINS1_15__output_bufferIcEEEEcEEEET_SD_SD_RT0_RT1_EUlSD_E_JRdEEENS_13invoke_resultISD_JDpT0_EE4typeEOSD_DpOSL_>:
    3238:	d10103ff 	sub	sp, sp, #0x40
    323c:	fd000be8 	str	d8, [sp, #16]
    3240:	a9027bfd 	stp	x29, x30, [sp, #32]
    3244:	a9034ff4 	stp	x20, x19, [sp, #48]
    3248:	910083fd 	add	x29, sp, #0x20
    324c:	52800408 	mov	w8, #0x20                  	// #32
    3250:	f90003ff 	str	xzr, [sp]
    3254:	fd400028 	ldr	d8, [x1]
    3258:	390033e8 	strb	w8, [sp, #12]
    325c:	f9400808 	ldr	x8, [x0, #16]
    3260:	aa0003f3 	mov	x19, x0
    3264:	7800d3ff 	sturh	wzr, [sp, #13]
    3268:	12800009 	mov	w9, #0xffffffff            	// #-1
    326c:	39003fff 	strb	wzr, [sp, #15]
    3270:	39400108 	ldrb	w8, [x8]
    3274:	b9000be9 	str	w9, [sp, #8]
    3278:	7100051f 	cmp	w8, #0x1
    327c:	54000341 	b.ne	32e4 <_ZNSt3__16invokeB8nn190104IZNS_8__format26__handle_replacement_fieldB8nn190104ITkNS_19contiguous_iteratorEPKcNS_26basic_format_parse_contextIcEENS_20basic_format_contextINS_20back_insert_iteratorINS1_15__output_bufferIcEEEEcEEEET_SD_SD_RT0_RT1_EUlSD_E_JRdEEENS_13invoke_resultISD_JDpT0_EE4typeEOSD_DpOSL_+0xac>  // b.any
    3280:	f9400274 	ldr	x20, [x19]
    3284:	910003e0 	mov	x0, sp
    3288:	528027e2 	mov	w2, #0x13f                 	// #319
    328c:	aa1403e1 	mov	x1, x20
    3290:	9400011c 	bl	3700 <std::__1::basic_format_parse_context<char>::iterator std::__1::__format_spec::__parser<char>::__parse[abi:nn190104]<std::__1::basic_format_parse_context<char> >(std::__1::basic_format_parse_context<char>&, std::__1::__format_spec::__fields[abi:nn190104])>
    3294:	394007e8 	ldrb	w8, [sp, #1]
    3298:	51003509 	sub	w9, w8, #0xd
    329c:	7100193f 	cmp	w9, #0x6
    32a0:	54000122 	b.cs	32c4 <_ZNSt3__16invokeB8nn190104IZNS_8__format26__handle_replacement_fieldB8nn190104ITkNS_19contiguous_iteratorEPKcNS_26basic_format_parse_contextIcEENS_20basic_format_contextINS_20back_insert_iteratorINS1_15__output_bufferIcEEEEcEEEET_SD_SD_RT0_RT1_EUlSD_E_JRdEEENS_13invoke_resultISD_JDpT0_EE4typeEOSD_DpOSL_+0x8c>  // b.hs, b.nlast
    32a4:	79c007e8 	ldrsh	w8, [sp, #2]
    32a8:	37f801c8 	tbnz	w8, #31, 32e0 <_ZNSt3__16invokeB8nn190104IZNS_8__format26__handle_replacement_fieldB8nn190104ITkNS_19contiguous_iteratorEPKcNS_26basic_format_parse_contextIcEENS_20basic_format_contextINS_20back_insert_iteratorINS1_15__output_bufferIcEEEEcEEEET_SD_SD_RT0_RT1_EUlSD_E_JRdEEENS_13invoke_resultISD_JDpT0_EE4typeEOSD_DpOSL_+0xa8>
    32ac:	b9400be8 	ldr	w8, [sp, #8]
    32b0:	3100051f 	cmn	w8, #0x1
    32b4:	54000161 	b.ne	32e0 <_ZNSt3__16invokeB8nn190104IZNS_8__format26__handle_replacement_fieldB8nn190104ITkNS_19contiguous_iteratorEPKcNS_26basic_format_parse_contextIcEENS_20basic_format_contextINS_20back_insert_iteratorINS1_15__output_bufferIcEEEEcEEEET_SD_SD_RT0_RT1_EUlSD_E_JRdEEENS_13invoke_resultISD_JDpT0_EE4typeEOSD_DpOSL_+0xa8>  // b.any
    32b8:	528000c8 	mov	w8, #0x6                   	// #6
    32bc:	b9000be8 	str	w8, [sp, #8]
    32c0:	14000008 	b	32e0 <_ZNSt3__16invokeB8nn190104IZNS_8__format26__handle_replacement_fieldB8nn190104ITkNS_19contiguous_iteratorEPKcNS_26basic_format_parse_contextIcEENS_20basic_format_contextINS_20back_insert_iteratorINS1_15__output_bufferIcEEEEcEEEET_SD_SD_RT0_RT1_EUlSD_E_JRdEEENS_13invoke_resultISD_JDpT0_EE4typeEOSD_DpOSL_+0xa8>
    32c4:	7100311f 	cmp	w8, #0xc
    32c8:	54000308 	b.hi	3328 <_ZNSt3__16invokeB8nn190104IZNS_8__format26__handle_replacement_fieldB8nn190104ITkNS_19contiguous_iteratorEPKcNS_26basic_format_parse_contextIcEENS_20basic_format_contextINS_20back_insert_iteratorINS1_15__output_bufferIcEEEEcEEEET_SD_SD_RT0_RT1_EUlSD_E_JRdEEENS_13invoke_resultISD_JDpT0_EE4typeEOSD_DpOSL_+0xf0>  // b.pmore
    32cc:	52800029 	mov	w9, #0x1                   	// #1
    32d0:	1ac82128 	lsl	w8, w9, w8
    32d4:	52830029 	mov	w9, #0x1801                	// #6145
    32d8:	6a09011f 	tst	w8, w9
    32dc:	54000260 	b.eq	3328 <_ZNSt3__16invokeB8nn190104IZNS_8__format26__handle_replacement_fieldB8nn190104ITkNS_19contiguous_iteratorEPKcNS_26basic_format_parse_contextIcEENS_20basic_format_contextINS_20back_insert_iteratorINS1_15__output_bufferIcEEEEcEEEET_SD_SD_RT0_RT1_EUlSD_E_JRdEEENS_13invoke_resultISD_JDpT0_EE4typeEOSD_DpOSL_+0xf0>  // b.none
    32e0:	f9000280 	str	x0, [x20]
    32e4:	f9400673 	ldr	x19, [x19, #8]
    32e8:	910003e0 	mov	x0, sp
    32ec:	aa1303e1 	mov	x1, x19
    32f0:	9400049c 	bl	4560 <std::__1::__format_spec::__parsed_specifications<char> std::__1::__format_spec::__parser<char>::__get_parsed_std_specifications[abi:nn190104]<std::__1::basic_format_context<std::__1::back_insert_iterator<std::__1::__format::__output_buffer<char> >, char> >(std::__1::basic_format_context<std::__1::back_insert_iterator<std::__1::__format::__output_buffer<char> >, char>&) const>
    32f4:	1e604100 	fmov	d0, d8
    32f8:	aa0003e2 	mov	x2, x0
    32fc:	aa0103e3 	mov	x3, x1
    3300:	aa1303e0 	mov	x0, x19
    3304:	aa0203e1 	mov	x1, x2
    3308:	aa0303e2 	mov	x2, x3
    330c:	940018ef 	bl	96c8 <_ZNSt3__111__formatter23__format_floating_pointB8nn190104ITkNS_14floating_pointEdcNS_20basic_format_contextINS_20back_insert_iteratorINS_8__format15__output_bufferIcEEEEcEEEENT1_8iteratorET_RS9_NS_13__format_spec23__parsed_specificationsIT0_EE>
    3310:	f9000260 	str	x0, [x19]
    3314:	a9434ff4 	ldp	x20, x19, [sp, #48]
    3318:	fd400be8 	ldr	d8, [sp, #16]
    331c:	a9427bfd 	ldp	x29, x30, [sp, #32]
    3320:	910103ff 	add	sp, sp, #0x40
    3324:	d65f03c0 	ret
    3328:	f0000040 	adrp	x0, e000 <_IO_stdin_used+0x4b0>
    332c:	910f5000 	add	x0, x0, #0x3d4
    3330:	94000352 	bl	4078 <std::__1::__format_spec::__throw_invalid_type_format_error[abi:nn190104](char const*)>

0000000000003334 <_ZNSt3__16invokeB8nn190104IZNS_8__format26__handle_replacement_fieldB8nn190104ITkNS_19contiguous_iteratorEPKcNS_26basic_format_parse_contextIcEENS_20basic_format_contextINS_20back_insert_iteratorINS1_15__output_bufferIcEEEEcEEEET_SD_SD_RT0_RT1_EUlSD_E_JReEEENS_13invoke_resultISD_JDpT0_EE4typeEOSD_DpOSL_>:
    3334:	d10103ff 	sub	sp, sp, #0x40
    3338:	a9027bfd 	stp	x29, x30, [sp, #32]
    333c:	a9034ff4 	stp	x20, x19, [sp, #48]
    3340:	910083fd 	add	x29, sp, #0x20
    3344:	52800408 	mov	w8, #0x20                  	// #32
    3348:	f9000bff 	str	xzr, [sp, #16]
    334c:	3dc00020 	ldr	q0, [x1]
    3350:	390073e8 	strb	w8, [sp, #28]
    3354:	f9400808 	ldr	x8, [x0, #16]
    3358:	aa0003f3 	mov	x19, x0
    335c:	7801d3ff 	sturh	wzr, [sp, #29]
    3360:	12800009 	mov	w9, #0xffffffff            	// #-1
    3364:	39007fff 	strb	wzr, [sp, #31]
    3368:	39400108 	ldrb	w8, [x8]
    336c:	3d8003e0 	str	q0, [sp]
    3370:	b9001be9 	str	w9, [sp, #24]
    3374:	7100051f 	cmp	w8, #0x1
    3378:	54000341 	b.ne	33e0 <_ZNSt3__16invokeB8nn190104IZNS_8__format26__handle_replacement_fieldB8nn190104ITkNS_19contiguous_iteratorEPKcNS_26basic_format_parse_contextIcEENS_20basic_format_contextINS_20back_insert_iteratorINS1_15__output_bufferIcEEEEcEEEET_SD_SD_RT0_RT1_EUlSD_E_JReEEENS_13invoke_resultISD_JDpT0_EE4typeEOSD_DpOSL_+0xac>  // b.any
    337c:	f9400274 	ldr	x20, [x19]
    3380:	910043e0 	add	x0, sp, #0x10
    3384:	528027e2 	mov	w2, #0x13f                 	// #319
    3388:	aa1403e1 	mov	x1, x20
    338c:	940000dd 	bl	3700 <std::__1::basic_format_parse_context<char>::iterator std::__1::__format_spec::__parser<char>::__parse[abi:nn190104]<std::__1::basic_format_parse_context<char> >(std::__1::basic_format_parse_context<char>&, std::__1::__format_spec::__fields[abi:nn190104])>
    3390:	394047e8 	ldrb	w8, [sp, #17]
    3394:	51003509 	sub	w9, w8, #0xd
    3398:	7100193f 	cmp	w9, #0x6
    339c:	54000122 	b.cs	33c0 <_ZNSt3__16invokeB8nn190104IZNS_8__format26__handle_replacement_fieldB8nn190104ITkNS_19contiguous_iteratorEPKcNS_26basic_format_parse_contextIcEENS_20basic_format_contextINS_20back_insert_iteratorINS1_15__output_bufferIcEEEEcEEEET_SD_SD_RT0_RT1_EUlSD_E_JReEEENS_13invoke_resultISD_JDpT0_EE4typeEOSD_DpOSL_+0x8c>  // b.hs, b.nlast
    33a0:	79c027e8 	ldrsh	w8, [sp, #18]
    33a4:	37f801c8 	tbnz	w8, #31, 33dc <_ZNSt3__16invokeB8nn190104IZNS_8__format26__handle_replacement_fieldB8nn190104ITkNS_19contiguous_iteratorEPKcNS_26basic_format_parse_contextIcEENS_20basic_format_contextINS_20back_insert_iteratorINS1_15__output_bufferIcEEEEcEEEET_SD_SD_RT0_RT1_EUlSD_E_JReEEENS_13invoke_resultISD_JDpT0_EE4typeEOSD_DpOSL_+0xa8>
    33a8:	b9401be8 	ldr	w8, [sp, #24]
    33ac:	3100051f 	cmn	w8, #0x1
    33b0:	54000161 	b.ne	33dc <_ZNSt3__16invokeB8nn190104IZNS_8__format26__handle_replacement_fieldB8nn190104ITkNS_19contiguous_iteratorEPKcNS_26basic_format_parse_contextIcEENS_20basic_format_contextINS_20back_insert_iteratorINS1_15__output_bufferIcEEEEcEEEET_SD_SD_RT0_RT1_EUlSD_E_JReEEENS_13invoke_resultISD_JDpT0_EE4typeEOSD_DpOSL_+0xa8>  // b.any
    33b4:	528000c8 	mov	w8, #0x6                   	// #6
    33b8:	b9001be8 	str	w8, [sp, #24]
    33bc:	14000008 	b	33dc <_ZNSt3__16invokeB8nn190104IZNS_8__format26__handle_replacement_fieldB8nn190104ITkNS_19contiguous_iteratorEPKcNS_26basic_format_parse_contextIcEENS_20basic_format_contextINS_20back_insert_iteratorINS1_15__output_bufferIcEEEEcEEEET_SD_SD_RT0_RT1_EUlSD_E_JReEEENS_13invoke_resultISD_JDpT0_EE4typeEOSD_DpOSL_+0xa8>
    33c0:	7100311f 	cmp	w8, #0xc
    33c4:	540002e8 	b.hi	3420 <_ZNSt3__16invokeB8nn190104IZNS_8__format26__handle_replacement_fieldB8nn190104ITkNS_19contiguous_iteratorEPKcNS_26basic_format_parse_contextIcEENS_20basic_format_contextINS_20back_insert_iteratorINS1_15__output_bufferIcEEEEcEEEET_SD_SD_RT0_RT1_EUlSD_E_JReEEENS_13invoke_resultISD_JDpT0_EE4typeEOSD_DpOSL_+0xec>  // b.pmore
    33c8:	52800029 	mov	w9, #0x1                   	// #1
    33cc:	1ac82128 	lsl	w8, w9, w8
    33d0:	52830029 	mov	w9, #0x1801                	// #6145
    33d4:	6a09011f 	tst	w8, w9
    33d8:	54000240 	b.eq	3420 <_ZNSt3__16invokeB8nn190104IZNS_8__format26__handle_replacement_fieldB8nn190104ITkNS_19contiguous_iteratorEPKcNS_26basic_format_parse_contextIcEENS_20basic_format_contextINS_20back_insert_iteratorINS1_15__output_bufferIcEEEEcEEEET_SD_SD_RT0_RT1_EUlSD_E_JReEEENS_13invoke_resultISD_JDpT0_EE4typeEOSD_DpOSL_+0xec>  // b.none
    33dc:	f9000280 	str	x0, [x20]
    33e0:	f9400673 	ldr	x19, [x19, #8]
    33e4:	910043e0 	add	x0, sp, #0x10
    33e8:	aa1303e1 	mov	x1, x19
    33ec:	9400045d 	bl	4560 <std::__1::__format_spec::__parsed_specifications<char> std::__1::__format_spec::__parser<char>::__get_parsed_std_specifications[abi:nn190104]<std::__1::basic_format_context<std::__1::back_insert_iterator<std::__1::__format::__output_buffer<char> >, char> >(std::__1::basic_format_context<std::__1::back_insert_iterator<std::__1::__format::__output_buffer<char> >, char>&) const>
    33f0:	aa0003e2 	mov	x2, x0
    33f4:	aa0103e3 	mov	x3, x1
    33f8:	3dc003e0 	ldr	q0, [sp]
    33fc:	aa1303e0 	mov	x0, x19
    3400:	aa0203e1 	mov	x1, x2
    3404:	aa0303e2 	mov	x2, x3
    3408:	94001c5a 	bl	a570 <_ZNSt3__111__formatter23__format_floating_pointB8nn190104ITkNS_14floating_pointEecNS_20basic_format_contextINS_20back_insert_iteratorINS_8__format15__output_bufferIcEEEEcEEEENT1_8iteratorET_RS9_NS_13__format_spec23__parsed_specificationsIT0_EE>
    340c:	f9000260 	str	x0, [x19]
    3410:	a9434ff4 	ldp	x20, x19, [sp, #48]
    3414:	a9427bfd 	ldp	x29, x30, [sp, #32]
    3418:	910103ff 	add	sp, sp, #0x40
    341c:	d65f03c0 	ret
    3420:	f0000040 	adrp	x0, e000 <_IO_stdin_used+0x4b0>
    3424:	910f5000 	add	x0, x0, #0x3d4
    3428:	94000314 	bl	4078 <std::__1::__format_spec::__throw_invalid_type_format_error[abi:nn190104](char const*)>

000000000000342c <_ZNSt3__16invokeB8nn190104IZNS_8__format26__handle_replacement_fieldB8nn190104ITkNS_19contiguous_iteratorEPKcNS_26basic_format_parse_contextIcEENS_20basic_format_contextINS_20back_insert_iteratorINS1_15__output_bufferIcEEEEcEEEET_SD_SD_RT0_RT1_EUlSD_E_JRNS_17basic_string_viewIcNS_11char_traitsIcEEEEEEENS_13invoke_resultISD_JDpT0_EE4typeEOSD_DpOSP_>:
    342c:	d10103ff 	sub	sp, sp, #0x40
    3430:	a9017bfd 	stp	x29, x30, [sp, #16]
    3434:	a90257f6 	stp	x22, x21, [sp, #32]
    3438:	a9034ff4 	stp	x20, x19, [sp, #48]
    343c:	910043fd 	add	x29, sp, #0x10
    3440:	52800028 	mov	w8, #0x1                   	// #1
    3444:	52800409 	mov	w9, #0x20                  	// #32
    3448:	7800d3ff 	sturh	wzr, [sp, #13]
    344c:	b90003e8 	str	w8, [sp]
    3450:	f9400808 	ldr	x8, [x0, #16]
    3454:	2f07e600 	movi	d0, #0xffffffff00000000
    3458:	390033e9 	strb	w9, [sp, #12]
    345c:	a9405434 	ldp	x20, x21, [x1]
    3460:	39003fff 	strb	wzr, [sp, #15]
    3464:	aa0003f3 	mov	x19, x0
    3468:	39400108 	ldrb	w8, [x8]
    346c:	fc0043e0 	stur	d0, [sp, #4]
    3470:	7100051f 	cmp	w8, #0x1
    3474:	54000181 	b.ne	34a4 <_ZNSt3__16invokeB8nn190104IZNS_8__format26__handle_replacement_fieldB8nn190104ITkNS_19contiguous_iteratorEPKcNS_26basic_format_parse_contextIcEENS_20basic_format_contextINS_20back_insert_iteratorINS1_15__output_bufferIcEEEEcEEEET_SD_SD_RT0_RT1_EUlSD_E_JRNS_17basic_string_viewIcNS_11char_traitsIcEEEEEEENS_13invoke_resultISD_JDpT0_EE4typeEOSD_DpOSP_+0x78>  // b.any
    3478:	f9400276 	ldr	x22, [x19]
    347c:	910003e0 	mov	x0, sp
    3480:	52802502 	mov	w2, #0x128                 	// #296
    3484:	aa1603e1 	mov	x1, x22
    3488:	9400009e 	bl	3700 <std::__1::basic_format_parse_context<char>::iterator std::__1::__format_spec::__parser<char>::__parse[abi:nn190104]<std::__1::basic_format_parse_context<char> >(std::__1::basic_format_parse_context<char>&, std::__1::__format_spec::__fields[abi:nn190104])>
    348c:	394007e8 	ldrb	w8, [sp, #1]
    3490:	7100091f 	cmp	w8, #0x2
    3494:	54000063 	b.cc	34a0 <_ZNSt3__16invokeB8nn190104IZNS_8__format26__handle_replacement_fieldB8nn190104ITkNS_19contiguous_iteratorEPKcNS_26basic_format_parse_contextIcEENS_20basic_format_contextINS_20back_insert_iteratorINS1_15__output_bufferIcEEEEcEEEET_SD_SD_RT0_RT1_EUlSD_E_JRNS_17basic_string_viewIcNS_11char_traitsIcEEEEEEENS_13invoke_resultISD_JDpT0_EE4typeEOSD_DpOSP_+0x74>  // b.lo, b.ul, b.last
    3498:	71004d1f 	cmp	w8, #0x13
    349c:	54000261 	b.ne	34e8 <_ZNSt3__16invokeB8nn190104IZNS_8__format26__handle_replacement_fieldB8nn190104ITkNS_19contiguous_iteratorEPKcNS_26basic_format_parse_contextIcEENS_20basic_format_contextINS_20back_insert_iteratorINS1_15__output_bufferIcEEEEcEEEET_SD_SD_RT0_RT1_EUlSD_E_JRNS_17basic_string_viewIcNS_11char_traitsIcEEEEEEENS_13invoke_resultISD_JDpT0_EE4typeEOSD_DpOSP_+0xbc>  // b.any
    34a0:	f90002c0 	str	x0, [x22]
    34a4:	f9400673 	ldr	x19, [x19, #8]
    34a8:	910003e0 	mov	x0, sp
    34ac:	f9400276 	ldr	x22, [x19]
    34b0:	aa1303e1 	mov	x1, x19
    34b4:	9400042b 	bl	4560 <std::__1::__format_spec::__parsed_specifications<char> std::__1::__format_spec::__parser<char>::__get_parsed_std_specifications[abi:nn190104]<std::__1::basic_format_context<std::__1::back_insert_iterator<std::__1::__format::__output_buffer<char> >, char> >(std::__1::basic_format_context<std::__1::back_insert_iterator<std::__1::__format::__output_buffer<char> >, char>&) const>
    34b8:	aa0003e3 	mov	x3, x0
    34bc:	aa0103e4 	mov	x4, x1
    34c0:	aa1403e0 	mov	x0, x20
    34c4:	aa1503e1 	mov	x1, x21
    34c8:	aa1603e2 	mov	x2, x22
    34cc:	94001ec5 	bl	afe0 <_ZNSt3__111__formatter14__write_stringB8nn190104IcTkNS_15output_iteratorIRKT_EENS_20back_insert_iteratorINS_8__format15__output_bufferIcEEEEEEDtfp0_ENS_17basic_string_viewIS3_NS_11char_traitsIS3_EEEET0_NS_13__format_spec23__parsed_specificationsIS3_EE>
    34d0:	f9000260 	str	x0, [x19]
    34d4:	a9434ff4 	ldp	x20, x19, [sp, #48]
    34d8:	a94257f6 	ldp	x22, x21, [sp, #32]
    34dc:	a9417bfd 	ldp	x29, x30, [sp, #16]
    34e0:	910103ff 	add	sp, sp, #0x40
    34e4:	d65f03c0 	ret
    34e8:	f0000040 	adrp	x0, e000 <_IO_stdin_used+0x4b0>
    34ec:	910fc800 	add	x0, x0, #0x3f2
    34f0:	97fffdd8 	bl	2c50 <std::__1::__throw_format_error[abi:nn190104](char const*)>

00000000000034f4 <_ZNSt3__16invokeB8nn190104IZNS_8__format26__handle_replacement_fieldB8nn190104ITkNS_19contiguous_iteratorEPKcNS_26basic_format_parse_contextIcEENS_20basic_format_contextINS_20back_insert_iteratorINS1_15__output_bufferIcEEEEcEEEET_SD_SD_RT0_RT1_EUlSD_E_JRPKvEEENS_13invoke_resultISD_JDpT0_EE4typeEOSD_DpOSN_>:
    34f4:	d10103ff 	sub	sp, sp, #0x40
    34f8:	a9017bfd 	stp	x29, x30, [sp, #16]
    34fc:	f90013f5 	str	x21, [sp, #32]
    3500:	a9034ff4 	stp	x20, x19, [sp, #48]
    3504:	910043fd 	add	x29, sp, #0x10
    3508:	52800408 	mov	w8, #0x20                  	// #32
    350c:	f90003ff 	str	xzr, [sp]
    3510:	f9400033 	ldr	x19, [x1]
    3514:	390033e8 	strb	w8, [sp, #12]
    3518:	f9400808 	ldr	x8, [x0, #16]
    351c:	aa0003f4 	mov	x20, x0
    3520:	7800d3ff 	sturh	wzr, [sp, #13]
    3524:	12800009 	mov	w9, #0xffffffff            	// #-1
    3528:	39003fff 	strb	wzr, [sp, #15]
    352c:	39400108 	ldrb	w8, [x8]
    3530:	b9000be9 	str	w9, [sp, #8]
    3534:	7100051f 	cmp	w8, #0x1
    3538:	54000181 	b.ne	3568 <_ZNSt3__16invokeB8nn190104IZNS_8__format26__handle_replacement_fieldB8nn190104ITkNS_19contiguous_iteratorEPKcNS_26basic_format_parse_contextIcEENS_20basic_format_contextINS_20back_insert_iteratorINS1_15__output_bufferIcEEEEcEEEET_SD_SD_RT0_RT1_EUlSD_E_JRPKvEEENS_13invoke_resultISD_JDpT0_EE4typeEOSD_DpOSN_+0x74>  // b.any
    353c:	f9400295 	ldr	x21, [x20]
    3540:	910003e0 	mov	x0, sp
    3544:	52802482 	mov	w2, #0x124                 	// #292
    3548:	aa1503e1 	mov	x1, x21
    354c:	9400006d 	bl	3700 <std::__1::basic_format_parse_context<char>::iterator std::__1::__format_spec::__parser<char>::__parse[abi:nn190104]<std::__1::basic_format_parse_context<char> >(std::__1::basic_format_parse_context<char>&, std::__1::__format_spec::__fields[abi:nn190104])>
    3550:	394007e8 	ldrb	w8, [sp, #1]
    3554:	51002109 	sub	w9, w8, #0x8
    3558:	7100093f 	cmp	w9, #0x2
    355c:	54000043 	b.cc	3564 <_ZNSt3__16invokeB8nn190104IZNS_8__format26__handle_replacement_fieldB8nn190104ITkNS_19contiguous_iteratorEPKcNS_26basic_format_parse_contextIcEENS_20basic_format_contextINS_20back_insert_iteratorINS1_15__output_bufferIcEEEEcEEEET_SD_SD_RT0_RT1_EUlSD_E_JRPKvEEENS_13invoke_resultISD_JDpT0_EE4typeEOSD_DpOSN_+0x70>  // b.lo, b.ul, b.last
    3560:	35000328 	cbnz	w8, 35c4 <_ZNSt3__16invokeB8nn190104IZNS_8__format26__handle_replacement_fieldB8nn190104ITkNS_19contiguous_iteratorEPKcNS_26basic_format_parse_contextIcEENS_20basic_format_contextINS_20back_insert_iteratorINS1_15__output_bufferIcEEEEcEEEET_SD_SD_RT0_RT1_EUlSD_E_JRPKvEEENS_13invoke_resultISD_JDpT0_EE4typeEOSD_DpOSN_+0xd0>
    3564:	f90002a0 	str	x0, [x21]
    3568:	f9400694 	ldr	x20, [x20, #8]
    356c:	910003e0 	mov	x0, sp
    3570:	aa1403e1 	mov	x1, x20
    3574:	940003fb 	bl	4560 <std::__1::__format_spec::__parsed_specifications<char> std::__1::__format_spec::__parser<char>::__get_parsed_std_specifications[abi:nn190104]<std::__1::basic_format_context<std::__1::back_insert_iterator<std::__1::__format::__output_buffer<char> >, char> >(std::__1::basic_format_context<std::__1::back_insert_iterator<std::__1::__format::__output_buffer<char> >, char>&) const>
    3578:	92781c09 	and	x9, x0, #0xff00
    357c:	5280c008 	mov	w8, #0x600                 	// #1536
    3580:	aa0103e3 	mov	x3, x1
    3584:	f124013f 	cmp	x9, #0x900
    3588:	5280e009 	mov	w9, #0x700                 	// #1792
    358c:	aa1403e1 	mov	x1, x20
    3590:	9a880128 	csel	x8, x9, x8, eq	// eq = none
    3594:	9270dc09 	and	x9, x0, #0xffffffffffff00ff
    3598:	aa1303e0 	mov	x0, x19
    359c:	aa080128 	orr	x8, x9, x8
    35a0:	2a1f03e4 	mov	w4, wzr
    35a4:	b27b0102 	orr	x2, x8, #0x20
    35a8:	94000c85 	bl	67bc <_ZNSt3__111__formatter16__format_integerB8nn190104ITkNS_17unsigned_integralEmcNS_20basic_format_contextINS_20back_insert_iteratorINS_8__format15__output_bufferIcEEEEcEEEENT1_8iteratorET_RS9_NS_13__format_spec23__parsed_specificationsIT0_EEb>
    35ac:	f9000280 	str	x0, [x20]
    35b0:	a9434ff4 	ldp	x20, x19, [sp, #48]
    35b4:	f94013f5 	ldr	x21, [sp, #32]
    35b8:	a9417bfd 	ldp	x29, x30, [sp, #16]
    35bc:	910103ff 	add	sp, sp, #0x40
    35c0:	d65f03c0 	ret
    35c4:	f0000040 	adrp	x0, e000 <_IO_stdin_used+0x4b0>
    35c8:	9110f400 	add	x0, x0, #0x43d
    35cc:	940002ab 	bl	4078 <std::__1::__format_spec::__throw_invalid_type_format_error[abi:nn190104](char const*)>

00000000000035d0 <_ZZNSt3__18__format26__handle_replacement_fieldB8nn190104ITkNS_19contiguous_iteratorEPKcNS_26basic_format_parse_contextIcEENS_20basic_format_contextINS_20back_insert_iteratorINS0_15__output_bufferIcEEEEcEEEET_SC_SC_RT0_RT1_ENKUlSC_E_clIbEEDaSC_>:
    35d0:	d10103ff 	sub	sp, sp, #0x40
    35d4:	a9017bfd 	stp	x29, x30, [sp, #16]
    35d8:	a90257f6 	stp	x22, x21, [sp, #32]
    35dc:	a9034ff4 	stp	x20, x19, [sp, #48]
    35e0:	910043fd 	add	x29, sp, #0x10
    35e4:	52800408 	mov	w8, #0x20                  	// #32
    35e8:	f90003ff 	str	xzr, [sp]
    35ec:	2a0103f3 	mov	w19, w1
    35f0:	390033e8 	strb	w8, [sp, #12]
    35f4:	f9400808 	ldr	x8, [x0, #16]
    35f8:	aa0003f4 	mov	x20, x0
    35fc:	7800d3ff 	sturh	wzr, [sp, #13]
    3600:	12800009 	mov	w9, #0xffffffff            	// #-1
    3604:	39003fff 	strb	wzr, [sp, #15]
    3608:	39400108 	ldrb	w8, [x8]
    360c:	b9000be9 	str	w9, [sp, #8]
    3610:	360002c8 	tbz	w8, #0, 3668 <_ZZNSt3__18__format26__handle_replacement_fieldB8nn190104ITkNS_19contiguous_iteratorEPKcNS_26basic_format_parse_contextIcEENS_20basic_format_contextINS_20back_insert_iteratorINS0_15__output_bufferIcEEEEcEEEET_SC_SC_RT0_RT1_ENKUlSC_E_clIbEEDaSC_+0x98>
    3614:	f9400295 	ldr	x21, [x20]
    3618:	910003e0 	mov	x0, sp
    361c:	528026e2 	mov	w2, #0x137                 	// #311
    3620:	aa1503e1 	mov	x1, x21
    3624:	94000037 	bl	3700 <std::__1::basic_format_parse_context<char>::iterator std::__1::__format_spec::__parser<char>::__parse[abi:nn190104]<std::__1::basic_format_parse_context<char> >(std::__1::basic_format_parse_context<char>&, std::__1::__format_spec::__fields[abi:nn190104])>
    3628:	394007e8 	ldrb	w8, [sp, #1]
    362c:	51000909 	sub	w9, w8, #0x2
    3630:	7100193f 	cmp	w9, #0x6
    3634:	54000382 	b.cs	36a4 <_ZZNSt3__18__format26__handle_replacement_fieldB8nn190104ITkNS_19contiguous_iteratorEPKcNS_26basic_format_parse_contextIcEENS_20basic_format_contextINS_20back_insert_iteratorINS0_15__output_bufferIcEEEEcEEEET_SC_SC_RT0_RT1_ENKUlSC_E_clIbEEDaSC_+0xd4>  // b.hs, b.nlast
    3638:	f9400694 	ldr	x20, [x20, #8]
    363c:	f90002a0 	str	x0, [x21]
    3640:	910003e0 	mov	x0, sp
    3644:	aa1403e1 	mov	x1, x20
    3648:	940003c6 	bl	4560 <std::__1::__format_spec::__parsed_specifications<char> std::__1::__format_spec::__parser<char>::__get_parsed_std_specifications[abi:nn190104]<std::__1::basic_format_context<std::__1::back_insert_iterator<std::__1::__format::__output_buffer<char> >, char> >(std::__1::basic_format_context<std::__1::back_insert_iterator<std::__1::__format::__output_buffer<char> >, char>&) const>
    364c:	aa0003e2 	mov	x2, x0
    3650:	aa0103e3 	mov	x3, x1
    3654:	12000260 	and	w0, w19, #0x1
    3658:	aa1403e1 	mov	x1, x20
    365c:	2a1f03e4 	mov	w4, wzr
    3660:	9400041e 	bl	46d8 <_ZNSt3__111__formatter16__format_integerB8nn190104ITkNS_17unsigned_integralEjcNS_20basic_format_contextINS_20back_insert_iteratorINS_8__format15__output_bufferIcEEEEcEEEENT1_8iteratorET_RS9_NS_13__format_spec23__parsed_specificationsIT0_EEb>
    3664:	1400000a 	b	368c <_ZZNSt3__18__format26__handle_replacement_fieldB8nn190104ITkNS_19contiguous_iteratorEPKcNS_26basic_format_parse_contextIcEENS_20basic_format_contextINS_20back_insert_iteratorINS0_15__output_bufferIcEEEEcEEEET_SC_SC_RT0_RT1_ENKUlSC_E_clIbEEDaSC_+0xbc>
    3668:	f9400694 	ldr	x20, [x20, #8]
    366c:	910003e0 	mov	x0, sp
    3670:	aa1403e1 	mov	x1, x20
    3674:	940003bb 	bl	4560 <std::__1::__format_spec::__parsed_specifications<char> std::__1::__format_spec::__parser<char>::__get_parsed_std_specifications[abi:nn190104]<std::__1::basic_format_context<std::__1::back_insert_iterator<std::__1::__format::__output_buffer<char> >, char> >(std::__1::basic_format_context<std::__1::back_insert_iterator<std::__1::__format::__output_buffer<char> >, char>&) const>
    3678:	aa0003e2 	mov	x2, x0
    367c:	aa0103e3 	mov	x3, x1
    3680:	12000260 	and	w0, w19, #0x1
    3684:	aa1403e1 	mov	x1, x20
    3688:	94000326 	bl	4320 <std::__1::basic_format_context<std::__1::back_insert_iterator<std::__1::__format::__output_buffer<char> >, char>::iterator std::__1::__formatter::__format_bool[abi:nn190104]<char, std::__1::basic_format_context<std::__1::back_insert_iterator<std::__1::__format::__output_buffer<char> >, char> >(bool, std::__1::basic_format_context<std::__1::back_insert_iterator<std::__1::__format::__output_buffer<char> >, char>&, std::__1::__format_spec::__parsed_specifications<char>)>
    368c:	f9000280 	str	x0, [x20]
    3690:	a9434ff4 	ldp	x20, x19, [sp, #48]
    3694:	a94257f6 	ldp	x22, x21, [sp, #32]
    3698:	a9417bfd 	ldp	x29, x30, [sp, #16]
    369c:	910103ff 	add	sp, sp, #0x40
    36a0:	d65f03c0 	ret
    36a4:	7100051f 	cmp	w8, #0x1
    36a8:	54000268 	b.hi	36f4 <_ZZNSt3__18__format26__handle_replacement_fieldB8nn190104ITkNS_19contiguous_iteratorEPKcNS_26basic_format_parse_contextIcEENS_20basic_format_contextINS_20back_insert_iteratorINS0_15__output_bufferIcEEEEcEEEET_SC_SC_RT0_RT1_ENKUlSC_E_clIbEEDaSC_+0x124>  // b.pmore
    36ac:	aa0003f6 	mov	x22, x0
    36b0:	f0000042 	adrp	x2, e000 <_IO_stdin_used+0x4b0>
    36b4:	91008842 	add	x2, x2, #0x22
    36b8:	910003e0 	mov	x0, sp
    36bc:	52802601 	mov	w1, #0x130                 	// #304
    36c0:	12800003 	mov	w3, #0xffffffff            	// #-1
    36c4:	94000285 	bl	40d8 <std::__1::__format_spec::__parser<char>::__validate[abi:nn190104](std::__1::__format_spec::__fields[abi:nn190104], char const*, unsigned int) const>
    36c8:	394003e8 	ldrb	w8, [sp]
    36cc:	7200091f 	tst	w8, #0x7
    36d0:	54000061 	b.ne	36dc <_ZZNSt3__18__format26__handle_replacement_fieldB8nn190104ITkNS_19contiguous_iteratorEPKcNS_26basic_format_parse_contextIcEENS_20basic_format_contextINS_20back_insert_iteratorINS0_15__output_bufferIcEEEEcEEEET_SC_SC_RT0_RT1_ENKUlSC_E_clIbEEDaSC_+0x10c>  // b.any
    36d4:	32000108 	orr	w8, w8, #0x1
    36d8:	390003e8 	strb	w8, [sp]
    36dc:	394007e8 	ldrb	w8, [sp, #1]
    36e0:	f9400694 	ldr	x20, [x20, #8]
    36e4:	f90002b6 	str	x22, [x21]
    36e8:	7100051f 	cmp	w8, #0x1
    36ec:	54fffaa8 	b.hi	3640 <_ZZNSt3__18__format26__handle_replacement_fieldB8nn190104ITkNS_19contiguous_iteratorEPKcNS_26basic_format_parse_contextIcEENS_20basic_format_contextINS_20back_insert_iteratorINS0_15__output_bufferIcEEEEcEEEET_SC_SC_RT0_RT1_ENKUlSC_E_clIbEEDaSC_+0x70>  // b.pmore
    36f0:	17ffffdf 	b	366c <_ZZNSt3__18__format26__handle_replacement_fieldB8nn190104ITkNS_19contiguous_iteratorEPKcNS_26basic_format_parse_contextIcEENS_20basic_format_contextINS_20back_insert_iteratorINS0_15__output_bufferIcEEEEcEEEET_SC_SC_RT0_RT1_ENKUlSC_E_clIbEEDaSC_+0x9c>
    36f4:	f0000040 	adrp	x0, e000 <_IO_stdin_used+0x4b0>
    36f8:	91008800 	add	x0, x0, #0x22
    36fc:	9400025f 	bl	4078 <std::__1::__format_spec::__throw_invalid_type_format_error[abi:nn190104](char const*)>

0000000000003700 <std::__1::basic_format_parse_context<char>::iterator std::__1::__format_spec::__parser<char>::__parse[abi:nn190104]<std::__1::basic_format_parse_context<char> >(std::__1::basic_format_parse_context<char>&, std::__1::__format_spec::__fields[abi:nn190104])>:
    3700:	d10103ff 	sub	sp, sp, #0x40
    3704:	a9017bfd 	stp	x29, x30, [sp, #16]
    3708:	a90257f6 	stp	x22, x21, [sp, #32]
    370c:	a9034ff4 	stp	x20, x19, [sp, #48]
    3710:	910043fd 	add	x29, sp, #0x10
    3714:	aa0003e8 	mov	x8, x0
    3718:	a9404c20 	ldp	x0, x19, [x1]
    371c:	eb13001f 	cmp	x0, x19
    3720:	f90007e0 	str	x0, [sp, #8]
    3724:	54001020 	b.eq	3928 <std::__1::basic_format_parse_context<char>::iterator std::__1::__format_spec::__parser<char>::__parse[abi:nn190104]<std::__1::basic_format_parse_context<char> >(std::__1::basic_format_parse_context<char>&, std::__1::__format_spec::__fields[abi:nn190104])+0x228>  // b.none
    3728:	39400009 	ldrb	w9, [x0]
    372c:	7101f53f 	cmp	w9, #0x7d
    3730:	54000fc0 	b.eq	3928 <std::__1::basic_format_parse_context<char>::iterator std::__1::__format_spec::__parser<char>::__parse[abi:nn190104]<std::__1::basic_format_parse_context<char> >(std::__1::basic_format_parse_context<char>&, std::__1::__format_spec::__fields[abi:nn190104])+0x228>  // b.none
    3734:	12003c54 	and	w20, w2, #0xffff
    3738:	36300074 	tbz	w20, #6, 3744 <std::__1::basic_format_parse_context<char>::iterator std::__1::__format_spec::__parser<char>::__parse[abi:nn190104]<std::__1::basic_format_parse_context<char> >(std::__1::basic_format_parse_context<char>&, std::__1::__format_spec::__fields[abi:nn190104])+0x44>
    373c:	7100e93f 	cmp	w9, #0x3a
    3740:	54000f40 	b.eq	3928 <std::__1::basic_format_parse_context<char>::iterator std::__1::__format_spec::__parser<char>::__parse[abi:nn190104]<std::__1::basic_format_parse_context<char> >(std::__1::basic_format_parse_context<char>&, std::__1::__format_spec::__fields[abi:nn190104])+0x228>  // b.none
    3744:	aa0103f6 	mov	x22, x1
    3748:	910023e1 	add	x1, sp, #0x8
    374c:	aa0803e0 	mov	x0, x8
    3750:	aa1303e2 	mov	x2, x19
    3754:	aa0803f5 	mov	x21, x8
    3758:	9400007b 	bl	3944 <_ZNSt3__113__format_spec8__parserIcE18__parse_fill_alignB8nn190104ITkNS_19contiguous_iteratorEPKcQoo7same_asIT_cEaa7same_asIS6_wEeqLm4ELi2EEEbRS6_S6_>
    375c:	2a0003e8 	mov	w8, w0
    3760:	f94007e0 	ldr	x0, [sp, #8]
    3764:	36000068 	tbz	w8, #0, 3770 <std::__1::basic_format_parse_context<char>::iterator std::__1::__format_spec::__parser<char>::__parse[abi:nn190104]<std::__1::basic_format_parse_context<char> >(std::__1::basic_format_parse_context<char>&, std::__1::__format_spec::__fields[abi:nn190104])+0x70>
    3768:	eb13001f 	cmp	x0, x19
    376c:	54000de0 	b.eq	3928 <std::__1::basic_format_parse_context<char>::iterator std::__1::__format_spec::__parser<char>::__parse[abi:nn190104]<std::__1::basic_format_parse_context<char> >(std::__1::basic_format_parse_context<char>&, std::__1::__format_spec::__fields[abi:nn190104])+0x228>  // b.none
    3770:	37000094 	tbnz	w20, #0, 3780 <std::__1::basic_format_parse_context<char>::iterator std::__1::__format_spec::__parser<char>::__parse[abi:nn190104]<std::__1::basic_format_parse_context<char> >(std::__1::basic_format_parse_context<char>&, std::__1::__format_spec::__fields[abi:nn190104])+0x80>
    3774:	aa1503e8 	mov	x8, x21
    3778:	aa1603e3 	mov	x3, x22
    377c:	14000019 	b	37e0 <std::__1::basic_format_parse_context<char>::iterator std::__1::__format_spec::__parser<char>::__parse[abi:nn190104]<std::__1::basic_format_parse_context<char> >(std::__1::basic_format_parse_context<char>&, std::__1::__format_spec::__fields[abi:nn190104])+0xe0>
    3780:	39400009 	ldrb	w9, [x0]
    3784:	aa1503e8 	mov	x8, x21
    3788:	aa1603e3 	mov	x3, x22
    378c:	7100813f 	cmp	w9, #0x20
    3790:	540001a0 	b.eq	37c4 <std::__1::basic_format_parse_context<char>::iterator std::__1::__format_spec::__parser<char>::__parse[abi:nn190104]<std::__1::basic_format_parse_context<char> >(std::__1::basic_format_parse_context<char>&, std::__1::__format_spec::__fields[abi:nn190104])+0xc4>  // b.none
    3794:	7100ad3f 	cmp	w9, #0x2b
    3798:	540000e0 	b.eq	37b4 <std::__1::basic_format_parse_context<char>::iterator std::__1::__format_spec::__parser<char>::__parse[abi:nn190104]<std::__1::basic_format_parse_context<char> >(std::__1::basic_format_parse_context<char>&, std::__1::__format_spec::__fields[abi:nn190104])+0xb4>  // b.none
    379c:	7100b53f 	cmp	w9, #0x2d
    37a0:	54000201 	b.ne	37e0 <std::__1::basic_format_parse_context<char>::iterator std::__1::__format_spec::__parser<char>::__parse[abi:nn190104]<std::__1::basic_format_parse_context<char> >(std::__1::basic_format_parse_context<char>&, std::__1::__format_spec::__fields[abi:nn190104])+0xe0>  // b.any
    37a4:	39400109 	ldrb	w9, [x8]
    37a8:	121b7529 	and	w9, w9, #0xffffffe7
    37ac:	321d0129 	orr	w9, w9, #0x8
    37b0:	14000007 	b	37cc <std::__1::basic_format_parse_context<char>::iterator std::__1::__format_spec::__parser<char>::__parse[abi:nn190104]<std::__1::basic_format_parse_context<char> >(std::__1::basic_format_parse_context<char>&, std::__1::__format_spec::__fields[abi:nn190104])+0xcc>
    37b4:	39400109 	ldrb	w9, [x8]
    37b8:	121b7529 	and	w9, w9, #0xffffffe7
    37bc:	321c0129 	orr	w9, w9, #0x10
    37c0:	14000003 	b	37cc <std::__1::basic_format_parse_context<char>::iterator std::__1::__format_spec::__parser<char>::__parse[abi:nn190104]<std::__1::basic_format_parse_context<char> >(std::__1::basic_format_parse_context<char>&, std::__1::__format_spec::__fields[abi:nn190104])+0xcc>
    37c4:	39400109 	ldrb	w9, [x8]
    37c8:	321d0529 	orr	w9, w9, #0x18
    37cc:	91000400 	add	x0, x0, #0x1
    37d0:	39000109 	strb	w9, [x8]
    37d4:	eb13001f 	cmp	x0, x19
    37d8:	f90007e0 	str	x0, [sp, #8]
    37dc:	54000a60 	b.eq	3928 <std::__1::basic_format_parse_context<char>::iterator std::__1::__format_spec::__parser<char>::__parse[abi:nn190104]<std::__1::basic_format_parse_context<char> >(std::__1::basic_format_parse_context<char>&, std::__1::__format_spec::__fields[abi:nn190104])+0x228>  // b.none
    37e0:	36080174 	tbz	w20, #1, 380c <std::__1::basic_format_parse_context<char>::iterator std::__1::__format_spec::__parser<char>::__parse[abi:nn190104]<std::__1::basic_format_parse_context<char> >(std::__1::basic_format_parse_context<char>&, std::__1::__format_spec::__fields[abi:nn190104])+0x10c>
    37e4:	39400009 	ldrb	w9, [x0]
    37e8:	71008d3f 	cmp	w9, #0x23
    37ec:	54000101 	b.ne	380c <std::__1::basic_format_parse_context<char>::iterator std::__1::__format_spec::__parser<char>::__parse[abi:nn190104]<std::__1::basic_format_parse_context<char> >(std::__1::basic_format_parse_context<char>&, std::__1::__format_spec::__fields[abi:nn190104])+0x10c>  // b.any
    37f0:	39400109 	ldrb	w9, [x8]
    37f4:	91000400 	add	x0, x0, #0x1
    37f8:	eb13001f 	cmp	x0, x19
    37fc:	f90007e0 	str	x0, [sp, #8]
    3800:	321b0129 	orr	w9, w9, #0x20
    3804:	39000109 	strb	w9, [x8]
    3808:	54000900 	b.eq	3928 <std::__1::basic_format_parse_context<char>::iterator std::__1::__format_spec::__parser<char>::__parse[abi:nn190104]<std::__1::basic_format_parse_context<char> >(std::__1::basic_format_parse_context<char>&, std::__1::__format_spec::__fields[abi:nn190104])+0x228>  // b.none
    380c:	361001b4 	tbz	w20, #2, 3840 <std::__1::basic_format_parse_context<char>::iterator std::__1::__format_spec::__parser<char>::__parse[abi:nn190104]<std::__1::basic_format_parse_context<char> >(std::__1::basic_format_parse_context<char>&, std::__1::__format_spec::__fields[abi:nn190104])+0x140>
    3810:	39400009 	ldrb	w9, [x0]
    3814:	7100c13f 	cmp	w9, #0x30
    3818:	54000141 	b.ne	3840 <std::__1::basic_format_parse_context<char>::iterator std::__1::__format_spec::__parser<char>::__parse[abi:nn190104]<std::__1::basic_format_parse_context<char> >(std::__1::basic_format_parse_context<char>&, std::__1::__format_spec::__fields[abi:nn190104])+0x140>  // b.any
    381c:	39400109 	ldrb	w9, [x8]
    3820:	7200093f 	tst	w9, #0x7
    3824:	54000061 	b.ne	3830 <std::__1::basic_format_parse_context<char>::iterator std::__1::__format_spec::__parser<char>::__parse[abi:nn190104]<std::__1::basic_format_parse_context<char> >(std::__1::basic_format_parse_context<char>&, std::__1::__format_spec::__fields[abi:nn190104])+0x130>  // b.any
    3828:	321e0129 	orr	w9, w9, #0x4
    382c:	39000109 	strb	w9, [x8]
    3830:	91000400 	add	x0, x0, #0x1
    3834:	eb13001f 	cmp	x0, x19
    3838:	f90007e0 	str	x0, [sp, #8]
    383c:	54000760 	b.eq	3928 <std::__1::basic_format_parse_context<char>::iterator std::__1::__format_spec::__parser<char>::__parse[abi:nn190104]<std::__1::basic_format_parse_context<char> >(std::__1::basic_format_parse_context<char>&, std::__1::__format_spec::__fields[abi:nn190104])+0x228>  // b.none
    3840:	910023e1 	add	x1, sp, #0x8
    3844:	aa0803e0 	mov	x0, x8
    3848:	aa1303e2 	mov	x2, x19
    384c:	9400008f 	bl	3a88 <_ZNSt3__113__format_spec8__parserIcE13__parse_widthB8nn190104ITkNS_19contiguous_iteratorEPKcNS_26basic_format_parse_contextIcEEEEbRT_S8_RT0_>
    3850:	2a0003e8 	mov	w8, w0
    3854:	f94007e0 	ldr	x0, [sp, #8]
    3858:	36000068 	tbz	w8, #0, 3864 <std::__1::basic_format_parse_context<char>::iterator std::__1::__format_spec::__parser<char>::__parse[abi:nn190104]<std::__1::basic_format_parse_context<char> >(std::__1::basic_format_parse_context<char>&, std::__1::__format_spec::__fields[abi:nn190104])+0x164>
    385c:	eb13001f 	cmp	x0, x19
    3860:	54000640 	b.eq	3928 <std::__1::basic_format_parse_context<char>::iterator std::__1::__format_spec::__parser<char>::__parse[abi:nn190104]<std::__1::basic_format_parse_context<char> >(std::__1::basic_format_parse_context<char>&, std::__1::__format_spec::__fields[abi:nn190104])+0x228>  // b.none
    3864:	aa1503e8 	mov	x8, x21
    3868:	371804b4 	tbnz	w20, #3, 38fc <std::__1::basic_format_parse_context<char>::iterator std::__1::__format_spec::__parser<char>::__parse[abi:nn190104]<std::__1::basic_format_parse_context<char> >(std::__1::basic_format_parse_context<char>&, std::__1::__format_spec::__fields[abi:nn190104])+0x1fc>
    386c:	36200174 	tbz	w20, #4, 3898 <std::__1::basic_format_parse_context<char>::iterator std::__1::__format_spec::__parser<char>::__parse[abi:nn190104]<std::__1::basic_format_parse_context<char> >(std::__1::basic_format_parse_context<char>&, std::__1::__format_spec::__fields[abi:nn190104])+0x198>
    3870:	39400009 	ldrb	w9, [x0]
    3874:	7101313f 	cmp	w9, #0x4c
    3878:	54000101 	b.ne	3898 <std::__1::basic_format_parse_context<char>::iterator std::__1::__format_spec::__parser<char>::__parse[abi:nn190104]<std::__1::basic_format_parse_context<char> >(std::__1::basic_format_parse_context<char>&, std::__1::__format_spec::__fields[abi:nn190104])+0x198>  // b.any
    387c:	39400109 	ldrb	w9, [x8]
    3880:	91000400 	add	x0, x0, #0x1
    3884:	eb13001f 	cmp	x0, x19
    3888:	f90007e0 	str	x0, [sp, #8]
    388c:	321a0129 	orr	w9, w9, #0x40
    3890:	39000109 	strb	w9, [x8]
    3894:	540004a0 	b.eq	3928 <std::__1::basic_format_parse_context<char>::iterator std::__1::__format_spec::__parser<char>::__parse[abi:nn190104]<std::__1::basic_format_parse_context<char> >(std::__1::basic_format_parse_context<char>&, std::__1::__format_spec::__fields[abi:nn190104])+0x228>  // b.none
    3898:	36380174 	tbz	w20, #7, 38c4 <std::__1::basic_format_parse_context<char>::iterator std::__1::__format_spec::__parser<char>::__parse[abi:nn190104]<std::__1::basic_format_parse_context<char> >(std::__1::basic_format_parse_context<char>&, std::__1::__format_spec::__fields[abi:nn190104])+0x1c4>
    389c:	39400009 	ldrb	w9, [x0]
    38a0:	7101b93f 	cmp	w9, #0x6e
    38a4:	54000101 	b.ne	38c4 <std::__1::basic_format_parse_context<char>::iterator std::__1::__format_spec::__parser<char>::__parse[abi:nn190104]<std::__1::basic_format_parse_context<char> >(std::__1::basic_format_parse_context<char>&, std::__1::__format_spec::__fields[abi:nn190104])+0x1c4>  // b.any
    38a8:	39400109 	ldrb	w9, [x8]
    38ac:	91000400 	add	x0, x0, #0x1
    38b0:	eb13001f 	cmp	x0, x19
    38b4:	f90007e0 	str	x0, [sp, #8]
    38b8:	32190129 	orr	w9, w9, #0x80
    38bc:	39000109 	strb	w9, [x8]
    38c0:	54000340 	b.eq	3928 <std::__1::basic_format_parse_context<char>::iterator std::__1::__format_spec::__parser<char>::__parse[abi:nn190104]<std::__1::basic_format_parse_context<char> >(std::__1::basic_format_parse_context<char>&, std::__1::__format_spec::__fields[abi:nn190104])+0x228>  // b.none
    38c4:	36280094 	tbz	w20, #5, 38d4 <std::__1::basic_format_parse_context<char>::iterator std::__1::__format_spec::__parser<char>::__parse[abi:nn190104]<std::__1::basic_format_parse_context<char> >(std::__1::basic_format_parse_context<char>&, std::__1::__format_spec::__fields[abi:nn190104])+0x1d4>
    38c8:	910023e1 	add	x1, sp, #0x8
    38cc:	aa0803e0 	mov	x0, x8
    38d0:	94000137 	bl	3dac <_ZNSt3__113__format_spec8__parserIcE12__parse_typeB8nn190104ITkNS_19contiguous_iteratorEPKcEEvRT_>
    38d4:	f94007e0 	ldr	x0, [sp, #8]
    38d8:	36400294 	tbz	w20, #8, 3928 <std::__1::basic_format_parse_context<char>::iterator std::__1::__format_spec::__parser<char>::__parse[abi:nn190104]<std::__1::basic_format_parse_context<char> >(std::__1::basic_format_parse_context<char>&, std::__1::__format_spec::__fields[abi:nn190104])+0x228>
    38dc:	eb13001f 	cmp	x0, x19
    38e0:	54000240 	b.eq	3928 <std::__1::basic_format_parse_context<char>::iterator std::__1::__format_spec::__parser<char>::__parse[abi:nn190104]<std::__1::basic_format_parse_context<char> >(std::__1::basic_format_parse_context<char>&, std::__1::__format_spec::__fields[abi:nn190104])+0x228>  // b.none
    38e4:	39400008 	ldrb	w8, [x0]
    38e8:	7101f51f 	cmp	w8, #0x7d
    38ec:	540001e0 	b.eq	3928 <std::__1::basic_format_parse_context<char>::iterator std::__1::__format_spec::__parser<char>::__parse[abi:nn190104]<std::__1::basic_format_parse_context<char> >(std::__1::basic_format_parse_context<char>&, std::__1::__format_spec::__fields[abi:nn190104])+0x228>  // b.none
    38f0:	f0000040 	adrp	x0, e000 <_IO_stdin_used+0x4b0>
    38f4:	9100a400 	add	x0, x0, #0x29
    38f8:	97fffcd6 	bl	2c50 <std::__1::__throw_format_error[abi:nn190104](char const*)>
    38fc:	aa1603e3 	mov	x3, x22
    3900:	910023e1 	add	x1, sp, #0x8
    3904:	aa0803e0 	mov	x0, x8
    3908:	aa1303e2 	mov	x2, x19
    390c:	940000bb 	bl	3bf8 <_ZNSt3__113__format_spec8__parserIcE17__parse_precisionB8nn190104ITkNS_19contiguous_iteratorEPKcNS_26basic_format_parse_contextIcEEEEbRT_S8_RT0_>
    3910:	2a0003e8 	mov	w8, w0
    3914:	f94007e0 	ldr	x0, [sp, #8]
    3918:	36000128 	tbz	w8, #0, 393c <std::__1::basic_format_parse_context<char>::iterator std::__1::__format_spec::__parser<char>::__parse[abi:nn190104]<std::__1::basic_format_parse_context<char> >(std::__1::basic_format_parse_context<char>&, std::__1::__format_spec::__fields[abi:nn190104])+0x23c>
    391c:	eb13001f 	cmp	x0, x19
    3920:	aa1503e8 	mov	x8, x21
    3924:	54fffa41 	b.ne	386c <std::__1::basic_format_parse_context<char>::iterator std::__1::__format_spec::__parser<char>::__parse[abi:nn190104]<std::__1::basic_format_parse_context<char> >(std::__1::basic_format_parse_context<char>&, std::__1::__format_spec::__fields[abi:nn190104])+0x16c>  // b.any
    3928:	a9434ff4 	ldp	x20, x19, [sp, #48]
    392c:	a94257f6 	ldp	x22, x21, [sp, #32]
    3930:	a9417bfd 	ldp	x29, x30, [sp, #16]
    3934:	910103ff 	add	sp, sp, #0x40
    3938:	d65f03c0 	ret
    393c:	aa1503e8 	mov	x8, x21
    3940:	17ffffcb 	b	386c <std::__1::basic_format_parse_context<char>::iterator std::__1::__format_spec::__parser<char>::__parse[abi:nn190104]<std::__1::basic_format_parse_context<char> >(std::__1::basic_format_parse_context<char>&, std::__1::__format_spec::__fields[abi:nn190104])+0x16c>

0000000000003944 <_ZNSt3__113__format_spec8__parserIcE18__parse_fill_alignB8nn190104ITkNS_19contiguous_iteratorEPKcQoo7same_asIT_cEaa7same_asIS6_wEeqLm4ELi2EEEbRS6_S6_>:
    3944:	d10103ff 	sub	sp, sp, #0x40
    3948:	a9017bfd 	stp	x29, x30, [sp, #16]
    394c:	f90013f5 	str	x21, [sp, #32]
    3950:	a9034ff4 	stp	x20, x19, [sp, #48]
    3954:	910043fd 	add	x29, sp, #0x10
    3958:	f9400028 	ldr	x8, [x1]
    395c:	aa0003f4 	mov	x20, x0
    3960:	910003e0 	mov	x0, sp
    3964:	aa0203f5 	mov	x21, x2
    3968:	aa0103f3 	mov	x19, x1
    396c:	a9000be8 	stp	x8, x2, [sp]
    3970:	94000140 	bl	3e70 <std::__1::__unicode::__code_point_view<char>::__consume[abi:nn190104]()>
    3974:	37f80840 	tbnz	w0, #31, 3a7c <_ZNSt3__113__format_spec8__parserIcE18__parse_fill_alignB8nn190104ITkNS_19contiguous_iteratorEPKcQoo7same_asIT_cEaa7same_asIS6_wEeqLm4ELi2EEEbRS6_S6_+0x138>
    3978:	f94003e8 	ldr	x8, [sp]
    397c:	eb15011f 	cmp	x8, x21
    3980:	54000142 	b.cs	39a8 <_ZNSt3__113__format_spec8__parserIcE18__parse_fill_alignB8nn190104ITkNS_19contiguous_iteratorEPKcQoo7same_asIT_cEaa7same_asIS6_wEeqLm4ELi2EEEbRS6_S6_+0x64>  // b.hs, b.nlast
    3984:	39400109 	ldrb	w9, [x8]
    3988:	7100f13f 	cmp	w9, #0x3c
    398c:	540003c0 	b.eq	3a04 <_ZNSt3__113__format_spec8__parserIcE18__parse_fill_alignB8nn190104ITkNS_19contiguous_iteratorEPKcQoo7same_asIT_cEaa7same_asIS6_wEeqLm4ELi2EEEbRS6_S6_+0xc0>  // b.none
    3990:	7100f93f 	cmp	w9, #0x3e
    3994:	54000340 	b.eq	39fc <_ZNSt3__113__format_spec8__parserIcE18__parse_fill_alignB8nn190104ITkNS_19contiguous_iteratorEPKcQoo7same_asIT_cEaa7same_asIS6_wEeqLm4ELi2EEEbRS6_S6_+0xb8>  // b.none
    3998:	7101793f 	cmp	w9, #0x5e
    399c:	54000061 	b.ne	39a8 <_ZNSt3__113__format_spec8__parserIcE18__parse_fill_alignB8nn190104ITkNS_19contiguous_iteratorEPKcQoo7same_asIT_cEaa7same_asIS6_wEeqLm4ELi2EEEbRS6_S6_+0x64>  // b.any
    39a0:	52800049 	mov	w9, #0x2                   	// #2
    39a4:	14000019 	b	3a08 <_ZNSt3__113__format_spec8__parserIcE18__parse_fill_alignB8nn190104ITkNS_19contiguous_iteratorEPKcQoo7same_asIT_cEaa7same_asIS6_wEeqLm4ELi2EEEbRS6_S6_+0xc4>
    39a8:	f9400268 	ldr	x8, [x19]
    39ac:	39400108 	ldrb	w8, [x8]
    39b0:	7100f11f 	cmp	w8, #0x3c
    39b4:	54000120 	b.eq	39d8 <_ZNSt3__113__format_spec8__parserIcE18__parse_fill_alignB8nn190104ITkNS_19contiguous_iteratorEPKcQoo7same_asIT_cEaa7same_asIS6_wEeqLm4ELi2EEEbRS6_S6_+0x94>  // b.none
    39b8:	7100f91f 	cmp	w8, #0x3e
    39bc:	540000a0 	b.eq	39d0 <_ZNSt3__113__format_spec8__parserIcE18__parse_fill_alignB8nn190104ITkNS_19contiguous_iteratorEPKcQoo7same_asIT_cEaa7same_asIS6_wEeqLm4ELi2EEEbRS6_S6_+0x8c>  // b.none
    39c0:	7101791f 	cmp	w8, #0x5e
    39c4:	54000181 	b.ne	39f4 <_ZNSt3__113__format_spec8__parserIcE18__parse_fill_alignB8nn190104ITkNS_19contiguous_iteratorEPKcQoo7same_asIT_cEaa7same_asIS6_wEeqLm4ELi2EEEbRS6_S6_+0xb0>  // b.any
    39c8:	52800048 	mov	w8, #0x2                   	// #2
    39cc:	14000004 	b	39dc <_ZNSt3__113__format_spec8__parserIcE18__parse_fill_alignB8nn190104ITkNS_19contiguous_iteratorEPKcQoo7same_asIT_cEaa7same_asIS6_wEeqLm4ELi2EEEbRS6_S6_+0x98>
    39d0:	52800068 	mov	w8, #0x3                   	// #3
    39d4:	14000002 	b	39dc <_ZNSt3__113__format_spec8__parserIcE18__parse_fill_alignB8nn190104ITkNS_19contiguous_iteratorEPKcQoo7same_asIT_cEaa7same_asIS6_wEeqLm4ELi2EEEbRS6_S6_+0x98>
    39d8:	52800028 	mov	w8, #0x1                   	// #1
    39dc:	39400289 	ldrb	w9, [x20]
    39e0:	121d1129 	and	w9, w9, #0xf8
    39e4:	2a080128 	orr	w8, w9, w8
    39e8:	39000288 	strb	w8, [x20]
    39ec:	f9400268 	ldr	x8, [x19]
    39f0:	1400001b 	b	3a5c <_ZNSt3__113__format_spec8__parserIcE18__parse_fill_alignB8nn190104ITkNS_19contiguous_iteratorEPKcQoo7same_asIT_cEaa7same_asIS6_wEeqLm4ELi2EEEbRS6_S6_+0x118>
    39f4:	2a1f03e0 	mov	w0, wzr
    39f8:	1400001c 	b	3a68 <_ZNSt3__113__format_spec8__parserIcE18__parse_fill_alignB8nn190104ITkNS_19contiguous_iteratorEPKcQoo7same_asIT_cEaa7same_asIS6_wEeqLm4ELi2EEEbRS6_S6_+0x124>
    39fc:	52800069 	mov	w9, #0x3                   	// #3
    3a00:	14000002 	b	3a08 <_ZNSt3__113__format_spec8__parserIcE18__parse_fill_alignB8nn190104ITkNS_19contiguous_iteratorEPKcQoo7same_asIT_cEaa7same_asIS6_wEeqLm4ELi2EEEbRS6_S6_+0xc4>
    3a04:	52800029 	mov	w9, #0x1                   	// #1
    3a08:	3940028a 	ldrb	w10, [x20]
    3a0c:	121d114a 	and	w10, w10, #0xf8
    3a10:	2a090149 	orr	w9, w10, w9
    3a14:	39000289 	strb	w9, [x20]
    3a18:	f9400261 	ldr	x1, [x19]
    3a1c:	cb010115 	sub	x21, x8, x1
    3a20:	f10006bf 	cmp	x21, #0x1
    3a24:	540000e1 	b.ne	3a40 <_ZNSt3__113__format_spec8__parserIcE18__parse_fill_alignB8nn190104ITkNS_19contiguous_iteratorEPKcQoo7same_asIT_cEaa7same_asIS6_wEeqLm4ELi2EEEbRS6_S6_+0xfc>  // b.any
    3a28:	39400028 	ldrb	w8, [x1]
    3a2c:	7101ed1f 	cmp	w8, #0x7b
    3a30:	540000c1 	b.ne	3a48 <_ZNSt3__113__format_spec8__parserIcE18__parse_fill_alignB8nn190104ITkNS_19contiguous_iteratorEPKcQoo7same_asIT_cEaa7same_asIS6_wEeqLm4ELi2EEEbRS6_S6_+0x104>  // b.any
    3a34:	f0000040 	adrp	x0, e000 <_IO_stdin_used+0x4b0>
    3a38:	91029000 	add	x0, x0, #0xa4
    3a3c:	97fffc85 	bl	2c50 <std::__1::__throw_format_error[abi:nn190104](char const*)>
    3a40:	eb01011f 	cmp	x8, x1
    3a44:	540000a0 	b.eq	3a58 <_ZNSt3__113__format_spec8__parserIcE18__parse_fill_alignB8nn190104ITkNS_19contiguous_iteratorEPKcQoo7same_asIT_cEaa7same_asIS6_wEeqLm4ELi2EEEbRS6_S6_+0x114>  // b.none
    3a48:	91003280 	add	x0, x20, #0xc
    3a4c:	aa1503e2 	mov	x2, x21
    3a50:	97fff898 	bl	1cb0 <memmove@plt>
    3a54:	f9400261 	ldr	x1, [x19]
    3a58:	8b150028 	add	x8, x1, x21
    3a5c:	91000508 	add	x8, x8, #0x1
    3a60:	52800020 	mov	w0, #0x1                   	// #1
    3a64:	f9000268 	str	x8, [x19]
    3a68:	a9434ff4 	ldp	x20, x19, [sp, #48]
    3a6c:	f94013f5 	ldr	x21, [sp, #32]
    3a70:	a9417bfd 	ldp	x29, x30, [sp, #16]
    3a74:	910103ff 	add	sp, sp, #0x40
    3a78:	d65f03c0 	ret
    3a7c:	f0000040 	adrp	x0, e000 <_IO_stdin_used+0x4b0>
    3a80:	9101a400 	add	x0, x0, #0x69
    3a84:	97fffc73 	bl	2c50 <std::__1::__throw_format_error[abi:nn190104](char const*)>

0000000000003a88 <_ZNSt3__113__format_spec8__parserIcE13__parse_widthB8nn190104ITkNS_19contiguous_iteratorEPKcNS_26basic_format_parse_contextIcEEEEbRT_S8_RT0_>:
    3a88:	a9bd7bfd 	stp	x29, x30, [sp, #-48]!
    3a8c:	f9000bf5 	str	x21, [sp, #16]
    3a90:	a9024ff4 	stp	x20, x19, [sp, #32]
    3a94:	910003fd 	mov	x29, sp
    3a98:	f9400029 	ldr	x9, [x1]
    3a9c:	aa0103f3 	mov	x19, x1
    3aa0:	aa0003f4 	mov	x20, x0
    3aa4:	39400128 	ldrb	w8, [x9]
    3aa8:	7101ed1f 	cmp	w8, #0x7b
    3aac:	54000100 	b.eq	3acc <_ZNSt3__113__format_spec8__parserIcE13__parse_widthB8nn190104ITkNS_19contiguous_iteratorEPKcNS_26basic_format_parse_contextIcEEEEbRT_S8_RT0_+0x44>  // b.none
    3ab0:	7100c101 	subs	w1, w8, #0x30
    3ab4:	54000960 	b.eq	3be0 <_ZNSt3__113__format_spec8__parserIcE13__parse_widthB8nn190104ITkNS_19contiguous_iteratorEPKcNS_26basic_format_parse_contextIcEEEEbRT_S8_RT0_+0x158>  // b.none
    3ab8:	5100e908 	sub	w8, w8, #0x3a
    3abc:	3100291f 	cmn	w8, #0xa
    3ac0:	54000362 	b.cs	3b2c <_ZNSt3__113__format_spec8__parserIcE13__parse_widthB8nn190104ITkNS_19contiguous_iteratorEPKcNS_26basic_format_parse_contextIcEEEEbRT_S8_RT0_+0xa4>  // b.hs, b.nlast
    3ac4:	2a1f03e0 	mov	w0, wzr
    3ac8:	14000015 	b	3b1c <_ZNSt3__113__format_spec8__parserIcE13__parse_widthB8nn190104ITkNS_19contiguous_iteratorEPKcNS_26basic_format_parse_contextIcEEEEbRT_S8_RT0_+0x94>
    3acc:	91000520 	add	x0, x9, #0x1
    3ad0:	eb02001f 	cmp	x0, x2
    3ad4:	f9000260 	str	x0, [x19]
    3ad8:	540008a0 	b.eq	3bec <_ZNSt3__113__format_spec8__parserIcE13__parse_widthB8nn190104ITkNS_19contiguous_iteratorEPKcNS_26basic_format_parse_contextIcEEEEbRT_S8_RT0_+0x164>  // b.none
    3adc:	aa0203e1 	mov	x1, x2
    3ae0:	aa0203f5 	mov	x21, x2
    3ae4:	aa0303e2 	mov	x2, x3
    3ae8:	97fffca2 	bl	2d70 <_ZNSt3__18__format14__parse_arg_idB8nn190104ITkNS_19contiguous_iteratorEPKcNS_26basic_format_parse_contextIcEEEENS0_21__parse_number_resultIT_EES7_S7_RT0_>
    3aec:	eb15001f 	cmp	x0, x21
    3af0:	54000720 	b.eq	3bd4 <_ZNSt3__113__format_spec8__parserIcE13__parse_widthB8nn190104ITkNS_19contiguous_iteratorEPKcNS_26basic_format_parse_contextIcEEEEbRT_S8_RT0_+0x14c>  // b.none
    3af4:	39400008 	ldrb	w8, [x0]
    3af8:	7101f51f 	cmp	w8, #0x7d
    3afc:	540006c1 	b.ne	3bd4 <_ZNSt3__113__format_spec8__parserIcE13__parse_widthB8nn190104ITkNS_19contiguous_iteratorEPKcNS_26basic_format_parse_contextIcEEEEbRT_S8_RT0_+0x14c>  // b.any
    3b00:	79400688 	ldrh	w8, [x20, #2]
    3b04:	32120109 	orr	w9, w8, #0x4000
    3b08:	91000408 	add	x8, x0, #0x1
    3b0c:	79000689 	strh	w9, [x20, #2]
    3b10:	52800020 	mov	w0, #0x1                   	// #1
    3b14:	b9000681 	str	w1, [x20, #4]
    3b18:	f9000268 	str	x8, [x19]
    3b1c:	a9424ff4 	ldp	x20, x19, [sp, #32]
    3b20:	f9400bf5 	ldr	x21, [sp, #16]
    3b24:	a8c37bfd 	ldp	x29, x30, [sp], #48
    3b28:	d65f03c0 	ret
    3b2c:	cb090048 	sub	x8, x2, x9
    3b30:	9100252a 	add	x10, x9, #0x9
    3b34:	f100251f 	cmp	x8, #0x9
    3b38:	91000528 	add	x8, x9, #0x1
    3b3c:	9a82c14a 	csel	x10, x10, x2, gt
    3b40:	eb0a011f 	cmp	x8, x10
    3b44:	540001a0 	b.eq	3b78 <_ZNSt3__113__format_spec8__parserIcE13__parse_widthB8nn190104ITkNS_19contiguous_iteratorEPKcNS_26basic_format_parse_contextIcEEEEbRT_S8_RT0_+0xf0>  // b.none
    3b48:	d1000549 	sub	x9, x10, #0x1
    3b4c:	5280014b 	mov	w11, #0xa                   	// #10
    3b50:	3940010c 	ldrb	w12, [x8]
    3b54:	5100e98d 	sub	w13, w12, #0x3a
    3b58:	310029bf 	cmn	w13, #0xa
    3b5c:	54fffda3 	b.cc	3b10 <_ZNSt3__113__format_spec8__parserIcE13__parse_widthB8nn190104ITkNS_19contiguous_iteratorEPKcNS_26basic_format_parse_contextIcEEEEbRT_S8_RT0_+0x88>  // b.lo, b.ul, b.last
    3b60:	1b0b302c 	madd	w12, w1, w11, w12
    3b64:	91000508 	add	x8, x8, #0x1
    3b68:	eb0a011f 	cmp	x8, x10
    3b6c:	5100c181 	sub	w1, w12, #0x30
    3b70:	54ffff01 	b.ne	3b50 <_ZNSt3__113__format_spec8__parserIcE13__parse_widthB8nn190104ITkNS_19contiguous_iteratorEPKcNS_26basic_format_parse_contextIcEEEEbRT_S8_RT0_+0xc8>  // b.any
    3b74:	aa0a03e8 	mov	x8, x10
    3b78:	eb02011f 	cmp	x8, x2
    3b7c:	54000280 	b.eq	3bcc <_ZNSt3__113__format_spec8__parserIcE13__parse_widthB8nn190104ITkNS_19contiguous_iteratorEPKcNS_26basic_format_parse_contextIcEEEEbRT_S8_RT0_+0x144>  // b.none
    3b80:	3940010a 	ldrb	w10, [x8]
    3b84:	5100c14b 	sub	w11, w10, #0x30
    3b88:	7100257f 	cmp	w11, #0x9
    3b8c:	54fffc28 	b.hi	3b10 <_ZNSt3__113__format_spec8__parserIcE13__parse_widthB8nn190104ITkNS_19contiguous_iteratorEPKcNS_26basic_format_parse_contextIcEEEEbRT_S8_RT0_+0x88>  // b.pmore
    3b90:	52800148 	mov	w8, #0xa                   	// #10
    3b94:	9ba82828 	umaddl	x8, w1, w8, x10
    3b98:	d100c101 	sub	x1, x8, #0x30
    3b9c:	d35ffc28 	lsr	x8, x1, #31
    3ba0:	b5000108 	cbnz	x8, 3bc0 <_ZNSt3__113__format_spec8__parserIcE13__parse_widthB8nn190104ITkNS_19contiguous_iteratorEPKcNS_26basic_format_parse_contextIcEEEEbRT_S8_RT0_+0x138>
    3ba4:	91000928 	add	x8, x9, #0x2
    3ba8:	eb02011f 	cmp	x8, x2
    3bac:	54fffb20 	b.eq	3b10 <_ZNSt3__113__format_spec8__parserIcE13__parse_widthB8nn190104ITkNS_19contiguous_iteratorEPKcNS_26basic_format_parse_contextIcEEEEbRT_S8_RT0_+0x88>  // b.none
    3bb0:	39400109 	ldrb	w9, [x8]
    3bb4:	5100c129 	sub	w9, w9, #0x30
    3bb8:	7100253f 	cmp	w9, #0x9
    3bbc:	54fffaa8 	b.hi	3b10 <_ZNSt3__113__format_spec8__parserIcE13__parse_widthB8nn190104ITkNS_19contiguous_iteratorEPKcNS_26basic_format_parse_contextIcEEEEbRT_S8_RT0_+0x88>  // b.pmore
    3bc0:	d0000040 	adrp	x0, d000 <void* std::__1::__thread_proxy[abi:nn190104]<std::__1::tuple<std::__1::unique_ptr<std::__1::__thread_struct, std::__1::default_delete<std::__1::__thread_struct> >, relaxed_relaxed_write> >(void*)+0x40>
    3bc4:	913e8000 	add	x0, x0, #0xfa0
    3bc8:	97fffc22 	bl	2c50 <std::__1::__throw_format_error[abi:nn190104](char const*)>
    3bcc:	aa0203e8 	mov	x8, x2
    3bd0:	17ffffd0 	b	3b10 <_ZNSt3__113__format_spec8__parserIcE13__parse_widthB8nn190104ITkNS_19contiguous_iteratorEPKcNS_26basic_format_parse_contextIcEEEEbRT_S8_RT0_+0x88>
    3bd4:	f0000040 	adrp	x0, e000 <_IO_stdin_used+0x4b0>
    3bd8:	9104ac00 	add	x0, x0, #0x12b
    3bdc:	97fffc1d 	bl	2c50 <std::__1::__throw_format_error[abi:nn190104](char const*)>
    3be0:	f0000040 	adrp	x0, e000 <_IO_stdin_used+0x4b0>
    3be4:	91033800 	add	x0, x0, #0xce
    3be8:	97fffc1a 	bl	2c50 <std::__1::__throw_format_error[abi:nn190104](char const*)>
    3bec:	f0000040 	adrp	x0, e000 <_IO_stdin_used+0x4b0>
    3bf0:	9103f800 	add	x0, x0, #0xfe
    3bf4:	97fffc17 	bl	2c50 <std::__1::__throw_format_error[abi:nn190104](char const*)>

0000000000003bf8 <_ZNSt3__113__format_spec8__parserIcE17__parse_precisionB8nn190104ITkNS_19contiguous_iteratorEPKcNS_26basic_format_parse_contextIcEEEEbRT_S8_RT0_>:
    3bf8:	a9bd7bfd 	stp	x29, x30, [sp, #-48]!
    3bfc:	a90157f6 	stp	x22, x21, [sp, #16]
    3c00:	a9024ff4 	stp	x20, x19, [sp, #32]
    3c04:	910003fd 	mov	x29, sp
    3c08:	f9400028 	ldr	x8, [x1]
    3c0c:	39400113 	ldrb	w19, [x8]
    3c10:	7100ba7f 	cmp	w19, #0x2e
    3c14:	54000a81 	b.ne	3d64 <_ZNSt3__113__format_spec8__parserIcE17__parse_precisionB8nn190104ITkNS_19contiguous_iteratorEPKcNS_26basic_format_parse_contextIcEEEEbRT_S8_RT0_+0x16c>  // b.any
    3c18:	91000509 	add	x9, x8, #0x1
    3c1c:	eb02013f 	cmp	x9, x2
    3c20:	f9000029 	str	x9, [x1]
    3c24:	54000ac0 	b.eq	3d7c <_ZNSt3__113__format_spec8__parserIcE17__parse_precisionB8nn190104ITkNS_19contiguous_iteratorEPKcNS_26basic_format_parse_contextIcEEEEbRT_S8_RT0_+0x184>  // b.none
    3c28:	3940012c 	ldrb	w12, [x9]
    3c2c:	7101ed9f 	cmp	w12, #0x7b
    3c30:	540002e1 	b.ne	3c8c <_ZNSt3__113__format_spec8__parserIcE17__parse_precisionB8nn190104ITkNS_19contiguous_iteratorEPKcNS_26basic_format_parse_contextIcEEEEbRT_S8_RT0_+0x94>  // b.any
    3c34:	aa0003f5 	mov	x21, x0
    3c38:	91000900 	add	x0, x8, #0x2
    3c3c:	eb02001f 	cmp	x0, x2
    3c40:	f9000020 	str	x0, [x1]
    3c44:	54000a80 	b.eq	3d94 <_ZNSt3__113__format_spec8__parserIcE17__parse_precisionB8nn190104ITkNS_19contiguous_iteratorEPKcNS_26basic_format_parse_contextIcEEEEbRT_S8_RT0_+0x19c>  // b.none
    3c48:	aa0103f4 	mov	x20, x1
    3c4c:	aa0203e1 	mov	x1, x2
    3c50:	aa0203f6 	mov	x22, x2
    3c54:	aa0303e2 	mov	x2, x3
    3c58:	97fffc46 	bl	2d70 <_ZNSt3__18__format14__parse_arg_idB8nn190104ITkNS_19contiguous_iteratorEPKcNS_26basic_format_parse_contextIcEEEENS0_21__parse_number_resultIT_EES7_S7_RT0_>
    3c5c:	eb16001f 	cmp	x0, x22
    3c60:	54000940 	b.eq	3d88 <_ZNSt3__113__format_spec8__parserIcE17__parse_precisionB8nn190104ITkNS_19contiguous_iteratorEPKcNS_26basic_format_parse_contextIcEEEEbRT_S8_RT0_+0x190>  // b.none
    3c64:	39400008 	ldrb	w8, [x0]
    3c68:	7101f51f 	cmp	w8, #0x7d
    3c6c:	540008e1 	b.ne	3d88 <_ZNSt3__113__format_spec8__parserIcE17__parse_precisionB8nn190104ITkNS_19contiguous_iteratorEPKcNS_26basic_format_parse_contextIcEEEEbRT_S8_RT0_+0x190>  // b.any
    3c70:	794006a8 	ldrh	w8, [x21, #2]
    3c74:	9100040a 	add	x10, x0, #0x1
    3c78:	b9000aa1 	str	w1, [x21, #8]
    3c7c:	aa1403e1 	mov	x1, x20
    3c80:	32110108 	orr	w8, w8, #0x8000
    3c84:	790006a8 	strh	w8, [x21, #2]
    3c88:	14000036 	b	3d60 <_ZNSt3__113__format_spec8__parserIcE17__parse_precisionB8nn190104ITkNS_19contiguous_iteratorEPKcNS_26basic_format_parse_contextIcEEEEbRT_S8_RT0_+0x168>
    3c8c:	5100e98a 	sub	w10, w12, #0x3a
    3c90:	31002d5f 	cmn	w10, #0xb
    3c94:	54000869 	b.ls	3da0 <_ZNSt3__113__format_spec8__parserIcE17__parse_precisionB8nn190104ITkNS_19contiguous_iteratorEPKcNS_26basic_format_parse_contextIcEEEEbRT_S8_RT0_+0x1a8>  // b.plast
    3c98:	cb09004a 	sub	x10, x2, x9
    3c9c:	9100290b 	add	x11, x8, #0xa
    3ca0:	f100255f 	cmp	x10, #0x9
    3ca4:	9100090a 	add	x10, x8, #0x2
    3ca8:	5100c188 	sub	w8, w12, #0x30
    3cac:	9a82c16b 	csel	x11, x11, x2, gt
    3cb0:	eb0b015f 	cmp	x10, x11
    3cb4:	54000420 	b.eq	3d38 <_ZNSt3__113__format_spec8__parserIcE17__parse_precisionB8nn190104ITkNS_19contiguous_iteratorEPKcNS_26basic_format_parse_contextIcEEEEbRT_S8_RT0_+0x140>  // b.none
    3cb8:	d1000569 	sub	x9, x11, #0x1
    3cbc:	5280014c 	mov	w12, #0xa                   	// #10
    3cc0:	3940014d 	ldrb	w13, [x10]
    3cc4:	5100e9ae 	sub	w14, w13, #0x3a
    3cc8:	310029df 	cmn	w14, #0xa
    3ccc:	54000423 	b.cc	3d50 <_ZNSt3__113__format_spec8__parserIcE17__parse_precisionB8nn190104ITkNS_19contiguous_iteratorEPKcNS_26basic_format_parse_contextIcEEEEbRT_S8_RT0_+0x158>  // b.lo, b.ul, b.last
    3cd0:	1b0c3508 	madd	w8, w8, w12, w13
    3cd4:	9100054a 	add	x10, x10, #0x1
    3cd8:	eb0b015f 	cmp	x10, x11
    3cdc:	5100c108 	sub	w8, w8, #0x30
    3ce0:	54ffff01 	b.ne	3cc0 <_ZNSt3__113__format_spec8__parserIcE17__parse_precisionB8nn190104ITkNS_19contiguous_iteratorEPKcNS_26basic_format_parse_contextIcEEEEbRT_S8_RT0_+0xc8>  // b.any
    3ce4:	eb02017f 	cmp	x11, x2
    3ce8:	540002e0 	b.eq	3d44 <_ZNSt3__113__format_spec8__parserIcE17__parse_precisionB8nn190104ITkNS_19contiguous_iteratorEPKcNS_26basic_format_parse_contextIcEEEEbRT_S8_RT0_+0x14c>  // b.none
    3cec:	3940016a 	ldrb	w10, [x11]
    3cf0:	5100c14c 	sub	w12, w10, #0x30
    3cf4:	7100259f 	cmp	w12, #0x9
    3cf8:	540002a8 	b.hi	3d4c <_ZNSt3__113__format_spec8__parserIcE17__parse_precisionB8nn190104ITkNS_19contiguous_iteratorEPKcNS_26basic_format_parse_contextIcEEEEbRT_S8_RT0_+0x154>  // b.pmore
    3cfc:	5280014b 	mov	w11, #0xa                   	// #10
    3d00:	9bab2908 	umaddl	x8, w8, w11, x10
    3d04:	d100c108 	sub	x8, x8, #0x30
    3d08:	d35ffd0a 	lsr	x10, x8, #31
    3d0c:	b500010a 	cbnz	x10, 3d2c <_ZNSt3__113__format_spec8__parserIcE17__parse_precisionB8nn190104ITkNS_19contiguous_iteratorEPKcNS_26basic_format_parse_contextIcEEEEbRT_S8_RT0_+0x134>
    3d10:	9100092a 	add	x10, x9, #0x2
    3d14:	eb02015f 	cmp	x10, x2
    3d18:	540001c0 	b.eq	3d50 <_ZNSt3__113__format_spec8__parserIcE17__parse_precisionB8nn190104ITkNS_19contiguous_iteratorEPKcNS_26basic_format_parse_contextIcEEEEbRT_S8_RT0_+0x158>  // b.none
    3d1c:	39400149 	ldrb	w9, [x10]
    3d20:	5100c129 	sub	w9, w9, #0x30
    3d24:	7100253f 	cmp	w9, #0x9
    3d28:	54000148 	b.hi	3d50 <_ZNSt3__113__format_spec8__parserIcE17__parse_precisionB8nn190104ITkNS_19contiguous_iteratorEPKcNS_26basic_format_parse_contextIcEEEEbRT_S8_RT0_+0x158>  // b.pmore
    3d2c:	d0000040 	adrp	x0, d000 <void* std::__1::__thread_proxy[abi:nn190104]<std::__1::tuple<std::__1::unique_ptr<std::__1::__thread_struct, std::__1::default_delete<std::__1::__thread_struct> >, relaxed_relaxed_write> >(void*)+0x40>
    3d30:	913e8000 	add	x0, x0, #0xfa0
    3d34:	97fffbc7 	bl	2c50 <std::__1::__throw_format_error[abi:nn190104](char const*)>
    3d38:	aa0a03eb 	mov	x11, x10
    3d3c:	eb02017f 	cmp	x11, x2
    3d40:	54fffd61 	b.ne	3cec <_ZNSt3__113__format_spec8__parserIcE17__parse_precisionB8nn190104ITkNS_19contiguous_iteratorEPKcNS_26basic_format_parse_contextIcEEEEbRT_S8_RT0_+0xf4>  // b.any
    3d44:	aa0203ea 	mov	x10, x2
    3d48:	14000002 	b	3d50 <_ZNSt3__113__format_spec8__parserIcE17__parse_precisionB8nn190104ITkNS_19contiguous_iteratorEPKcNS_26basic_format_parse_contextIcEEEEbRT_S8_RT0_+0x158>
    3d4c:	aa0b03ea 	mov	x10, x11
    3d50:	79400409 	ldrh	w9, [x0, #2]
    3d54:	b9000808 	str	w8, [x0, #8]
    3d58:	12003928 	and	w8, w9, #0x7fff
    3d5c:	79000408 	strh	w8, [x0, #2]
    3d60:	f900002a 	str	x10, [x1]
    3d64:	7100ba7f 	cmp	w19, #0x2e
    3d68:	1a9f17e0 	cset	w0, eq	// eq = none
    3d6c:	a9424ff4 	ldp	x20, x19, [sp, #32]
    3d70:	a94157f6 	ldp	x22, x21, [sp, #16]
    3d74:	a8c37bfd 	ldp	x29, x30, [sp], #48
    3d78:	d65f03c0 	ret
    3d7c:	f0000040 	adrp	x0, e000 <_IO_stdin_used+0x4b0>
    3d80:	91052400 	add	x0, x0, #0x149
    3d84:	97fffbb3 	bl	2c50 <std::__1::__throw_format_error[abi:nn190104](char const*)>
    3d88:	f0000040 	adrp	x0, e000 <_IO_stdin_used+0x4b0>
    3d8c:	9104ac00 	add	x0, x0, #0x12b
    3d90:	97fffbb0 	bl	2c50 <std::__1::__throw_format_error[abi:nn190104](char const*)>
    3d94:	f0000040 	adrp	x0, e000 <_IO_stdin_used+0x4b0>
    3d98:	9103f800 	add	x0, x0, #0xfe
    3d9c:	97fffbad 	bl	2c50 <std::__1::__throw_format_error[abi:nn190104](char const*)>
    3da0:	f0000040 	adrp	x0, e000 <_IO_stdin_used+0x4b0>
    3da4:	9105fc00 	add	x0, x0, #0x17f
    3da8:	97fffbaa 	bl	2c50 <std::__1::__throw_format_error[abi:nn190104](char const*)>

0000000000003dac <_ZNSt3__113__format_spec8__parserIcE12__parse_typeB8nn190104ITkNS_19contiguous_iteratorEPKcEEvRT_>:
    3dac:	f9400028 	ldr	x8, [x1]
    3db0:	39400109 	ldrb	w9, [x8]
    3db4:	51010529 	sub	w9, w9, #0x41
    3db8:	7100dd3f 	cmp	w9, #0x37
    3dbc:	54000588 	b.hi	3e6c <_ZNSt3__113__format_spec8__parserIcE12__parse_typeB8nn190104ITkNS_19contiguous_iteratorEPKcEEvRT_+0xc0>  // b.pmore
    3dc0:	d000004a 	adrp	x10, d000 <void* std::__1::__thread_proxy[abi:nn190104]<std::__1::tuple<std::__1::unique_ptr<std::__1::__thread_struct, std::__1::default_delete<std::__1::__thread_struct> >, relaxed_relaxed_write> >(void*)+0x40>
    3dc4:	912e814a 	add	x10, x10, #0xba0
    3dc8:	100000ab 	adr	x11, 3ddc <_ZNSt3__113__format_spec8__parserIcE12__parse_typeB8nn190104ITkNS_19contiguous_iteratorEPKcEEvRT_+0x30>
    3dcc:	3869694c 	ldrb	w12, [x10, x9]
    3dd0:	8b0c096b 	add	x11, x11, x12, lsl #2
    3dd4:	52800189 	mov	w9, #0xc                   	// #12
    3dd8:	d61f0160 	br	x11
    3ddc:	52800069 	mov	w9, #0x3                   	// #3
    3de0:	14000020 	b	3e60 <_ZNSt3__113__format_spec8__parserIcE12__parse_typeB8nn190104ITkNS_19contiguous_iteratorEPKcEEvRT_+0xb4>
    3de4:	52800229 	mov	w9, #0x11                  	// #17
    3de8:	1400001e 	b	3e60 <_ZNSt3__113__format_spec8__parserIcE12__parse_typeB8nn190104ITkNS_19contiguous_iteratorEPKcEEvRT_+0xb4>
    3dec:	528000a9 	mov	w9, #0x5                   	// #5
    3df0:	1400001c 	b	3e60 <_ZNSt3__113__format_spec8__parserIcE12__parse_typeB8nn190104ITkNS_19contiguous_iteratorEPKcEEvRT_+0xb4>
    3df4:	52800249 	mov	w9, #0x12                  	// #18
    3df8:	1400001a 	b	3e60 <_ZNSt3__113__format_spec8__parserIcE12__parse_typeB8nn190104ITkNS_19contiguous_iteratorEPKcEEvRT_+0xb4>
    3dfc:	528001e9 	mov	w9, #0xf                   	// #15
    3e00:	14000018 	b	3e60 <_ZNSt3__113__format_spec8__parserIcE12__parse_typeB8nn190104ITkNS_19contiguous_iteratorEPKcEEvRT_+0xb4>
    3e04:	52800129 	mov	w9, #0x9                   	// #9
    3e08:	14000016 	b	3e60 <_ZNSt3__113__format_spec8__parserIcE12__parse_typeB8nn190104ITkNS_19contiguous_iteratorEPKcEEvRT_+0xb4>
    3e0c:	528001a9 	mov	w9, #0xd                   	// #13
    3e10:	14000014 	b	3e60 <_ZNSt3__113__format_spec8__parserIcE12__parse_typeB8nn190104ITkNS_19contiguous_iteratorEPKcEEvRT_+0xb4>
    3e14:	52800209 	mov	w9, #0x10                  	// #16
    3e18:	14000012 	b	3e60 <_ZNSt3__113__format_spec8__parserIcE12__parse_typeB8nn190104ITkNS_19contiguous_iteratorEPKcEEvRT_+0xb4>
    3e1c:	528001c9 	mov	w9, #0xe                   	// #14
    3e20:	14000010 	b	3e60 <_ZNSt3__113__format_spec8__parserIcE12__parse_typeB8nn190104ITkNS_19contiguous_iteratorEPKcEEvRT_+0xb4>
    3e24:	528000e9 	mov	w9, #0x7                   	// #7
    3e28:	1400000e 	b	3e60 <_ZNSt3__113__format_spec8__parserIcE12__parse_typeB8nn190104ITkNS_19contiguous_iteratorEPKcEEvRT_+0xb4>
    3e2c:	52800169 	mov	w9, #0xb                   	// #11
    3e30:	1400000c 	b	3e60 <_ZNSt3__113__format_spec8__parserIcE12__parse_typeB8nn190104ITkNS_19contiguous_iteratorEPKcEEvRT_+0xb4>
    3e34:	52800089 	mov	w9, #0x4                   	// #4
    3e38:	1400000a 	b	3e60 <_ZNSt3__113__format_spec8__parserIcE12__parse_typeB8nn190104ITkNS_19contiguous_iteratorEPKcEEvRT_+0xb4>
    3e3c:	52800109 	mov	w9, #0x8                   	// #8
    3e40:	14000008 	b	3e60 <_ZNSt3__113__format_spec8__parserIcE12__parse_typeB8nn190104ITkNS_19contiguous_iteratorEPKcEEvRT_+0xb4>
    3e44:	52800149 	mov	w9, #0xa                   	// #10
    3e48:	14000006 	b	3e60 <_ZNSt3__113__format_spec8__parserIcE12__parse_typeB8nn190104ITkNS_19contiguous_iteratorEPKcEEvRT_+0xb4>
    3e4c:	52800049 	mov	w9, #0x2                   	// #2
    3e50:	14000004 	b	3e60 <_ZNSt3__113__format_spec8__parserIcE12__parse_typeB8nn190104ITkNS_19contiguous_iteratorEPKcEEvRT_+0xb4>
    3e54:	528000c9 	mov	w9, #0x6                   	// #6
    3e58:	14000002 	b	3e60 <_ZNSt3__113__format_spec8__parserIcE12__parse_typeB8nn190104ITkNS_19contiguous_iteratorEPKcEEvRT_+0xb4>
    3e5c:	52800029 	mov	w9, #0x1                   	// #1
    3e60:	91000508 	add	x8, x8, #0x1
    3e64:	39000409 	strb	w9, [x0, #1]
    3e68:	f9000028 	str	x8, [x1]
    3e6c:	d65f03c0 	ret

0000000000003e70 <std::__1::__unicode::__code_point_view<char>::__consume[abi:nn190104]()>:
    3e70:	f9400008 	ldr	x8, [x0]
    3e74:	39400109 	ldrb	w9, [x8]
    3e78:	52001d29 	eor	w9, w9, #0xff
    3e7c:	5ac01129 	clz	w9, w9
    3e80:	51006129 	sub	w9, w9, #0x18
    3e84:	12001d29 	and	w9, w9, #0xff
    3e88:	7100093f 	cmp	w9, #0x2
    3e8c:	540002ec 	b.gt	3ee8 <std::__1::__unicode::__code_point_view<char>::__consume[abi:nn190104]()+0x78>
    3e90:	34000909 	cbz	w9, 3fb0 <std::__1::__unicode::__code_point_view<char>::__consume[abi:nn190104]()+0x140>
    3e94:	7100093f 	cmp	w9, #0x2
    3e98:	54000de1 	b.ne	4054 <std::__1::__unicode::__code_point_view<char>::__consume[abi:nn190104]()+0x1e4>  // b.any
    3e9c:	f9400409 	ldr	x9, [x0, #8]
    3ea0:	cb080129 	sub	x9, x9, x8
    3ea4:	f100093f 	cmp	x9, #0x2
    3ea8:	54000d6b 	b.lt	4054 <std::__1::__unicode::__code_point_view<char>::__consume[abi:nn190104]()+0x1e4>  // b.tstop
    3eac:	aa0803e9 	mov	x9, x8
    3eb0:	38401d2a 	ldrb	w10, [x9, #1]!
    3eb4:	121a054a 	and	w10, w10, #0xc0
    3eb8:	7102015f 	cmp	w10, #0x80
    3ebc:	54000cc1 	b.ne	4054 <std::__1::__unicode::__code_point_view<char>::__consume[abi:nn190104]()+0x1e4>  // b.any
    3ec0:	f9000009 	str	x9, [x0]
    3ec4:	3840250a 	ldrb	w10, [x8], #2
    3ec8:	f9000008 	str	x8, [x0]
    3ecc:	1200114a 	and	w10, w10, #0x1f
    3ed0:	7100095f 	cmp	w10, #0x2
    3ed4:	54000cc3 	b.cc	406c <std::__1::__unicode::__code_point_view<char>::__consume[abi:nn190104]()+0x1fc>  // b.lo, b.ul, b.last
    3ed8:	39400128 	ldrb	w8, [x9]
    3edc:	12001508 	and	w8, w8, #0x3f
    3ee0:	2a0a1900 	orr	w0, w8, w10, lsl #6
    3ee4:	d65f03c0 	ret
    3ee8:	71000d3f 	cmp	w9, #0x3
    3eec:	540006a0 	b.eq	3fc0 <std::__1::__unicode::__code_point_view<char>::__consume[abi:nn190104]()+0x150>  // b.none
    3ef0:	7100113f 	cmp	w9, #0x4
    3ef4:	54000b01 	b.ne	4054 <std::__1::__unicode::__code_point_view<char>::__consume[abi:nn190104]()+0x1e4>  // b.any
    3ef8:	f9400409 	ldr	x9, [x0, #8]
    3efc:	cb080129 	sub	x9, x9, x8
    3f00:	f100113f 	cmp	x9, #0x4
    3f04:	54000a8b 	b.lt	4054 <std::__1::__unicode::__code_point_view<char>::__consume[abi:nn190104]()+0x1e4>  // b.tstop
    3f08:	aa0803e9 	mov	x9, x8
    3f0c:	38401d2a 	ldrb	w10, [x9, #1]!
    3f10:	121a054a 	and	w10, w10, #0xc0
    3f14:	7102015f 	cmp	w10, #0x80
    3f18:	1a9f17ea 	cset	w10, eq	// eq = none
    3f1c:	54000141 	b.ne	3f44 <std::__1::__unicode::__code_point_view<char>::__consume[abi:nn190104]()+0xd4>  // b.any
    3f20:	3940090a 	ldrb	w10, [x8, #2]
    3f24:	121a054a 	and	w10, w10, #0xc0
    3f28:	7102015f 	cmp	w10, #0x80
    3f2c:	1a9f17ea 	cset	w10, eq	// eq = none
    3f30:	540000a1 	b.ne	3f44 <std::__1::__unicode::__code_point_view<char>::__consume[abi:nn190104]()+0xd4>  // b.any
    3f34:	39400d0a 	ldrb	w10, [x8, #3]
    3f38:	121a054a 	and	w10, w10, #0xc0
    3f3c:	7102015f 	cmp	w10, #0x80
    3f40:	1a9f17ea 	cset	w10, eq	// eq = none
    3f44:	3400088a 	cbz	w10, 4054 <std::__1::__unicode::__code_point_view<char>::__consume[abi:nn190104]()+0x1e4>
    3f48:	f9000009 	str	x9, [x0]
    3f4c:	9100090a 	add	x10, x8, #0x2
    3f50:	9100110c 	add	x12, x8, #0x4
    3f54:	39400109 	ldrb	w9, [x8]
    3f58:	f900000a 	str	x10, [x0]
    3f5c:	3940050a 	ldrb	w10, [x8, #1]
    3f60:	12000929 	and	w9, w9, #0x7
    3f64:	53144d29 	lsl	w9, w9, #12
    3f68:	331a1549 	bfi	w9, w10, #6, #6
    3f6c:	91000d0a 	add	x10, x8, #0x3
    3f70:	f900000a 	str	x10, [x0]
    3f74:	3940090b 	ldrb	w11, [x8, #2]
    3f78:	529fffa8 	mov	w8, #0xfffd                	// #65533
    3f7c:	7110013f 	cmp	w9, #0x400
    3f80:	72b00008 	movk	w8, #0x8000, lsl #16
    3f84:	f900000c 	str	x12, [x0]
    3f88:	540006e3 	b.cc	4064 <std::__1::__unicode::__code_point_view<char>::__consume[abi:nn190104]()+0x1f4>  // b.lo, b.ul, b.last
    3f8c:	3940014a 	ldrb	w10, [x10]
    3f90:	1200156b 	and	w11, w11, #0x3f
    3f94:	2a0b012b 	orr	w11, w9, w11
    3f98:	530a7d29 	lsr	w9, w9, #10
    3f9c:	1200154a 	and	w10, w10, #0x3f
    3fa0:	2a0b194a 	orr	w10, w10, w11, lsl #6
    3fa4:	7100453f 	cmp	w9, #0x11
    3fa8:	1a883140 	csel	w0, w10, w8, cc	// cc = lo, ul, last
    3fac:	d65f03c0 	ret
    3fb0:	91000509 	add	x9, x8, #0x1
    3fb4:	f9000009 	str	x9, [x0]
    3fb8:	39400100 	ldrb	w0, [x8]
    3fbc:	d65f03c0 	ret
    3fc0:	f9400409 	ldr	x9, [x0, #8]
    3fc4:	cb080129 	sub	x9, x9, x8
    3fc8:	f1000d3f 	cmp	x9, #0x3
    3fcc:	5400044b 	b.lt	4054 <std::__1::__unicode::__code_point_view<char>::__consume[abi:nn190104]()+0x1e4>  // b.tstop
    3fd0:	aa0803e9 	mov	x9, x8
    3fd4:	38401d2a 	ldrb	w10, [x9, #1]!
    3fd8:	121a054a 	and	w10, w10, #0xc0
    3fdc:	7102015f 	cmp	w10, #0x80
    3fe0:	1a9f17ea 	cset	w10, eq	// eq = none
    3fe4:	540000a1 	b.ne	3ff8 <std::__1::__unicode::__code_point_view<char>::__consume[abi:nn190104]()+0x188>  // b.any
    3fe8:	3940090a 	ldrb	w10, [x8, #2]
    3fec:	121a054a 	and	w10, w10, #0xc0
    3ff0:	7102015f 	cmp	w10, #0x80
    3ff4:	1a9f17ea 	cset	w10, eq	// eq = none
    3ff8:	340002ea 	cbz	w10, 4054 <std::__1::__unicode::__code_point_view<char>::__consume[abi:nn190104]()+0x1e4>
    3ffc:	f9000009 	str	x9, [x0]
    4000:	9100090a 	add	x10, x8, #0x2
    4004:	39400109 	ldrb	w9, [x8]
    4008:	f900000a 	str	x10, [x0]
    400c:	3940050b 	ldrb	w11, [x8, #1]
    4010:	12000d29 	and	w9, w9, #0xf
    4014:	53144d29 	lsl	w9, w9, #12
    4018:	331a1569 	bfi	w9, w11, #6, #6
    401c:	91000d0b 	add	x11, x8, #0x3
    4020:	529fffa8 	mov	w8, #0xfffd                	// #65533
    4024:	72b00008 	movk	w8, #0x8000, lsl #16
    4028:	f900000b 	str	x11, [x0]
    402c:	7120013f 	cmp	w9, #0x800
    4030:	540001a3 	b.cc	4064 <std::__1::__unicode::__code_point_view<char>::__consume[abi:nn190104]()+0x1f4>  // b.lo, b.ul, b.last
    4034:	3940014a 	ldrb	w10, [x10]
    4038:	1215112b 	and	w11, w9, #0xf800
    403c:	529b000c 	mov	w12, #0xd800                	// #55296
    4040:	6b0c017f 	cmp	w11, w12
    4044:	1200154a 	and	w10, w10, #0x3f
    4048:	2a0a0129 	orr	w9, w9, w10
    404c:	1a890100 	csel	w0, w8, w9, eq	// eq = none
    4050:	d65f03c0 	ret
    4054:	91000509 	add	x9, x8, #0x1
    4058:	529fffa8 	mov	w8, #0xfffd                	// #65533
    405c:	72b00008 	movk	w8, #0x8000, lsl #16
    4060:	f9000009 	str	x9, [x0]
    4064:	2a0803e0 	mov	w0, w8
    4068:	d65f03c0 	ret
    406c:	529fffa0 	mov	w0, #0xfffd                	// #65533
    4070:	72b00000 	movk	w0, #0x8000, lsl #16
    4074:	d65f03c0 	ret

0000000000004078 <std::__1::__format_spec::__throw_invalid_type_format_error[abi:nn190104](char const*)>:
    4078:	d101c3ff 	sub	sp, sp, #0x70
    407c:	a9057bfd 	stp	x29, x30, [sp, #80]
    4080:	f90033f3 	str	x19, [sp, #96]
    4084:	910143fd 	add	x29, sp, #0x50
    4088:	aa0003f3 	mov	x19, x0
    408c:	d0000041 	adrp	x1, e000 <_IO_stdin_used+0x4b0>
    4090:	91094421 	add	x1, x1, #0x251
    4094:	910023e0 	add	x0, sp, #0x8
    4098:	9400007c 	bl	4288 <_ZNSt3__112basic_stringIcNS_11char_traitsIcEENS_9allocatorIcEEEC2B8nn190104ILi0EEEPKc>
    409c:	910083e8 	add	x8, sp, #0x20
    40a0:	910023e0 	add	x0, sp, #0x8
    40a4:	aa1303e1 	mov	x1, x19
    40a8:	9400006a 	bl	4250 <std::__1::basic_string<char, std::__1::char_traits<char>, std::__1::allocator<char> > std::__1::operator+[abi:nn190104]<char, std::__1::char_traits<char>, std::__1::allocator<char> >(std::__1::basic_string<char, std::__1::char_traits<char>, std::__1::allocator<char> >&&, char const*)>
    40ac:	d0000041 	adrp	x1, e000 <_IO_stdin_used+0x4b0>
    40b0:	9110a021 	add	x1, x1, #0x428
    40b4:	d10063a8 	sub	x8, x29, #0x18
    40b8:	910083e0 	add	x0, sp, #0x20
    40bc:	d10063b3 	sub	x19, x29, #0x18
    40c0:	94000064 	bl	4250 <std::__1::basic_string<char, std::__1::char_traits<char>, std::__1::allocator<char> > std::__1::operator+[abi:nn190104]<char, std::__1::char_traits<char>, std::__1::allocator<char> >(std::__1::basic_string<char, std::__1::char_traits<char>, std::__1::allocator<char> >&&, char const*)>
    40c4:	385e83a8 	ldurb	w8, [x29, #-24]
    40c8:	f85f83a9 	ldur	x9, [x29, #-8]
    40cc:	7200011f 	tst	w8, #0x1
    40d0:	9a931520 	csinc	x0, x9, x19, ne	// ne = any
    40d4:	97fffadf 	bl	2c50 <std::__1::__throw_format_error[abi:nn190104](char const*)>

00000000000040d8 <std::__1::__format_spec::__parser<char>::__validate[abi:nn190104](std::__1::__format_spec::__fields[abi:nn190104], char const*, unsigned int) const>:
    40d8:	a9bf7bfd 	stp	x29, x30, [sp, #-16]!
    40dc:	910003fd 	mov	x29, sp
    40e0:	37000081 	tbnz	w1, #0, 40f0 <std::__1::__format_spec::__parser<char>::__validate[abi:nn190104](std::__1::__format_spec::__fields[abi:nn190104], char const*, unsigned int) const+0x18>
    40e4:	39400008 	ldrb	w8, [x0]
    40e8:	721d051f 	tst	w8, #0x18
    40ec:	540004e1 	b.ne	4188 <std::__1::__format_spec::__parser<char>::__validate[abi:nn190104](std::__1::__format_spec::__fields[abi:nn190104], char const*, unsigned int) const+0xb0>  // b.any
    40f0:	12003c28 	and	w8, w1, #0xffff
    40f4:	37080068 	tbnz	w8, #1, 4100 <std::__1::__format_spec::__parser<char>::__validate[abi:nn190104](std::__1::__format_spec::__fields[abi:nn190104], char const*, unsigned int) const+0x28>
    40f8:	39400009 	ldrb	w9, [x0]
    40fc:	372804e9 	tbnz	w9, #5, 4198 <std::__1::__format_spec::__parser<char>::__validate[abi:nn190104](std::__1::__format_spec::__fields[abi:nn190104], char const*, unsigned int) const+0xc0>
    4100:	371000a8 	tbnz	w8, #2, 4114 <std::__1::__format_spec::__parser<char>::__validate[abi:nn190104](std::__1::__format_spec::__fields[abi:nn190104], char const*, unsigned int) const+0x3c>
    4104:	39400009 	ldrb	w9, [x0]
    4108:	12000929 	and	w9, w9, #0x7
    410c:	7100113f 	cmp	w9, #0x4
    4110:	540004c0 	b.eq	41a8 <std::__1::__format_spec::__parser<char>::__validate[abi:nn190104](std::__1::__format_spec::__fields[abi:nn190104], char const*, unsigned int) const+0xd0>  // b.none
    4114:	37180088 	tbnz	w8, #3, 4124 <std::__1::__format_spec::__parser<char>::__validate[abi:nn190104](std::__1::__format_spec::__fields[abi:nn190104], char const*, unsigned int) const+0x4c>
    4118:	b9400809 	ldr	w9, [x0, #8]
    411c:	3100053f 	cmn	w9, #0x1
    4120:	54000261 	b.ne	416c <std::__1::__format_spec::__parser<char>::__validate[abi:nn190104](std::__1::__format_spec::__fields[abi:nn190104], char const*, unsigned int) const+0x94>  // b.any
    4124:	37200068 	tbnz	w8, #4, 4130 <std::__1::__format_spec::__parser<char>::__validate[abi:nn190104](std::__1::__format_spec::__fields[abi:nn190104], char const*, unsigned int) const+0x58>
    4128:	39400008 	ldrb	w8, [x0]
    412c:	37300468 	tbnz	w8, #6, 41b8 <std::__1::__format_spec::__parser<char>::__validate[abi:nn190104](std::__1::__format_spec::__fields[abi:nn190104], char const*, unsigned int) const+0xe0>
    4130:	39400408 	ldrb	w8, [x0, #1]
    4134:	34000128 	cbz	w8, 4158 <std::__1::__format_spec::__parser<char>::__validate[abi:nn190104](std::__1::__format_spec::__fields[abi:nn190104], char const*, unsigned int) const+0x80>
    4138:	7100811f 	cmp	w8, #0x20
    413c:	54000202 	b.cs	417c <std::__1::__format_spec::__parser<char>::__validate[abi:nn190104](std::__1::__format_spec::__fields[abi:nn190104], char const*, unsigned int) const+0xa4>  // b.hs, b.nlast
    4140:	52800029 	mov	w9, #0x1                   	// #1
    4144:	1ac82128 	lsl	w8, w9, w8
    4148:	6a03011f 	tst	w8, w3
    414c:	540000c0 	b.eq	4164 <std::__1::__format_spec::__parser<char>::__validate[abi:nn190104](std::__1::__format_spec::__fields[abi:nn190104], char const*, unsigned int) const+0x8c>  // b.none
    4150:	a8c17bfd 	ldp	x29, x30, [sp], #16
    4154:	d65f03c0 	ret
    4158:	52800028 	mov	w8, #0x1                   	// #1
    415c:	6a03011f 	tst	w8, w3
    4160:	54ffff81 	b.ne	4150 <std::__1::__format_spec::__parser<char>::__validate[abi:nn190104](std::__1::__format_spec::__fields[abi:nn190104], char const*, unsigned int) const+0x78>  // b.any
    4164:	aa0203e0 	mov	x0, x2
    4168:	97ffffc4 	bl	4078 <std::__1::__format_spec::__throw_invalid_type_format_error[abi:nn190104](char const*)>
    416c:	d0000041 	adrp	x1, e000 <_IO_stdin_used+0x4b0>
    4170:	9105d421 	add	x1, x1, #0x175
    4174:	aa0203e0 	mov	x0, x2
    4178:	94000014 	bl	41c8 <std::__1::__format_spec::__throw_invalid_option_format_error[abi:nn190104](char const*, char const*)>
    417c:	d0000040 	adrp	x0, e000 <_IO_stdin_used+0x4b0>
    4180:	9108bc00 	add	x0, x0, #0x22f
    4184:	97fffab3 	bl	2c50 <std::__1::__throw_format_error[abi:nn190104](char const*)>
    4188:	d0000041 	adrp	x1, e000 <_IO_stdin_used+0x4b0>
    418c:	91070821 	add	x1, x1, #0x1c2
    4190:	aa0203e0 	mov	x0, x2
    4194:	9400000d 	bl	41c8 <std::__1::__format_spec::__throw_invalid_option_format_error[abi:nn190104](char const*, char const*)>
    4198:	d0000041 	adrp	x1, e000 <_IO_stdin_used+0x4b0>
    419c:	91071c21 	add	x1, x1, #0x1c7
    41a0:	aa0203e0 	mov	x0, x2
    41a4:	94000009 	bl	41c8 <std::__1::__format_spec::__throw_invalid_option_format_error[abi:nn190104](char const*, char const*)>
    41a8:	d0000041 	adrp	x1, e000 <_IO_stdin_used+0x4b0>
    41ac:	91075821 	add	x1, x1, #0x1d6
    41b0:	aa0203e0 	mov	x0, x2
    41b4:	94000005 	bl	41c8 <std::__1::__format_spec::__throw_invalid_option_format_error[abi:nn190104](char const*, char const*)>
    41b8:	d0000041 	adrp	x1, e000 <_IO_stdin_used+0x4b0>
    41bc:	91078c21 	add	x1, x1, #0x1e3
    41c0:	aa0203e0 	mov	x0, x2
    41c4:	94000001 	bl	41c8 <std::__1::__format_spec::__throw_invalid_option_format_error[abi:nn190104](char const*, char const*)>

00000000000041c8 <std::__1::__format_spec::__throw_invalid_option_format_error[abi:nn190104](char const*, char const*)>:
    41c8:	d10283ff 	sub	sp, sp, #0xa0
    41cc:	a9087bfd 	stp	x29, x30, [sp, #128]
    41d0:	a9094ff4 	stp	x20, x19, [sp, #144]
    41d4:	910203fd 	add	x29, sp, #0x80
    41d8:	aa0103f3 	mov	x19, x1
    41dc:	aa0003f4 	mov	x20, x0
    41e0:	d0000041 	adrp	x1, e000 <_IO_stdin_used+0x4b0>
    41e4:	9107e021 	add	x1, x1, #0x1f8
    41e8:	910023e0 	add	x0, sp, #0x8
    41ec:	94000027 	bl	4288 <_ZNSt3__112basic_stringIcNS_11char_traitsIcEENS_9allocatorIcEEEC2B8nn190104ILi0EEEPKc>
    41f0:	910083e8 	add	x8, sp, #0x20
    41f4:	910023e0 	add	x0, sp, #0x8
    41f8:	aa1403e1 	mov	x1, x20
    41fc:	94000015 	bl	4250 <std::__1::basic_string<char, std::__1::char_traits<char>, std::__1::allocator<char> > std::__1::operator+[abi:nn190104]<char, std::__1::char_traits<char>, std::__1::allocator<char> >(std::__1::basic_string<char, std::__1::char_traits<char>, std::__1::allocator<char> >&&, char const*)>
    4200:	d0000041 	adrp	x1, e000 <_IO_stdin_used+0x4b0>
    4204:	91084821 	add	x1, x1, #0x212
    4208:	9100e3e8 	add	x8, sp, #0x38
    420c:	910083e0 	add	x0, sp, #0x20
    4210:	94000010 	bl	4250 <std::__1::basic_string<char, std::__1::char_traits<char>, std::__1::allocator<char> > std::__1::operator+[abi:nn190104]<char, std::__1::char_traits<char>, std::__1::allocator<char> >(std::__1::basic_string<char, std::__1::char_traits<char>, std::__1::allocator<char> >&&, char const*)>
    4214:	d100c3a8 	sub	x8, x29, #0x30
    4218:	9100e3e0 	add	x0, sp, #0x38
    421c:	aa1303e1 	mov	x1, x19
    4220:	9400000c 	bl	4250 <std::__1::basic_string<char, std::__1::char_traits<char>, std::__1::allocator<char> > std::__1::operator+[abi:nn190104]<char, std::__1::char_traits<char>, std::__1::allocator<char> >(std::__1::basic_string<char, std::__1::char_traits<char>, std::__1::allocator<char> >&&, char const*)>
    4224:	d0000041 	adrp	x1, e000 <_IO_stdin_used+0x4b0>
    4228:	91089c21 	add	x1, x1, #0x227
    422c:	d10063a8 	sub	x8, x29, #0x18
    4230:	d100c3a0 	sub	x0, x29, #0x30
    4234:	d10063b3 	sub	x19, x29, #0x18
    4238:	94000006 	bl	4250 <std::__1::basic_string<char, std::__1::char_traits<char>, std::__1::allocator<char> > std::__1::operator+[abi:nn190104]<char, std::__1::char_traits<char>, std::__1::allocator<char> >(std::__1::basic_string<char, std::__1::char_traits<char>, std::__1::allocator<char> >&&, char const*)>
    423c:	385e83a8 	ldurb	w8, [x29, #-24]
    4240:	f85f83a9 	ldur	x9, [x29, #-8]
    4244:	7200011f 	tst	w8, #0x1
    4248:	9a931520 	csinc	x0, x9, x19, ne	// ne = any
    424c:	97fffa81 	bl	2c50 <std::__1::__throw_format_error[abi:nn190104](char const*)>

0000000000004250 <std::__1::basic_string<char, std::__1::char_traits<char>, std::__1::allocator<char> > std::__1::operator+[abi:nn190104]<char, std::__1::char_traits<char>, std::__1::allocator<char> >(std::__1::basic_string<char, std::__1::char_traits<char>, std::__1::allocator<char> >&&, char const*)>:
    4250:	a9be7bfd 	stp	x29, x30, [sp, #-32]!
    4254:	f9000bf3 	str	x19, [sp, #16]
    4258:	910003fd 	mov	x29, sp
    425c:	aa0803f3 	mov	x19, x8
    4260:	97fff688 	bl	1c80 <std::__1::basic_string<char, std::__1::char_traits<char>, std::__1::allocator<char> >::append(char const*)@plt>
    4264:	3dc00000 	ldr	q0, [x0]
    4268:	f9400808 	ldr	x8, [x0, #16]
    426c:	a9007c1f 	stp	xzr, xzr, [x0]
    4270:	3d800260 	str	q0, [x19]
    4274:	f9000a68 	str	x8, [x19, #16]
    4278:	f900081f 	str	xzr, [x0, #16]
    427c:	f9400bf3 	ldr	x19, [sp, #16]
    4280:	a8c27bfd 	ldp	x29, x30, [sp], #32
    4284:	d65f03c0 	ret

0000000000004288 <_ZNSt3__112basic_stringIcNS_11char_traitsIcEENS_9allocatorIcEEEC2B8nn190104ILi0EEEPKc>:
    4288:	a9bd7bfd 	stp	x29, x30, [sp, #-48]!
    428c:	a90157f6 	stp	x22, x21, [sp, #16]
    4290:	a9024ff4 	stp	x20, x19, [sp, #32]
    4294:	910003fd 	mov	x29, sp
    4298:	aa0003f3 	mov	x19, x0
    429c:	aa0103e0 	mov	x0, x1
    42a0:	aa0103f5 	mov	x21, x1
    42a4:	97fff68f 	bl	1ce0 <strlen@plt>
    42a8:	b100201f 	cmn	x0, #0x8
    42ac:	54000362 	b.cs	4318 <_ZNSt3__112basic_stringIcNS_11char_traitsIcEENS_9allocatorIcEEEC2B8nn190104ILi0EEEPKc+0x90>  // b.hs, b.nlast
    42b0:	aa0003f4 	mov	x20, x0
    42b4:	f1005c1f 	cmp	x0, #0x17
    42b8:	540000a2 	b.cs	42cc <_ZNSt3__112basic_stringIcNS_11char_traitsIcEENS_9allocatorIcEEEC2B8nn190104ILi0EEEPKc+0x44>  // b.hs, b.nlast
    42bc:	531f7a88 	lsl	w8, w20, #1
    42c0:	38001668 	strb	w8, [x19], #1
    42c4:	b5000194 	cbnz	x20, 42f4 <_ZNSt3__112basic_stringIcNS_11char_traitsIcEENS_9allocatorIcEEEC2B8nn190104ILi0EEEPKc+0x6c>
    42c8:	1400000f 	b	4304 <_ZNSt3__112basic_stringIcNS_11char_traitsIcEENS_9allocatorIcEEEC2B8nn190104ILi0EEEPKc+0x7c>
    42cc:	b2400a88 	orr	x8, x20, #0x7
    42d0:	52800349 	mov	w9, #0x1a                  	// #26
    42d4:	f1005d1f 	cmp	x8, #0x17
    42d8:	9a880536 	csinc	x22, x9, x8, eq	// eq = none
    42dc:	aa1603e0 	mov	x0, x22
    42e0:	97fff5cc 	bl	1a10 <operator new(unsigned long)@plt>
    42e4:	b24002c8 	orr	x8, x22, #0x1
    42e8:	a9008274 	stp	x20, x0, [x19, #8]
    42ec:	f9000268 	str	x8, [x19]
    42f0:	aa0003f3 	mov	x19, x0
    42f4:	aa1303e0 	mov	x0, x19
    42f8:	aa1503e1 	mov	x1, x21
    42fc:	aa1403e2 	mov	x2, x20
    4300:	97fff66c 	bl	1cb0 <memmove@plt>
    4304:	38346a7f 	strb	wzr, [x19, x20]
    4308:	a9424ff4 	ldp	x20, x19, [sp, #32]
    430c:	a94157f6 	ldp	x22, x21, [sp, #16]
    4310:	a8c37bfd 	ldp	x29, x30, [sp], #48
    4314:	d65f03c0 	ret
    4318:	aa1303e0 	mov	x0, x19
    431c:	97fffa42 	bl	2c24 <std::__1::basic_string<char, std::__1::char_traits<char>, std::__1::allocator<char> >::__throw_length_error[abi:nn190104]() const>

0000000000004320 <std::__1::basic_format_context<std::__1::back_insert_iterator<std::__1::__format::__output_buffer<char> >, char>::iterator std::__1::__formatter::__format_bool[abi:nn190104]<char, std::__1::basic_format_context<std::__1::back_insert_iterator<std::__1::__format::__output_buffer<char> >, char> >(bool, std::__1::basic_format_context<std::__1::back_insert_iterator<std::__1::__format::__output_buffer<char> >, char>&, std::__1::__format_spec::__parsed_specifications<char>)>:
    4320:	d10183ff 	sub	sp, sp, #0x60
    4324:	a9027bfd 	stp	x29, x30, [sp, #32]
    4328:	a9035ff8 	stp	x24, x23, [sp, #48]
    432c:	a90457f6 	stp	x22, x21, [sp, #64]
    4330:	a9054ff4 	stp	x20, x19, [sp, #80]
    4334:	910083fd 	add	x29, sp, #0x20
    4338:	aa0303f3 	mov	x19, x3
    433c:	aa0203f4 	mov	x20, x2
    4340:	aa0103f5 	mov	x21, x1
    4344:	2a0003f6 	mov	w22, w0
    4348:	37300274 	tbnz	w20, #6, 4394 <std::__1::basic_format_context<std::__1::back_insert_iterator<std::__1::__format::__output_buffer<char> >, char>::iterator std::__1::__formatter::__format_bool[abi:nn190104]<char, std::__1::basic_format_context<std::__1::back_insert_iterator<std::__1::__format::__output_buffer<char> >, char> >(bool, std::__1::basic_format_context<std::__1::back_insert_iterator<std::__1::__format::__output_buffer<char> >, char>&, std::__1::__format_spec::__parsed_specifications<char>)+0x74>
    434c:	720002df 	tst	w22, #0x1
    4350:	52800088 	mov	w8, #0x4                   	// #4
    4354:	f94002a2 	ldr	x2, [x21]
    4358:	d0000049 	adrp	x9, e000 <_IO_stdin_used+0x4b0>
    435c:	910a1529 	add	x9, x9, #0x285
    4360:	9a881501 	cinc	x1, x8, eq	// eq = none
    4364:	d0000048 	adrp	x8, e000 <_IO_stdin_used+0x4b0>
    4368:	910a0108 	add	x8, x8, #0x280
    436c:	aa1403e3 	mov	x3, x20
    4370:	9a891100 	csel	x0, x8, x9, ne	// ne = any
    4374:	aa1303e4 	mov	x4, x19
    4378:	aa0103e5 	mov	x5, x1
    437c:	a9454ff4 	ldp	x20, x19, [sp, #80]
    4380:	a94457f6 	ldp	x22, x21, [sp, #64]
    4384:	a9435ff8 	ldp	x24, x23, [sp, #48]
    4388:	a9427bfd 	ldp	x29, x30, [sp, #32]
    438c:	910183ff 	add	sp, sp, #0x60
    4390:	14000160 	b	4910 <_ZNSt3__111__formatter7__writeB8nn190104IccTkNS_15output_iteratorIRKT_EENS_20back_insert_iteratorINS_8__format15__output_bufferIcEEEEEEDtfp0_ENS_17basic_string_viewIS3_NS_11char_traitsIS3_EEEET1_NS_13__format_spec23__parsed_specificationsIT0_EEl>
    4394:	3940a2a8 	ldrb	w8, [x21, #40]
    4398:	370001e8 	tbnz	w8, #0, 43d4 <std::__1::basic_format_context<std::__1::back_insert_iterator<std::__1::__format::__output_buffer<char> >, char>::iterator std::__1::__formatter::__format_bool[abi:nn190104]<char, std::__1::basic_format_context<std::__1::back_insert_iterator<std::__1::__format::__output_buffer<char> >, char> >(bool, std::__1::basic_format_context<std::__1::back_insert_iterator<std::__1::__format::__output_buffer<char> >, char>&, std::__1::__format_spec::__parsed_specifications<char>)+0xb4>
    439c:	910023e0 	add	x0, sp, #0x8
    43a0:	97fff598 	bl	1a00 <std::__1::locale::locale()@plt>
    43a4:	3940a2a8 	ldrb	w8, [x21, #40]
    43a8:	910082a0 	add	x0, x21, #0x20
    43ac:	910023e1 	add	x1, sp, #0x8
    43b0:	7100051f 	cmp	w8, #0x1
    43b4:	54000061 	b.ne	43c0 <std::__1::basic_format_context<std::__1::back_insert_iterator<std::__1::__format::__output_buffer<char> >, char>::iterator std::__1::__formatter::__format_bool[abi:nn190104]<char, std::__1::basic_format_context<std::__1::back_insert_iterator<std::__1::__format::__output_buffer<char> >, char> >(bool, std::__1::basic_format_context<std::__1::back_insert_iterator<std::__1::__format::__output_buffer<char> >, char>&, std::__1::__format_spec::__parsed_specifications<char>)+0xa0>  // b.any
    43b8:	97fff5c6 	bl	1ad0 <std::__1::locale::operator=(std::__1::locale const&)@plt>
    43bc:	14000004 	b	43cc <std::__1::basic_format_context<std::__1::back_insert_iterator<std::__1::__format::__output_buffer<char> >, char>::iterator std::__1::__formatter::__format_bool[abi:nn190104]<char, std::__1::basic_format_context<std::__1::back_insert_iterator<std::__1::__format::__output_buffer<char> >, char> >(bool, std::__1::basic_format_context<std::__1::back_insert_iterator<std::__1::__format::__output_buffer<char> >, char>&, std::__1::__format_spec::__parsed_specifications<char>)+0xac>
    43c0:	97fff600 	bl	1bc0 <std::__1::locale::locale(std::__1::locale const&)@plt>
    43c4:	52800028 	mov	w8, #0x1                   	// #1
    43c8:	3900a2a8 	strb	w8, [x21, #40]
    43cc:	910023e0 	add	x0, sp, #0x8
    43d0:	97fff618 	bl	1c30 <std::__1::locale::~locale()@plt>
    43d4:	910023e0 	add	x0, sp, #0x8
    43d8:	910082a1 	add	x1, x21, #0x20
    43dc:	910023f8 	add	x24, sp, #0x8
    43e0:	97fff5f8 	bl	1bc0 <std::__1::locale::locale(std::__1::locale const&)@plt>
    43e4:	f0000141 	adrp	x1, 2f000 <__FRAME_END__+0x1c6fc>
    43e8:	910023e0 	add	x0, sp, #0x8
    43ec:	f947c421 	ldr	x1, [x1, #3976]
    43f0:	97fff604 	bl	1c00 <std::__1::locale::use_facet(std::__1::locale::id&) const@plt>
    43f4:	aa0003f7 	mov	x23, x0
    43f8:	910023e0 	add	x0, sp, #0x8
    43fc:	97fff60d 	bl	1c30 <std::__1::locale::~locale()@plt>
    4400:	f94002e8 	ldr	x8, [x23]
    4404:	720002df 	tst	w22, #0x1
    4408:	52800709 	mov	w9, #0x38                  	// #56
    440c:	5280060a 	mov	w10, #0x30                  	// #48
    4410:	aa1703e0 	mov	x0, x23
    4414:	9a891149 	csel	x9, x10, x9, ne	// ne = any
    4418:	f8696909 	ldr	x9, [x8, x9]
    441c:	910023e8 	add	x8, sp, #0x8
    4420:	d63f0120 	blr	x9
    4424:	394023e8 	ldrb	w8, [sp, #8]
    4428:	a94127ea 	ldp	x10, x9, [sp, #16]
    442c:	d360fe85 	lsr	x5, x20, #32
    4430:	f94002a2 	ldr	x2, [x21]
    4434:	7200011f 	tst	w8, #0x1
    4438:	d341fd08 	lsr	x8, x8, #1
    443c:	9a981520 	csinc	x0, x9, x24, ne	// ne = any
    4440:	9a8a0101 	csel	x1, x8, x10, eq	// eq = none
    4444:	710000bf 	cmp	w5, #0x0
    4448:	540002ed 	b.le	44a4 <std::__1::basic_format_context<std::__1::back_insert_iterator<std::__1::__format::__output_buffer<char> >, char>::iterator std::__1::__formatter::__format_bool[abi:nn190104]<char, std::__1::basic_format_context<std::__1::back_insert_iterator<std::__1::__format::__output_buffer<char> >, char> >(bool, std::__1::basic_format_context<std::__1::back_insert_iterator<std::__1::__format::__output_buffer<char> >, char>&, std::__1::__format_spec::__parsed_specifications<char>)+0x184>
    444c:	b4000341 	cbz	x1, 44b4 <std::__1::basic_format_context<std::__1::back_insert_iterator<std::__1::__format::__output_buffer<char> >, char>::iterator std::__1::__formatter::__format_bool[abi:nn190104]<char, std::__1::basic_format_context<std::__1::back_insert_iterator<std::__1::__format::__output_buffer<char> >, char> >(bool, std::__1::basic_format_context<std::__1::back_insert_iterator<std::__1::__format::__output_buffer<char> >, char>&, std::__1::__format_spec::__parsed_specifications<char>)+0x194>
    4450:	39c00008 	ldrsb	w8, [x0]
    4454:	37f80348 	tbnz	w8, #31, 44bc <std::__1::basic_format_context<std::__1::back_insert_iterator<std::__1::__format::__output_buffer<char> >, char>::iterator std::__1::__formatter::__format_bool[abi:nn190104]<char, std::__1::basic_format_context<std::__1::back_insert_iterator<std::__1::__format::__output_buffer<char> >, char> >(bool, std::__1::basic_format_context<std::__1::back_insert_iterator<std::__1::__format::__output_buffer<char> >, char>&, std::__1::__format_spec::__parsed_specifications<char>)+0x19c>
    4458:	8b05000a 	add	x10, x0, x5
    445c:	aa1f03e9 	mov	x9, xzr
    4460:	d10004ab 	sub	x11, x5, #0x1
    4464:	d1000548 	sub	x8, x10, #0x1
    4468:	d100042c 	sub	x12, x1, #0x1
    446c:	eb09019f 	cmp	x12, x9
    4470:	54000460 	b.eq	44fc <std::__1::basic_format_context<std::__1::back_insert_iterator<std::__1::__format::__output_buffer<char> >, char>::iterator std::__1::__formatter::__format_bool[abi:nn190104]<char, std::__1::basic_format_context<std::__1::back_insert_iterator<std::__1::__format::__output_buffer<char> >, char> >(bool, std::__1::basic_format_context<std::__1::back_insert_iterator<std::__1::__format::__output_buffer<char> >, char>&, std::__1::__format_spec::__parsed_specifications<char>)+0x1dc>  // b.none
    4474:	eb09017f 	cmp	x11, x9
    4478:	54000460 	b.eq	4504 <std::__1::basic_format_context<std::__1::back_insert_iterator<std::__1::__format::__output_buffer<char> >, char>::iterator std::__1::__formatter::__format_bool[abi:nn190104]<char, std::__1::basic_format_context<std::__1::back_insert_iterator<std::__1::__format::__output_buffer<char> >, char> >(bool, std::__1::basic_format_context<std::__1::back_insert_iterator<std::__1::__format::__output_buffer<char> >, char>&, std::__1::__format_spec::__parsed_specifications<char>)+0x1e4>  // b.none
    447c:	8b09000d 	add	x13, x0, x9
    4480:	91000529 	add	x9, x9, #0x1
    4484:	39c005ad 	ldrsb	w13, [x13, #1]
    4488:	36ffff2d 	tbz	w13, #31, 446c <std::__1::basic_format_context<std::__1::back_insert_iterator<std::__1::__format::__output_buffer<char> >, char>::iterator std::__1::__formatter::__format_bool[abi:nn190104]<char, std::__1::basic_format_context<std::__1::back_insert_iterator<std::__1::__format::__output_buffer<char> >, char> >(bool, std::__1::basic_format_context<std::__1::back_insert_iterator<std::__1::__format::__output_buffer<char> >, char>&, std::__1::__format_spec::__parsed_specifications<char>)+0x14c>
    448c:	cb0900a8 	sub	x8, x5, x9
    4490:	8b090009 	add	x9, x0, x9
    4494:	aa0203f5 	mov	x21, x2
    4498:	91000505 	add	x5, x8, #0x1
    449c:	d1000528 	sub	x8, x9, #0x1
    44a0:	14000009 	b	44c4 <std::__1::basic_format_context<std::__1::back_insert_iterator<std::__1::__format::__output_buffer<char> >, char>::iterator std::__1::__formatter::__format_bool[abi:nn190104]<char, std::__1::basic_format_context<std::__1::back_insert_iterator<std::__1::__format::__output_buffer<char> >, char> >(bool, std::__1::basic_format_context<std::__1::back_insert_iterator<std::__1::__format::__output_buffer<char> >, char>&, std::__1::__format_spec::__parsed_specifications<char>)+0x1a4>
    44a4:	940000d6 	bl	47fc <_ZNSt3__111__formatter6__copyB8nn190104ITkNS_15__fmt_char_typeEcTkNS_15__fmt_char_typeEcTkNS_15output_iteratorIRKT0_EENS_20back_insert_iteratorINS_8__format15__output_bufferIcEEEEEEDtfp0_ENS_17basic_string_viewIT_NS_11char_traitsISD_EEEET1_>
    44a8:	394023e8 	ldrb	w8, [sp, #8]
    44ac:	370003a8 	tbnz	w8, #0, 4520 <std::__1::basic_format_context<std::__1::back_insert_iterator<std::__1::__format::__output_buffer<char> >, char>::iterator std::__1::__formatter::__format_bool[abi:nn190104]<char, std::__1::basic_format_context<std::__1::back_insert_iterator<std::__1::__format::__output_buffer<char> >, char> >(bool, std::__1::basic_format_context<std::__1::back_insert_iterator<std::__1::__format::__output_buffer<char> >, char>&, std::__1::__format_spec::__parsed_specifications<char>)+0x200>
    44b0:	14000023 	b	453c <std::__1::basic_format_context<std::__1::back_insert_iterator<std::__1::__format::__output_buffer<char> >, char>::iterator std::__1::__formatter::__format_bool[abi:nn190104]<char, std::__1::basic_format_context<std::__1::back_insert_iterator<std::__1::__format::__output_buffer<char> >, char> >(bool, std::__1::basic_format_context<std::__1::back_insert_iterator<std::__1::__format::__output_buffer<char> >, char>&, std::__1::__format_spec::__parsed_specifications<char>)+0x21c>
    44b4:	aa1f03e5 	mov	x5, xzr
    44b8:	14000015 	b	450c <std::__1::basic_format_context<std::__1::back_insert_iterator<std::__1::__format::__output_buffer<char> >, char>::iterator std::__1::__formatter::__format_bool[abi:nn190104]<char, std::__1::basic_format_context<std::__1::back_insert_iterator<std::__1::__format::__output_buffer<char> >, char> >(bool, std::__1::basic_format_context<std::__1::back_insert_iterator<std::__1::__format::__output_buffer<char> >, char>&, std::__1::__format_spec::__parsed_specifications<char>)+0x1ec>
    44bc:	aa0203f5 	mov	x21, x2
    44c0:	aa0003e8 	mov	x8, x0
    44c4:	cb000118 	sub	x24, x8, x0
    44c8:	aa0103f6 	mov	x22, x1
    44cc:	8b010001 	add	x1, x0, x1
    44d0:	aa0003f7 	mov	x23, x0
    44d4:	aa0803e0 	mov	x0, x8
    44d8:	aa0503e2 	mov	x2, x5
    44dc:	52800023 	mov	w3, #0x1                   	// #1
    44e0:	94000169 	bl	4a84 <_ZNSt3__113__format_spec8__detail43__estimate_column_width_grapheme_clusteringB8nn190104ITkNS_19contiguous_iteratorEPKcEENS0_21__column_width_resultIT_EES6_S6_mNS0_23__column_width_roundingE>
    44e4:	aa0003e8 	mov	x8, x0
    44e8:	aa1603e1 	mov	x1, x22
    44ec:	aa1703e0 	mov	x0, x23
    44f0:	8b080305 	add	x5, x24, x8
    44f4:	aa1503e2 	mov	x2, x21
    44f8:	14000005 	b	450c <std::__1::basic_format_context<std::__1::back_insert_iterator<std::__1::__format::__output_buffer<char> >, char>::iterator std::__1::__formatter::__format_bool[abi:nn190104]<char, std::__1::basic_format_context<std::__1::back_insert_iterator<std::__1::__format::__output_buffer<char> >, char> >(bool, std::__1::basic_format_context<std::__1::back_insert_iterator<std::__1::__format::__output_buffer<char> >, char>&, std::__1::__format_spec::__parsed_specifications<char>)+0x1ec>
    44fc:	aa0103e5 	mov	x5, x1
    4500:	14000003 	b	450c <std::__1::basic_format_context<std::__1::back_insert_iterator<std::__1::__format::__output_buffer<char> >, char>::iterator std::__1::__formatter::__format_bool[abi:nn190104]<char, std::__1::basic_format_context<std::__1::back_insert_iterator<std::__1::__format::__output_buffer<char> >, char> >(bool, std::__1::basic_format_context<std::__1::back_insert_iterator<std::__1::__format::__output_buffer<char> >, char>&, std::__1::__format_spec::__parsed_specifications<char>)+0x1ec>
    4504:	39c00149 	ldrsb	w9, [x10]
    4508:	37f80269 	tbnz	w9, #31, 4554 <std::__1::basic_format_context<std::__1::back_insert_iterator<std::__1::__format::__output_buffer<char> >, char>::iterator std::__1::__formatter::__format_bool[abi:nn190104]<char, std::__1::basic_format_context<std::__1::back_insert_iterator<std::__1::__format::__output_buffer<char> >, char> >(bool, std::__1::basic_format_context<std::__1::back_insert_iterator<std::__1::__format::__output_buffer<char> >, char>&, std::__1::__format_spec::__parsed_specifications<char>)+0x234>
    450c:	aa1403e3 	mov	x3, x20
    4510:	aa1303e4 	mov	x4, x19
    4514:	940000ff 	bl	4910 <_ZNSt3__111__formatter7__writeB8nn190104IccTkNS_15output_iteratorIRKT_EENS_20back_insert_iteratorINS_8__format15__output_bufferIcEEEEEEDtfp0_ENS_17basic_string_viewIS3_NS_11char_traitsIS3_EEEET1_NS_13__format_spec23__parsed_specificationsIT0_EEl>
    4518:	394023e8 	ldrb	w8, [sp, #8]
    451c:	36000108 	tbz	w8, #0, 453c <std::__1::basic_format_context<std::__1::back_insert_iterator<std::__1::__format::__output_buffer<char> >, char>::iterator std::__1::__formatter::__format_bool[abi:nn190104]<char, std::__1::basic_format_context<std::__1::back_insert_iterator<std::__1::__format::__output_buffer<char> >, char> >(bool, std::__1::basic_format_context<std::__1::back_insert_iterator<std::__1::__format::__output_buffer<char> >, char>&, std::__1::__format_spec::__parsed_specifications<char>)+0x21c>
    4520:	f9400fe8 	ldr	x8, [sp, #24]
    4524:	f94007e9 	ldr	x9, [sp, #8]
    4528:	aa0003f3 	mov	x19, x0
    452c:	927ff921 	and	x1, x9, #0xfffffffffffffffe
    4530:	aa0803e0 	mov	x0, x8
    4534:	97fff5e7 	bl	1cd0 <operator delete(void*, unsigned long)@plt>
    4538:	aa1303e0 	mov	x0, x19
    453c:	a9454ff4 	ldp	x20, x19, [sp, #80]
    4540:	a94457f6 	ldp	x22, x21, [sp, #64]
    4544:	a9435ff8 	ldp	x24, x23, [sp, #48]
    4548:	a9427bfd 	ldp	x29, x30, [sp, #32]
    454c:	910183ff 	add	sp, sp, #0x60
    4550:	d65f03c0 	ret
    4554:	aa0203f5 	mov	x21, x2
    4558:	52800025 	mov	w5, #0x1                   	// #1
    455c:	17ffffda 	b	44c4 <std::__1::basic_format_context<std::__1::back_insert_iterator<std::__1::__format::__output_buffer<char> >, char>::iterator std::__1::__formatter::__format_bool[abi:nn190104]<char, std::__1::basic_format_context<std::__1::back_insert_iterator<std::__1::__format::__output_buffer<char> >, char> >(bool, std::__1::basic_format_context<std::__1::back_insert_iterator<std::__1::__format::__output_buffer<char> >, char>&, std::__1::__format_spec::__parsed_specifications<char>)+0x1a4>

0000000000004560 <std::__1::__format_spec::__parsed_specifications<char> std::__1::__format_spec::__parser<char>::__get_parsed_std_specifications[abi:nn190104]<std::__1::basic_format_context<std::__1::back_insert_iterator<std::__1::__format::__output_buffer<char> >, char> >(std::__1::basic_format_context<std::__1::back_insert_iterator<std::__1::__format::__output_buffer<char> >, char>&) const>:
    4560:	d101c3ff 	sub	sp, sp, #0x70
    4564:	a9037bfd 	stp	x29, x30, [sp, #48]
    4568:	f90023f7 	str	x23, [sp, #64]
    456c:	a90557f6 	stp	x22, x21, [sp, #80]
    4570:	a9064ff4 	stp	x20, x19, [sp, #96]
    4574:	9100c3fd 	add	x29, sp, #0x30
    4578:	79400408 	ldrh	w8, [x0, #2]
    457c:	39400016 	ldrb	w22, [x0]
    4580:	aa0003f3 	mov	x19, x0
    4584:	39400417 	ldrb	w23, [x0, #1]
    4588:	b9400415 	ldr	w21, [x0, #4]
    458c:	aa0103f4 	mov	x20, x1
    4590:	36700468 	tbz	w8, #14, 461c <std::__1::__format_spec::__parsed_specifications<char> std::__1::__format_spec::__parser<char>::__get_parsed_std_specifications[abi:nn190104]<std::__1::basic_format_context<std::__1::back_insert_iterator<std::__1::__format::__output_buffer<char> >, char> >(std::__1::basic_format_context<std::__1::back_insert_iterator<std::__1::__format::__output_buffer<char> >, char>&) const+0xbc>
    4594:	93407ea8 	sxtw	x8, w21
    4598:	f9400689 	ldr	x9, [x20, #8]
    459c:	eb08013f 	cmp	x9, x8
    45a0:	54000149 	b.ls	45c8 <std::__1::__format_spec::__parsed_specifications<char> std::__1::__format_spec::__parser<char>::__get_parsed_std_specifications[abi:nn190104]<std::__1::basic_format_context<std::__1::back_insert_iterator<std::__1::__format::__output_buffer<char> >, char> >(std::__1::basic_format_context<std::__1::back_insert_iterator<std::__1::__format::__output_buffer<char> >, char>&) const+0x68>  // b.plast
    45a4:	f100313f 	cmp	x9, #0xc
    45a8:	54000148 	b.hi	45d0 <std::__1::__format_spec::__parsed_specifications<char> std::__1::__format_spec::__parser<char>::__get_parsed_std_specifications[abi:nn190104]<std::__1::basic_format_context<std::__1::back_insert_iterator<std::__1::__format::__output_buffer<char> >, char> >(std::__1::basic_format_context<std::__1::back_insert_iterator<std::__1::__format::__output_buffer<char> >, char>&) const+0x70>  // b.pmore
    45ac:	a9412a89 	ldp	x9, x10, [x20, #16]
    45b0:	8b08090b 	add	x11, x8, x8, lsl #2
    45b4:	8b081128 	add	x8, x9, x8, lsl #4
    45b8:	9acb254b 	lsr	x11, x10, x11
    45bc:	a940250a 	ldp	x10, x9, [x8]
    45c0:	12001168 	and	w8, w11, #0x1f
    45c4:	1400000b 	b	45f0 <std::__1::__format_spec::__parsed_specifications<char> std::__1::__format_spec::__parser<char>::__get_parsed_std_specifications[abi:nn190104]<std::__1::basic_format_context<std::__1::back_insert_iterator<std::__1::__format::__output_buffer<char> >, char> >(std::__1::basic_format_context<std::__1::back_insert_iterator<std::__1::__format::__output_buffer<char> >, char>&) const+0x90>
    45c8:	2a1f03e8 	mov	w8, wzr
    45cc:	14000009 	b	45f0 <std::__1::__format_spec::__parsed_specifications<char> std::__1::__format_spec::__parser<char>::__get_parsed_std_specifications[abi:nn190104]<std::__1::basic_format_context<std::__1::back_insert_iterator<std::__1::__format::__output_buffer<char> >, char> >(std::__1::basic_format_context<std::__1::back_insert_iterator<std::__1::__format::__output_buffer<char> >, char>&) const+0x90>
    45d0:	f9400a89 	ldr	x9, [x20, #16]
    45d4:	8b081528 	add	x8, x9, x8, lsl #5
    45d8:	a940250a 	ldp	x10, x9, [x8]
    45dc:	f841110b 	ldur	x11, [x8, #17]
    45e0:	f9400d0c 	ldr	x12, [x8, #24]
    45e4:	39404108 	ldrb	w8, [x8, #16]
    45e8:	f90003eb 	str	x11, [sp]
    45ec:	f80073ec 	stur	x12, [sp, #7]
    45f0:	a90127ea 	stp	x10, x9, [sp, #16]
    45f4:	f94003e9 	ldr	x9, [sp]
    45f8:	91007fa0 	add	x0, x29, #0x1f
    45fc:	390083e8 	strb	w8, [sp, #32]
    4600:	f84073e8 	ldur	x8, [sp, #7]
    4604:	910043e1 	add	x1, sp, #0x10
    4608:	f80213e9 	stur	x9, [sp, #33]
    460c:	f90017e8 	str	x8, [sp, #40]
    4610:	940002ff 	bl	520c <decltype(auto) std::__1::__visit_format_arg[abi:nn190104]<std::__1::__format_spec::__substitute_arg_id[abi:nn190104]<std::__1::basic_format_context<std::__1::back_insert_iterator<std::__1::__format::__output_buffer<char> >, char> >(std::__1::basic_format_arg<std::__1::basic_format_context<std::__1::back_insert_iterator<std::__1::__format::__output_buffer<char> >, char> >)::{lambda(auto:1)#1}, std::__1::basic_format_context<std::__1::back_insert_iterator<std::__1::__format::__output_buffer<char> >, char> >(std::__1::__format_spec::__substitute_arg_id[abi:nn190104]<std::__1::basic_format_context<std::__1::back_insert_iterator<std::__1::__format::__output_buffer<char> >, char> >(std::__1::basic_format_arg<std::__1::basic_format_context<std::__1::back_insert_iterator<std::__1::__format::__output_buffer<char> >, char> >)::{lambda(auto:1)#1}&&, std::__1::basic_format_arg<std::__1::basic_format_context<std::__1::back_insert_iterator<std::__1::__format::__output_buffer<char> >, char> >)>
    4614:	79400668 	ldrh	w8, [x19, #2]
    4618:	2a0003f5 	mov	w21, w0
    461c:	b9400a60 	ldr	w0, [x19, #8]
    4620:	36780428 	tbz	w8, #15, 46a4 <std::__1::__format_spec::__parsed_specifications<char> std::__1::__format_spec::__parser<char>::__get_parsed_std_specifications[abi:nn190104]<std::__1::basic_format_context<std::__1::back_insert_iterator<std::__1::__format::__output_buffer<char> >, char> >(std::__1::basic_format_context<std::__1::back_insert_iterator<std::__1::__format::__output_buffer<char> >, char>&) const+0x144>
    4624:	93407c08 	sxtw	x8, w0
    4628:	f9400689 	ldr	x9, [x20, #8]
    462c:	eb08013f 	cmp	x9, x8
    4630:	54000149 	b.ls	4658 <std::__1::__format_spec::__parsed_specifications<char> std::__1::__format_spec::__parser<char>::__get_parsed_std_specifications[abi:nn190104]<std::__1::basic_format_context<std::__1::back_insert_iterator<std::__1::__format::__output_buffer<char> >, char> >(std::__1::basic_format_context<std::__1::back_insert_iterator<std::__1::__format::__output_buffer<char> >, char>&) const+0xf8>  // b.plast
    4634:	f100313f 	cmp	x9, #0xc
    4638:	54000148 	b.hi	4660 <std::__1::__format_spec::__parsed_specifications<char> std::__1::__format_spec::__parser<char>::__get_parsed_std_specifications[abi:nn190104]<std::__1::basic_format_context<std::__1::back_insert_iterator<std::__1::__format::__output_buffer<char> >, char> >(std::__1::basic_format_context<std::__1::back_insert_iterator<std::__1::__format::__output_buffer<char> >, char>&) const+0x100>  // b.pmore
    463c:	a9412a89 	ldp	x9, x10, [x20, #16]
    4640:	8b08090b 	add	x11, x8, x8, lsl #2
    4644:	8b081128 	add	x8, x9, x8, lsl #4
    4648:	9acb254b 	lsr	x11, x10, x11
    464c:	a940250a 	ldp	x10, x9, [x8]
    4650:	12001168 	and	w8, w11, #0x1f
    4654:	1400000b 	b	4680 <std::__1::__format_spec::__parsed_specifications<char> std::__1::__format_spec::__parser<char>::__get_parsed_std_specifications[abi:nn190104]<std::__1::basic_format_context<std::__1::back_insert_iterator<std::__1::__format::__output_buffer<char> >, char> >(std::__1::basic_format_context<std::__1::back_insert_iterator<std::__1::__format::__output_buffer<char> >, char>&) const+0x120>
    4658:	2a1f03e8 	mov	w8, wzr
    465c:	14000009 	b	4680 <std::__1::__format_spec::__parsed_specifications<char> std::__1::__format_spec::__parser<char>::__get_parsed_std_specifications[abi:nn190104]<std::__1::basic_format_context<std::__1::back_insert_iterator<std::__1::__format::__output_buffer<char> >, char> >(std::__1::basic_format_context<std::__1::back_insert_iterator<std::__1::__format::__output_buffer<char> >, char>&) const+0x120>
    4660:	f9400a89 	ldr	x9, [x20, #16]
    4664:	8b081528 	add	x8, x9, x8, lsl #5
    4668:	a940250a 	ldp	x10, x9, [x8]
    466c:	f841110b 	ldur	x11, [x8, #17]
    4670:	f9400d0c 	ldr	x12, [x8, #24]
    4674:	39404108 	ldrb	w8, [x8, #16]
    4678:	f90003eb 	str	x11, [sp]
    467c:	f80073ec 	stur	x12, [sp, #7]
    4680:	a90127ea 	stp	x10, x9, [sp, #16]
    4684:	f94003e9 	ldr	x9, [sp]
    4688:	91007fa0 	add	x0, x29, #0x1f
    468c:	390083e8 	strb	w8, [sp, #32]
    4690:	f84073e8 	ldur	x8, [sp, #7]
    4694:	910043e1 	add	x1, sp, #0x10
    4698:	f80213e9 	stur	x9, [sp, #33]
    469c:	f90017e8 	str	x8, [sp, #40]
    46a0:	940002db 	bl	520c <decltype(auto) std::__1::__visit_format_arg[abi:nn190104]<std::__1::__format_spec::__substitute_arg_id[abi:nn190104]<std::__1::basic_format_context<std::__1::back_insert_iterator<std::__1::__format::__output_buffer<char> >, char> >(std::__1::basic_format_arg<std::__1::basic_format_context<std::__1::back_insert_iterator<std::__1::__format::__output_buffer<char> >, char> >)::{lambda(auto:1)#1}, std::__1::basic_format_context<std::__1::back_insert_iterator<std::__1::__format::__output_buffer<char> >, char> >(std::__1::__format_spec::__substitute_arg_id[abi:nn190104]<std::__1::basic_format_context<std::__1::back_insert_iterator<std::__1::__format::__output_buffer<char> >, char> >(std::__1::basic_format_arg<std::__1::basic_format_context<std::__1::back_insert_iterator<std::__1::__format::__output_buffer<char> >, char> >)::{lambda(auto:1)#1}&&, std::__1::basic_format_arg<std::__1::basic_format_context<std::__1::back_insert_iterator<std::__1::__format::__output_buffer<char> >, char> >)>
    46a4:	d378dee8 	lsl	x8, x23, #8
    46a8:	b9400e69 	ldr	w9, [x19, #12]
    46ac:	2a0003ea 	mov	w10, w0
    46b0:	aa158108 	orr	x8, x8, x21, lsl #32
    46b4:	aa098141 	orr	x1, x10, x9, lsl #32
    46b8:	b3401ac8 	bfxil	x8, x22, #0, #7
    46bc:	aa0803e0 	mov	x0, x8
    46c0:	a9464ff4 	ldp	x20, x19, [sp, #96]
    46c4:	f94023f7 	ldr	x23, [sp, #64]
    46c8:	a94557f6 	ldp	x22, x21, [sp, #80]
    46cc:	a9437bfd 	ldp	x29, x30, [sp, #48]
    46d0:	9101c3ff 	add	sp, sp, #0x70
    46d4:	d65f03c0 	ret

00000000000046d8 <_ZNSt3__111__formatter16__format_integerB8nn190104ITkNS_17unsigned_integralEjcNS_20basic_format_contextINS_20back_insert_iteratorINS_8__format15__output_bufferIcEEEEcEEEENT1_8iteratorET_RS9_NS_13__format_spec23__parsed_specificationsIT0_EEb>:
    46d8:	d10103ff 	sub	sp, sp, #0x40
    46dc:	a9037bfd 	stp	x29, x30, [sp, #48]
    46e0:	9100c3fd 	add	x29, sp, #0x30
    46e4:	53083c48 	ubfx	w8, w2, #8, #8
    46e8:	71000d1f 	cmp	w8, #0x3
    46ec:	5400022d 	b.le	4730 <_ZNSt3__111__formatter16__format_integerB8nn190104ITkNS_17unsigned_integralEjcNS_20basic_format_contextINS_20back_insert_iteratorINS_8__format15__output_bufferIcEEEEcEEEENT1_8iteratorET_RS9_NS_13__format_spec23__parsed_specificationsIT0_EEb+0x58>
    46f0:	7100151f 	cmp	w8, #0x5
    46f4:	5400042c 	b.gt	4778 <_ZNSt3__111__formatter16__format_integerB8nn190104ITkNS_17unsigned_integralEjcNS_20basic_format_contextINS_20back_insert_iteratorINS_8__format15__output_bufferIcEEEEcEEEENT1_8iteratorET_RS9_NS_13__format_spec23__parsed_specificationsIT0_EEb+0xa0>
    46f8:	7100111f 	cmp	w8, #0x4
    46fc:	540002e1 	b.ne	4758 <_ZNSt3__111__formatter16__format_integerB8nn190104ITkNS_17unsigned_integralEjcNS_20basic_format_contextINS_20back_insert_iteratorINS_8__format15__output_bufferIcEEEEcEEEENT1_8iteratorET_RS9_NS_13__format_spec23__parsed_specificationsIT0_EEb+0x80>  // b.any
    4700:	9270dc48 	and	x8, x2, #0xffffffffffff00ff
    4704:	910037e9 	add	x9, sp, #0xd
    4708:	7100001f 	cmp	w0, #0x0
    470c:	d000004a 	adrp	x10, e000 <_IO_stdin_used+0x4b0>
    4710:	910d054a 	add	x10, x10, #0x341
    4714:	b2760102 	orr	x2, x8, #0x400
    4718:	9a8a03e7 	csel	x7, xzr, x10, eq	// eq = none
    471c:	5280010a 	mov	w10, #0x8                   	// #8
    4720:	12000084 	and	w4, w4, #0x1
    4724:	910037e5 	add	x5, sp, #0xd
    4728:	91003526 	add	x6, x9, #0xd
    472c:	1400002f 	b	47e8 <_ZNSt3__111__formatter16__format_integerB8nn190104ITkNS_17unsigned_integralEjcNS_20basic_format_contextINS_20back_insert_iteratorINS_8__format15__output_bufferIcEEEEcEEEENT1_8iteratorET_RS9_NS_13__format_spec23__parsed_specificationsIT0_EEb+0x110>
    4730:	34000148 	cbz	w8, 4758 <_ZNSt3__111__formatter16__format_integerB8nn190104ITkNS_17unsigned_integralEjcNS_20basic_format_contextINS_20back_insert_iteratorINS_8__format15__output_bufferIcEEEEcEEEENT1_8iteratorET_RS9_NS_13__format_spec23__parsed_specificationsIT0_EEb+0x80>
    4734:	7100091f 	cmp	w8, #0x2
    4738:	54000321 	b.ne	479c <_ZNSt3__111__formatter16__format_integerB8nn190104ITkNS_17unsigned_integralEjcNS_20basic_format_contextINS_20back_insert_iteratorINS_8__format15__output_bufferIcEEEEcEEEENT1_8iteratorET_RS9_NS_13__format_spec23__parsed_specificationsIT0_EEb+0xc4>  // b.any
    473c:	9270dc48 	and	x8, x2, #0xffffffffffff00ff
    4740:	910037e9 	add	x9, sp, #0xd
    4744:	d0000047 	adrp	x7, e000 <_IO_stdin_used+0x4b0>
    4748:	910cece7 	add	x7, x7, #0x33b
    474c:	5280004a 	mov	w10, #0x2                   	// #2
    4750:	b2770102 	orr	x2, x8, #0x200
    4754:	14000018 	b	47b4 <_ZNSt3__111__formatter16__format_integerB8nn190104ITkNS_17unsigned_integralEjcNS_20basic_format_contextINS_20back_insert_iteratorINS_8__format15__output_bufferIcEEEEcEEEENT1_8iteratorET_RS9_NS_13__format_spec23__parsed_specificationsIT0_EEb+0xdc>
    4758:	910037e8 	add	x8, sp, #0xd
    475c:	52800149 	mov	w9, #0xa                   	// #10
    4760:	12000084 	and	w4, w4, #0x1
    4764:	910037e5 	add	x5, sp, #0xd
    4768:	91002d06 	add	x6, x8, #0xb
    476c:	aa1f03e7 	mov	x7, xzr
    4770:	b90003e9 	str	w9, [sp]
    4774:	1400001e 	b	47ec <_ZNSt3__111__formatter16__format_integerB8nn190104ITkNS_17unsigned_integralEjcNS_20basic_format_contextINS_20back_insert_iteratorINS_8__format15__output_bufferIcEEEEcEEEENT1_8iteratorET_RS9_NS_13__format_spec23__parsed_specificationsIT0_EEb+0x114>
    4778:	7100191f 	cmp	w8, #0x6
    477c:	54000241 	b.ne	47c4 <_ZNSt3__111__formatter16__format_integerB8nn190104ITkNS_17unsigned_integralEjcNS_20basic_format_contextINS_20back_insert_iteratorINS_8__format15__output_bufferIcEEEEcEEEENT1_8iteratorET_RS9_NS_13__format_spec23__parsed_specificationsIT0_EEb+0xec>  // b.any
    4780:	9270dc48 	and	x8, x2, #0xffffffffffff00ff
    4784:	910037e9 	add	x9, sp, #0xd
    4788:	d0000047 	adrp	x7, e000 <_IO_stdin_used+0x4b0>
    478c:	910d0ce7 	add	x7, x7, #0x343
    4790:	5280020a 	mov	w10, #0x10                  	// #16
    4794:	b2770502 	orr	x2, x8, #0x600
    4798:	14000011 	b	47dc <_ZNSt3__111__formatter16__format_integerB8nn190104ITkNS_17unsigned_integralEjcNS_20basic_format_contextINS_20back_insert_iteratorINS_8__format15__output_bufferIcEEEEcEEEENT1_8iteratorET_RS9_NS_13__format_spec23__parsed_specificationsIT0_EEb+0x104>
    479c:	9270dc48 	and	x8, x2, #0xffffffffffff00ff
    47a0:	910037e9 	add	x9, sp, #0xd
    47a4:	d0000047 	adrp	x7, e000 <_IO_stdin_used+0x4b0>
    47a8:	910cf8e7 	add	x7, x7, #0x33e
    47ac:	5280004a 	mov	w10, #0x2                   	// #2
    47b0:	b2780502 	orr	x2, x8, #0x300
    47b4:	12000084 	and	w4, w4, #0x1
    47b8:	910037e5 	add	x5, sp, #0xd
    47bc:	91008d26 	add	x6, x9, #0x23
    47c0:	1400000a 	b	47e8 <_ZNSt3__111__formatter16__format_integerB8nn190104ITkNS_17unsigned_integralEjcNS_20basic_format_contextINS_20back_insert_iteratorINS_8__format15__output_bufferIcEEEEcEEEENT1_8iteratorET_RS9_NS_13__format_spec23__parsed_specificationsIT0_EEb+0x110>
    47c4:	9270dc48 	and	x8, x2, #0xffffffffffff00ff
    47c8:	910037e9 	add	x9, sp, #0xd
    47cc:	d0000047 	adrp	x7, e000 <_IO_stdin_used+0x4b0>
    47d0:	910d18e7 	add	x7, x7, #0x346
    47d4:	5280020a 	mov	w10, #0x10                  	// #16
    47d8:	b2780902 	orr	x2, x8, #0x700
    47dc:	12000084 	and	w4, w4, #0x1
    47e0:	910037e5 	add	x5, sp, #0xd
    47e4:	91002d26 	add	x6, x9, #0xb
    47e8:	b90003ea 	str	w10, [sp]
    47ec:	940002ad 	bl	52a0 <_ZNSt3__111__formatter16__format_integerB8nn190104ITkNS_17unsigned_integralEjTkNS_19contiguous_iteratorEPccNS_20basic_format_contextINS_20back_insert_iteratorINS_8__format15__output_bufferIcEEEEcEEQ7same_asIcNS_11conditionalIXsr21__is_primary_templateINS_15iterator_traitsIu14__remove_cvrefIT0_EEEEE5valueENS_26indirectly_readable_traitsISD_EESE_E4type10value_typeEEEENT2_8iteratorET_RSK_NS_13__format_spec23__parsed_specificationsIT1_EEbSC_SC_PKci>
    47f0:	a9437bfd 	ldp	x29, x30, [sp, #48]
    47f4:	910103ff 	add	sp, sp, #0x40
    47f8:	d65f03c0 	ret

00000000000047fc <_ZNSt3__111__formatter6__copyB8nn190104ITkNS_15__fmt_char_typeEcTkNS_15__fmt_char_typeEcTkNS_15output_iteratorIRKT0_EENS_20back_insert_iteratorINS_8__format15__output_bufferIcEEEEEEDtfp0_ENS_17basic_string_viewIT_NS_11char_traitsISD_EEEET1_>:
    47fc:	a9bc7bfd 	stp	x29, x30, [sp, #-64]!
    4800:	f9000bf7 	str	x23, [sp, #16]
    4804:	a90257f6 	stp	x22, x21, [sp, #32]
    4808:	a9034ff4 	stp	x20, x19, [sp, #48]
    480c:	910003fd 	mov	x29, sp
    4810:	aa0103f5 	mov	x21, x1
    4814:	a9408456 	ldp	x22, x1, [x2, #8]
    4818:	aa0203f3 	mov	x19, x2
    481c:	aa0003f4 	mov	x20, x0
    4820:	8b150028 	add	x8, x1, x21
    4824:	eb16011f 	cmp	x8, x22
    4828:	540000e3 	b.cc	4844 <_ZNSt3__111__formatter6__copyB8nn190104ITkNS_15__fmt_char_typeEcTkNS_15__fmt_char_typeEcTkNS_15output_iteratorIRKT0_EENS_20back_insert_iteratorINS_8__format15__output_bufferIcEEEEEEDtfp0_ENS_17basic_string_viewIT_NS_11char_traitsISD_EEEET1_+0x48>  // b.lo, b.ul, b.last
    482c:	a9418a68 	ldp	x8, x2, [x19, #24]
    4830:	f9400260 	ldr	x0, [x19]
    4834:	d63f0100 	blr	x8
    4838:	f9400676 	ldr	x22, [x19, #8]
    483c:	aa1f03e1 	mov	x1, xzr
    4840:	f9000a7f 	str	xzr, [x19, #16]
    4844:	eb1602b7 	subs	x23, x21, x22
    4848:	54000162 	b.cs	4874 <_ZNSt3__111__formatter6__copyB8nn190104ITkNS_15__fmt_char_typeEcTkNS_15__fmt_char_typeEcTkNS_15output_iteratorIRKT0_EENS_20back_insert_iteratorINS_8__format15__output_bufferIcEEEEEEDtfp0_ENS_17basic_string_viewIT_NS_11char_traitsISD_EEEET1_+0x78>  // b.hs, b.nlast
    484c:	b40000f5 	cbz	x21, 4868 <_ZNSt3__111__formatter6__copyB8nn190104ITkNS_15__fmt_char_typeEcTkNS_15__fmt_char_typeEcTkNS_15output_iteratorIRKT0_EENS_20back_insert_iteratorINS_8__format15__output_bufferIcEEEEEEDtfp0_ENS_17basic_string_viewIT_NS_11char_traitsISD_EEEET1_+0x6c>
    4850:	f9400268 	ldr	x8, [x19]
    4854:	aa1503e2 	mov	x2, x21
    4858:	8b010100 	add	x0, x8, x1
    485c:	aa1403e1 	mov	x1, x20
    4860:	97fff514 	bl	1cb0 <memmove@plt>
    4864:	f9400a61 	ldr	x1, [x19, #16]
    4868:	8b150028 	add	x8, x1, x21
    486c:	f9000a68 	str	x8, [x19, #16]
    4870:	14000022 	b	48f8 <_ZNSt3__111__formatter6__copyB8nn190104ITkNS_15__fmt_char_typeEcTkNS_15__fmt_char_typeEcTkNS_15output_iteratorIRKT0_EENS_20back_insert_iteratorINS_8__format15__output_bufferIcEEEEEEDtfp0_ENS_17basic_string_viewIT_NS_11char_traitsISD_EEEET1_+0xfc>
    4874:	b40000d6 	cbz	x22, 488c <_ZNSt3__111__formatter6__copyB8nn190104ITkNS_15__fmt_char_typeEcTkNS_15__fmt_char_typeEcTkNS_15output_iteratorIRKT0_EENS_20back_insert_iteratorINS_8__format15__output_bufferIcEEEEEEDtfp0_ENS_17basic_string_viewIT_NS_11char_traitsISD_EEEET1_+0x90>
    4878:	f9400268 	ldr	x8, [x19]
    487c:	aa1603e2 	mov	x2, x22
    4880:	8b010100 	add	x0, x8, x1
    4884:	aa1403e1 	mov	x1, x20
    4888:	97fff50a 	bl	1cb0 <memmove@plt>
    488c:	a9418a68 	ldp	x8, x2, [x19, #24]
    4890:	aa1603e1 	mov	x1, x22
    4894:	f9400260 	ldr	x0, [x19]
    4898:	f9000a76 	str	x22, [x19, #16]
    489c:	d63f0100 	blr	x8
    48a0:	f9000a7f 	str	xzr, [x19, #16]
    48a4:	b40002b7 	cbz	x23, 48f8 <_ZNSt3__111__formatter6__copyB8nn190104ITkNS_15__fmt_char_typeEcTkNS_15__fmt_char_typeEcTkNS_15output_iteratorIRKT0_EENS_20back_insert_iteratorINS_8__format15__output_bufferIcEEEEEEDtfp0_ENS_17basic_string_viewIT_NS_11char_traitsISD_EEEET1_+0xfc>
    48a8:	8b160294 	add	x20, x20, x22
    48ac:	1400000a 	b	48d4 <_ZNSt3__111__formatter6__copyB8nn190104ITkNS_15__fmt_char_typeEcTkNS_15__fmt_char_typeEcTkNS_15output_iteratorIRKT0_EENS_20back_insert_iteratorINS_8__format15__output_bufferIcEEEEEEDtfp0_ENS_17basic_string_viewIT_NS_11char_traitsISD_EEEET1_+0xd8>
    48b0:	a9418a68 	ldp	x8, x2, [x19, #24]
    48b4:	aa1503e1 	mov	x1, x21
    48b8:	f9400260 	ldr	x0, [x19]
    48bc:	8b150294 	add	x20, x20, x21
    48c0:	f9000a75 	str	x21, [x19, #16]
    48c4:	cb1502f7 	sub	x23, x23, x21
    48c8:	d63f0100 	blr	x8
    48cc:	f9000a7f 	str	xzr, [x19, #16]
    48d0:	b4000157 	cbz	x23, 48f8 <_ZNSt3__111__formatter6__copyB8nn190104ITkNS_15__fmt_char_typeEcTkNS_15__fmt_char_typeEcTkNS_15output_iteratorIRKT0_EENS_20back_insert_iteratorINS_8__format15__output_bufferIcEEEEEEDtfp0_ENS_17basic_string_viewIT_NS_11char_traitsISD_EEEET1_+0xfc>
    48d4:	f9400668 	ldr	x8, [x19, #8]
    48d8:	eb17011f 	cmp	x8, x23
    48dc:	9a973115 	csel	x21, x8, x23, cc	// cc = lo, ul, last
    48e0:	b4fffe88 	cbz	x8, 48b0 <_ZNSt3__111__formatter6__copyB8nn190104ITkNS_15__fmt_char_typeEcTkNS_15__fmt_char_typeEcTkNS_15output_iteratorIRKT0_EENS_20back_insert_iteratorINS_8__format15__output_bufferIcEEEEEEDtfp0_ENS_17basic_string_viewIT_NS_11char_traitsISD_EEEET1_+0xb4>
    48e4:	f9400260 	ldr	x0, [x19]
    48e8:	aa1403e1 	mov	x1, x20
    48ec:	aa1503e2 	mov	x2, x21
    48f0:	97fff4f0 	bl	1cb0 <memmove@plt>
    48f4:	17ffffef 	b	48b0 <_ZNSt3__111__formatter6__copyB8nn190104ITkNS_15__fmt_char_typeEcTkNS_15__fmt_char_typeEcTkNS_15output_iteratorIRKT0_EENS_20back_insert_iteratorINS_8__format15__output_bufferIcEEEEEEDtfp0_ENS_17basic_string_viewIT_NS_11char_traitsISD_EEEET1_+0xb4>
    48f8:	aa1303e0 	mov	x0, x19
    48fc:	a9434ff4 	ldp	x20, x19, [sp, #48]
    4900:	f9400bf7 	ldr	x23, [sp, #16]
    4904:	a94257f6 	ldp	x22, x21, [sp, #32]
    4908:	a8c47bfd 	ldp	x29, x30, [sp], #64
    490c:	d65f03c0 	ret

0000000000004910 <_ZNSt3__111__formatter7__writeB8nn190104IccTkNS_15output_iteratorIRKT_EENS_20back_insert_iteratorINS_8__format15__output_bufferIcEEEEEEDtfp0_ENS_17basic_string_viewIS3_NS_11char_traitsIS3_EEEET1_NS_13__format_spec23__parsed_specificationsIT0_EEl>:
    4910:	d10143ff 	sub	sp, sp, #0x50
    4914:	a9017bfd 	stp	x29, x30, [sp, #16]
    4918:	a9025ff8 	stp	x24, x23, [sp, #32]
    491c:	a90357f6 	stp	x22, x21, [sp, #48]
    4920:	a9044ff4 	stp	x20, x19, [sp, #64]
    4924:	910043fd 	add	x29, sp, #0x10
    4928:	9360fc68 	asr	x8, x3, #32
    492c:	eb050115 	subs	x21, x8, x5
    4930:	540001ed 	b.le	496c <_ZNSt3__111__formatter7__writeB8nn190104IccTkNS_15output_iteratorIRKT_EENS_20back_insert_iteratorINS_8__format15__output_bufferIcEEEEEEDtfp0_ENS_17basic_string_viewIS3_NS_11char_traitsIS3_EEEET1_NS_13__format_spec23__parsed_specificationsIT0_EEl+0x5c>
    4934:	12000868 	and	w8, w3, #0x7
    4938:	aa1f03f3 	mov	x19, xzr
    493c:	7100051f 	cmp	w8, #0x1
    4940:	5400022c 	b.gt	4984 <_ZNSt3__111__formatter7__writeB8nn190104IccTkNS_15output_iteratorIRKT_EENS_20back_insert_iteratorINS_8__format15__output_bufferIcEEEEEEDtfp0_ENS_17basic_string_viewIS3_NS_11char_traitsIS3_EEEET1_NS_13__format_spec23__parsed_specificationsIT0_EEl+0x74>
    4944:	340002a8 	cbz	w8, 4998 <_ZNSt3__111__formatter7__writeB8nn190104IccTkNS_15output_iteratorIRKT_EENS_20back_insert_iteratorINS_8__format15__output_bufferIcEEEEEEDtfp0_ENS_17basic_string_viewIS3_NS_11char_traitsIS3_EEEET1_NS_13__format_spec23__parsed_specificationsIT0_EEl+0x88>
    4948:	d360fc94 	lsr	x20, x4, #32
    494c:	52801fe8 	mov	w8, #0xff                  	// #255
    4950:	0a340108 	bic	w8, w8, w20
    4954:	5ac01108 	clz	w8, w8
    4958:	71006108 	subs	w8, w8, #0x18
    495c:	540006c0 	b.eq	4a34 <_ZNSt3__111__formatter7__writeB8nn190104IccTkNS_15output_iteratorIRKT_EENS_20back_insert_iteratorINS_8__format15__output_bufferIcEEEEEEDtfp0_ENS_17basic_string_viewIS3_NS_11char_traitsIS3_EEEET1_NS_13__format_spec23__parsed_specificationsIT0_EEl+0x124>  // b.none
    4960:	92401d16 	and	x22, x8, #0xff
    4964:	aa1503f3 	mov	x19, x21
    4968:	1400001f 	b	49e4 <_ZNSt3__111__formatter7__writeB8nn190104IccTkNS_15output_iteratorIRKT_EENS_20back_insert_iteratorINS_8__format15__output_bufferIcEEEEEEDtfp0_ENS_17basic_string_viewIS3_NS_11char_traitsIS3_EEEET1_NS_13__format_spec23__parsed_specificationsIT0_EEl+0xd4>
    496c:	a9444ff4 	ldp	x20, x19, [sp, #64]
    4970:	a94357f6 	ldp	x22, x21, [sp, #48]
    4974:	a9425ff8 	ldp	x24, x23, [sp, #32]
    4978:	a9417bfd 	ldp	x29, x30, [sp, #16]
    497c:	910143ff 	add	sp, sp, #0x50
    4980:	17ffff9f 	b	47fc <_ZNSt3__111__formatter6__copyB8nn190104ITkNS_15__fmt_char_typeEcTkNS_15__fmt_char_typeEcTkNS_15output_iteratorIRKT0_EENS_20back_insert_iteratorINS_8__format15__output_bufferIcEEEEEEDtfp0_ENS_17basic_string_viewIT_NS_11char_traitsISD_EEEET1_>
    4984:	71000d1f 	cmp	w8, #0x3
    4988:	54000080 	b.eq	4998 <_ZNSt3__111__formatter7__writeB8nn190104IccTkNS_15output_iteratorIRKT_EENS_20back_insert_iteratorINS_8__format15__output_bufferIcEEEEEEDtfp0_ENS_17basic_string_viewIS3_NS_11char_traitsIS3_EEEET1_NS_13__format_spec23__parsed_specificationsIT0_EEl+0x88>  // b.none
    498c:	d341fea8 	lsr	x8, x21, #1
    4990:	cb0802b3 	sub	x19, x21, x8
    4994:	aa0803f5 	mov	x21, x8
    4998:	d360fc94 	lsr	x20, x4, #32
    499c:	52801fe8 	mov	w8, #0xff                  	// #255
    49a0:	0a340108 	bic	w8, w8, w20
    49a4:	b9000bf4 	str	w20, [sp, #8]
    49a8:	5ac01108 	clz	w8, w8
    49ac:	71006108 	subs	w8, w8, #0x18
    49b0:	540003c0 	b.eq	4a28 <_ZNSt3__111__formatter7__writeB8nn190104IccTkNS_15output_iteratorIRKT_EENS_20back_insert_iteratorINS_8__format15__output_bufferIcEEEEEEDtfp0_ENS_17basic_string_viewIS3_NS_11char_traitsIS3_EEEET1_NS_13__format_spec23__parsed_specificationsIT0_EEl+0x118>  // b.none
    49b4:	92401d16 	and	x22, x8, #0xff
    49b8:	b4000175 	cbz	x21, 49e4 <_ZNSt3__111__formatter7__writeB8nn190104IccTkNS_15output_iteratorIRKT_EENS_20back_insert_iteratorINS_8__format15__output_bufferIcEEEEEEDtfp0_ENS_17basic_string_viewIS3_NS_11char_traitsIS3_EEEET1_NS_13__format_spec23__parsed_specificationsIT0_EEl+0xd4>
    49bc:	aa0003f8 	mov	x24, x0
    49c0:	aa0103f7 	mov	x23, x1
    49c4:	910023e0 	add	x0, sp, #0x8
    49c8:	aa1603e1 	mov	x1, x22
    49cc:	97ffff8c 	bl	47fc <_ZNSt3__111__formatter6__copyB8nn190104ITkNS_15__fmt_char_typeEcTkNS_15__fmt_char_typeEcTkNS_15output_iteratorIRKT0_EENS_20back_insert_iteratorINS_8__format15__output_bufferIcEEEEEEDtfp0_ENS_17basic_string_viewIT_NS_11char_traitsISD_EEEET1_>
    49d0:	f10006b5 	subs	x21, x21, #0x1
    49d4:	aa0003e2 	mov	x2, x0
    49d8:	54ffff61 	b.ne	49c4 <_ZNSt3__111__formatter7__writeB8nn190104IccTkNS_15output_iteratorIRKT_EENS_20back_insert_iteratorINS_8__format15__output_bufferIcEEEEEEDtfp0_ENS_17basic_string_viewIS3_NS_11char_traitsIS3_EEEET1_NS_13__format_spec23__parsed_specificationsIT0_EEl+0xb4>  // b.any
    49dc:	aa1803e0 	mov	x0, x24
    49e0:	aa1703e1 	mov	x1, x23
    49e4:	97ffff86 	bl	47fc <_ZNSt3__111__formatter6__copyB8nn190104ITkNS_15__fmt_char_typeEcTkNS_15__fmt_char_typeEcTkNS_15output_iteratorIRKT0_EENS_20back_insert_iteratorINS_8__format15__output_bufferIcEEEEEEDtfp0_ENS_17basic_string_viewIT_NS_11char_traitsISD_EEEET1_>
    49e8:	aa0003e2 	mov	x2, x0
    49ec:	b81fc3b4 	stur	w20, [x29, #-4]
    49f0:	b40000f3 	cbz	x19, 4a0c <_ZNSt3__111__formatter7__writeB8nn190104IccTkNS_15output_iteratorIRKT_EENS_20back_insert_iteratorINS_8__format15__output_bufferIcEEEEEEDtfp0_ENS_17basic_string_viewIS3_NS_11char_traitsIS3_EEEET1_NS_13__format_spec23__parsed_specificationsIT0_EEl+0xfc>
    49f4:	d10013a0 	sub	x0, x29, #0x4
    49f8:	aa1603e1 	mov	x1, x22
    49fc:	97ffff80 	bl	47fc <_ZNSt3__111__formatter6__copyB8nn190104ITkNS_15__fmt_char_typeEcTkNS_15__fmt_char_typeEcTkNS_15output_iteratorIRKT0_EENS_20back_insert_iteratorINS_8__format15__output_bufferIcEEEEEEDtfp0_ENS_17basic_string_viewIT_NS_11char_traitsISD_EEEET1_>
    4a00:	f1000673 	subs	x19, x19, #0x1
    4a04:	aa0003e2 	mov	x2, x0
    4a08:	54ffff61 	b.ne	49f4 <_ZNSt3__111__formatter7__writeB8nn190104IccTkNS_15output_iteratorIRKT_EENS_20back_insert_iteratorINS_8__format15__output_bufferIcEEEEEEDtfp0_ENS_17basic_string_viewIS3_NS_11char_traitsIS3_EEEET1_NS_13__format_spec23__parsed_specificationsIT0_EEl+0xe4>  // b.any
    4a0c:	aa0203e0 	mov	x0, x2
    4a10:	a9444ff4 	ldp	x20, x19, [sp, #64]
    4a14:	a94357f6 	ldp	x22, x21, [sp, #48]
    4a18:	a9425ff8 	ldp	x24, x23, [sp, #32]
    4a1c:	a9417bfd 	ldp	x29, x30, [sp, #16]
    4a20:	910143ff 	add	sp, sp, #0x50
    4a24:	d65f03c0 	ret
    4a28:	aa0003f7 	mov	x23, x0
    4a2c:	aa0103f6 	mov	x22, x1
    4a30:	14000005 	b	4a44 <_ZNSt3__111__formatter7__writeB8nn190104IccTkNS_15output_iteratorIRKT_EENS_20back_insert_iteratorINS_8__format15__output_bufferIcEEEEEEDtfp0_ENS_17basic_string_viewIS3_NS_11char_traitsIS3_EEEET1_NS_13__format_spec23__parsed_specificationsIT0_EEl+0x134>
    4a34:	aa0003f7 	mov	x23, x0
    4a38:	aa0103f6 	mov	x22, x1
    4a3c:	aa1503f3 	mov	x19, x21
    4a40:	aa1f03f5 	mov	x21, xzr
    4a44:	aa0203e0 	mov	x0, x2
    4a48:	aa1503e1 	mov	x1, x21
    4a4c:	2a1403e2 	mov	w2, w20
    4a50:	940001b0 	bl	5110 <_ZNSt3__111__formatter6__fillB8nn190104ITkNS_15__fmt_char_typeEcTkNS_15output_iteratorIRKT_EENS_20back_insert_iteratorINS_8__format15__output_bufferIcEEEEEET0_SB_mS3_>
    4a54:	aa0003e2 	mov	x2, x0
    4a58:	aa1703e0 	mov	x0, x23
    4a5c:	aa1603e1 	mov	x1, x22
    4a60:	97ffff67 	bl	47fc <_ZNSt3__111__formatter6__copyB8nn190104ITkNS_15__fmt_char_typeEcTkNS_15__fmt_char_typeEcTkNS_15output_iteratorIRKT0_EENS_20back_insert_iteratorINS_8__format15__output_bufferIcEEEEEEDtfp0_ENS_17basic_string_viewIT_NS_11char_traitsISD_EEEET1_>
    4a64:	aa1303e1 	mov	x1, x19
    4a68:	2a1403e2 	mov	w2, w20
    4a6c:	a9444ff4 	ldp	x20, x19, [sp, #64]
    4a70:	a94357f6 	ldp	x22, x21, [sp, #48]
    4a74:	a9425ff8 	ldp	x24, x23, [sp, #32]
    4a78:	a9417bfd 	ldp	x29, x30, [sp, #16]
    4a7c:	910143ff 	add	sp, sp, #0x50
    4a80:	140001a4 	b	5110 <_ZNSt3__111__formatter6__fillB8nn190104ITkNS_15__fmt_char_typeEcTkNS_15output_iteratorIRKT_EENS_20back_insert_iteratorINS_8__format15__output_bufferIcEEEEEET0_SB_mS3_>

0000000000004a84 <_ZNSt3__113__format_spec8__detail43__estimate_column_width_grapheme_clusteringB8nn190104ITkNS_19contiguous_iteratorEPKcEENS0_21__column_width_resultIT_EES6_S6_mNS0_23__column_width_roundingE>:
    4a84:	d10243ff 	sub	sp, sp, #0x90
    4a88:	a9037bfd 	stp	x29, x30, [sp, #48]
    4a8c:	a9046ffc 	stp	x28, x27, [sp, #64]
    4a90:	a90567fa 	stp	x26, x25, [sp, #80]
    4a94:	a9065ff8 	stp	x24, x23, [sp, #96]
    4a98:	a90757f6 	stp	x22, x21, [sp, #112]
    4a9c:	a9084ff4 	stp	x20, x19, [sp, #128]
    4aa0:	9100c3fd 	add	x29, sp, #0x30
    4aa4:	aa0003f3 	mov	x19, x0
    4aa8:	a90087e0 	stp	x0, x1, [sp, #8]
    4aac:	910023e0 	add	x0, sp, #0x8
    4ab0:	2a0303f4 	mov	w20, w3
    4ab4:	aa0203f5 	mov	x21, x2
    4ab8:	aa0103f6 	mov	x22, x1
    4abc:	910023f7 	add	x23, sp, #0x8
    4ac0:	97fffcec 	bl	3e70 <std::__1::__unicode::__code_point_view<char>::__consume[abi:nn190104]()>
    4ac4:	2a0003e8 	mov	w8, w0
    4ac8:	910042e0 	add	x0, x23, #0x10
    4acc:	12007901 	and	w1, w8, #0x7fffffff
    4ad0:	9400007b 	bl	4cbc <std::__1::__unicode::__extended_grapheme_cluster_break::__extended_grapheme_cluster_break[abi:nn190104](char32_t)>
    4ad4:	eb16027f 	cmp	x19, x22
    4ad8:	54000620 	b.eq	4b9c <_ZNSt3__113__format_spec8__detail43__estimate_column_width_grapheme_clusteringB8nn190104ITkNS_19contiguous_iteratorEPKcEENS0_21__column_width_resultIT_EES6_S6_mNS0_23__column_width_roundingE+0x118>  // b.none
    4adc:	52800058 	mov	w24, #0x2                   	// #2
    4ae0:	5282205a 	mov	w26, #0x1102                	// #4354
    4ae4:	aa1f03f7 	mov	x23, xzr
    4ae8:	72bfff98 	movk	w24, #0xfffc, lsl #16
    4aec:	52800039 	mov	w25, #0x1                   	// #1
    4af0:	72bfff9a 	movk	w26, #0xfffc, lsl #16
    4af4:	5287fffb 	mov	w27, #0x3fff                	// #16383
    4af8:	9000007c 	adrp	x28, 10000 <std::__1::__indic_conjunct_break::__entries[abi:nn190104]+0x54>
    4afc:	910b439c 	add	x28, x28, #0x2d0
    4b00:	910023e0 	add	x0, sp, #0x8
    4b04:	94000033 	bl	4bd0 <std::__1::__unicode::__extended_grapheme_cluster_view<char>::__consume[abi:nn190104]()>
    4b08:	0b180008 	add	w8, w0, w24
    4b0c:	6b1a011f 	cmp	w8, w26
    4b10:	540002e3 	b.cc	4b6c <_ZNSt3__113__format_spec8__detail43__estimate_column_width_grapheme_clusteringB8nn190104ITkNS_19contiguous_iteratorEPKcEENS0_21__column_width_resultIT_EES6_S6_mNS0_23__column_width_roundingE+0xe8>  // b.lo, b.ul, b.last
    4b14:	2a003b69 	orr	w9, w27, w0, lsl #14
    4b18:	aa1c03e8 	mov	x8, x28
    4b1c:	52800d6a 	mov	w10, #0x6b                  	// #107
    4b20:	d341fd4b 	lsr	x11, x10, #1
    4b24:	8b0b090c 	add	x12, x8, x11, lsl #2
    4b28:	aa2b03ee 	mvn	x14, x11
    4b2c:	8b0e014a 	add	x10, x10, x14
    4b30:	b840458d 	ldr	w13, [x12], #4
    4b34:	6b0d013f 	cmp	w9, w13
    4b38:	9a8a316a 	csel	x10, x11, x10, cc	// cc = lo, ul, last
    4b3c:	9a8c3108 	csel	x8, x8, x12, cc	// cc = lo, ul, last
